###############################################################################
#
# IAR ELF Linker V9.30.1.335/W64 for ARM                  20/Apr/2025  14:13:10
# Copyright 2007-2022 IAR Systems AB.
#
#    Output file  =
#        D:\WebDown\S32K144\S32K144 …\S32K144
#        AUTOSAR工具包\share_20230823\AUTOSAR_TOOLs\S32K144_SIP\MICROSAR\CBD1800257_D01_S32K1xx\Applications\S32K144_Start_new_IAR\Debug\Exe\ASR_S32K144_Start.out
#    Map file     =
#        D:\WebDown\S32K144\S32K144 …\S32K144
#        AUTOSAR工具包\share_20230823\AUTOSAR_TOOLs\S32K144_SIP\MICROSAR\CBD1800257_D01_S32K1xx\Applications\S32K144_Start_new_IAR\Debug\List\ASR_S32K144_Start.map
#    Command line =
#        -f "D:\WebDown\S32K144\S32K144 …\S32K144
#        AUTOSAR工具包\share_20230823\AUTOSAR_TOOLs\S32K144_SIP\MICROSAR\CBD1800257_D01_S32K1xx\Applications\S32K144_Start_new_IAR\Debug\Exe\ASR_S32K144_Start.out.rsp"
#        ("D:\WebDown\S32K144\S32K144 …\S32K144
#        AUTOSAR工具包\share_20230823\AUTOSAR_TOOLs\S32K144_SIP\MICROSAR\CBD1800257_D01_S32K1xx\Applications\S32K144_Start_new_IAR\Debug\Obj\Appl\BrsAsrMain.o"
#        "D:\WebDown\S32K144\S32K144 …\S32K144
#        AUTOSAR工具包\share_20230823\AUTOSAR_TOOLs\S32K144_SIP\MICROSAR\CBD1800257_D01_S32K1xx\Applications\S32K144_Start_new_IAR\Debug\Obj\BSW\BswM\BswM.o"
#        "D:\WebDown\S32K144\S32K144 …\S32K144
#        AUTOSAR工具包\share_20230823\AUTOSAR_TOOLs\S32K144_SIP\MICROSAR\CBD1800257_D01_S32K1xx\Applications\S32K144_Start_new_IAR\Debug\Obj\Appl\Source\BswM_Callout_Stubs.o"
#        "D:\WebDown\S32K144\S32K144 …\S32K144
#        AUTOSAR工具包\share_20230823\AUTOSAR_TOOLs\S32K144_SIP\MICROSAR\CBD1800257_D01_S32K1xx\Applications\S32K144_Start_new_IAR\Debug\Obj\Appl\GenData\BswM_Lcfg.o"
#        "D:\WebDown\S32K144\S32K144 …\S32K144
#        AUTOSAR工具包\share_20230823\AUTOSAR_TOOLs\S32K144_SIP\MICROSAR\CBD1800257_D01_S32K1xx\Applications\S32K144_Start_new_IAR\Debug\Obj\Appl\GenData\BswM_PBcfg.o"
#        "D:\WebDown\S32K144\S32K144 …\S32K144
#        AUTOSAR工具包\share_20230823\AUTOSAR_TOOLs\S32K144_SIP\MICROSAR\CBD1800257_D01_S32K1xx\Applications\S32K144_Start_new_IAR\Debug\Obj\BSW\Can\Can.o"
#        "D:\WebDown\S32K144\S32K144 …\S32K144
#        AUTOSAR工具包\share_20230823\AUTOSAR_TOOLs\S32K144_SIP\MICROSAR\CBD1800257_D01_S32K1xx\Applications\S32K144_Start_new_IAR\Debug\Obj\BSW\Can\Can_Irq.o"
#        "D:\WebDown\S32K144\S32K144 …\S32K144
#        AUTOSAR工具包\share_20230823\AUTOSAR_TOOLs\S32K144_SIP\MICROSAR\CBD1800257_D01_S32K1xx\Applications\S32K144_Start_new_IAR\Debug\Obj\Appl\GenData\Can_Lcfg.o"
#        "D:\WebDown\S32K144\S32K144 …\S32K144
#        AUTOSAR工具包\share_20230823\AUTOSAR_TOOLs\S32K144_SIP\MICROSAR\CBD1800257_D01_S32K1xx\Applications\S32K144_Start_new_IAR\Debug\Obj\Appl\GenData\Can_PBcfg.o"
#        "D:\WebDown\S32K144\S32K144 …\S32K144
#        AUTOSAR工具包\share_20230823\AUTOSAR_TOOLs\S32K144_SIP\MICROSAR\CBD1800257_D01_S32K1xx\Applications\S32K144_Start_new_IAR\Debug\Obj\BSW\CanIf\CanIf.o"
#        "D:\WebDown\S32K144\S32K144 …\S32K144
#        AUTOSAR工具包\share_20230823\AUTOSAR_TOOLs\S32K144_SIP\MICROSAR\CBD1800257_D01_S32K1xx\Applications\S32K144_Start_new_IAR\Debug\Obj\Appl\GenData\CanIf_Lcfg.o"
#        "D:\WebDown\S32K144\S32K144 …\S32K144
#        AUTOSAR工具包\share_20230823\AUTOSAR_TOOLs\S32K144_SIP\MICROSAR\CBD1800257_D01_S32K1xx\Applications\S32K144_Start_new_IAR\Debug\Obj\Appl\GenData\CanIf_PBcfg.o"
#        "D:\WebDown\S32K144\S32K144 …\S32K144
#        AUTOSAR工具包\share_20230823\AUTOSAR_TOOLs\S32K144_SIP\MICROSAR\CBD1800257_D01_S32K1xx\Applications\S32K144_Start_new_IAR\Debug\Obj\BSW\CanSM\CanSM.o"
#        "D:\WebDown\S32K144\S32K144 …\S32K144
#        AUTOSAR工具包\share_20230823\AUTOSAR_TOOLs\S32K144_SIP\MICROSAR\CBD1800257_D01_S32K1xx\Applications\S32K144_Start_new_IAR\Debug\Obj\Appl\GenData\CanSM_Lcfg.o"
#        "D:\WebDown\S32K144\S32K144 …\S32K144
#        AUTOSAR工具包\share_20230823\AUTOSAR_TOOLs\S32K144_SIP\MICROSAR\CBD1800257_D01_S32K1xx\Applications\S32K144_Start_new_IAR\Debug\Obj\BSW\CanTP\CanTp.o"
#        "D:\WebDown\S32K144\S32K144 …\S32K144
#        AUTOSAR工具包\share_20230823\AUTOSAR_TOOLs\S32K144_SIP\MICROSAR\CBD1800257_D01_S32K1xx\Applications\S32K144_Start_new_IAR\Debug\Obj\Appl\GenData\CanTp_Lcfg.o"
#        "D:\WebDown\S32K144\S32K144 …\S32K144
#        AUTOSAR工具包\share_20230823\AUTOSAR_TOOLs\S32K144_SIP\MICROSAR\CBD1800257_D01_S32K1xx\Applications\S32K144_Start_new_IAR\Debug\Obj\Appl\GenData\CanTp_PBcfg.o"
#        "D:\WebDown\S32K144\S32K144 …\S32K144
#        AUTOSAR工具包\share_20230823\AUTOSAR_TOOLs\S32K144_SIP\MICROSAR\CBD1800257_D01_S32K1xx\Applications\S32K144_Start_new_IAR\Debug\Obj\Appl\Source\CddSbc.o"
#        "D:\WebDown\S32K144\S32K144 …\S32K144
#        AUTOSAR工具包\share_20230823\AUTOSAR_TOOLs\S32K144_SIP\MICROSAR\CBD1800257_D01_S32K1xx\Applications\S32K144_Start_new_IAR\Debug\Obj\BSW\Com\Com.o"
#        "D:\WebDown\S32K144\S32K144 …\S32K144
#        AUTOSAR工具包\share_20230823\AUTOSAR_TOOLs\S32K144_SIP\MICROSAR\CBD1800257_D01_S32K1xx\Applications\S32K144_Start_new_IAR\Debug\Obj\Appl\GenData\Com_Lcfg.o"
#        "D:\WebDown\S32K144\S32K144 …\S32K144
#        AUTOSAR工具包\share_20230823\AUTOSAR_TOOLs\S32K144_SIP\MICROSAR\CBD1800257_D01_S32K1xx\Applications\S32K144_Start_new_IAR\Debug\Obj\Appl\GenData\Com_PBcfg.o"
#        "D:\WebDown\S32K144\S32K144 …\S32K144
#        AUTOSAR工具包\share_20230823\AUTOSAR_TOOLs\S32K144_SIP\MICROSAR\CBD1800257_D01_S32K1xx\Applications\S32K144_Start_new_IAR\Debug\Obj\BSW\ComM\ComM.o"
#        "D:\WebDown\S32K144\S32K144 …\S32K144
#        AUTOSAR工具包\share_20230823\AUTOSAR_TOOLs\S32K144_SIP\MICROSAR\CBD1800257_D01_S32K1xx\Applications\S32K144_Start_new_IAR\Debug\Obj\Appl\GenData\ComM_Lcfg.o"
#        "D:\WebDown\S32K144\S32K144 …\S32K144
#        AUTOSAR工具包\share_20230823\AUTOSAR_TOOLs\S32K144_SIP\MICROSAR\CBD1800257_D01_S32K1xx\Applications\S32K144_Start_new_IAR\Debug\Obj\Appl\GenData\ComM_PBcfg.o"
#        "D:\WebDown\S32K144\S32K144 …\S32K144
#        AUTOSAR工具包\share_20230823\AUTOSAR_TOOLs\S32K144_SIP\MICROSAR\CBD1800257_D01_S32K1xx\Applications\S32K144_Start_new_IAR\Debug\Obj\Appl\Source\CtLedTask.o"
#        "D:\WebDown\S32K144\S32K144 …\S32K144
#        AUTOSAR工具包\share_20230823\AUTOSAR_TOOLs\S32K144_SIP\MICROSAR\CBD1800257_D01_S32K1xx\Applications\S32K144_Start_new_IAR\Debug\Obj\BSW\Dcm\Dcm.o"
#        "D:\WebDown\S32K144\S32K144 …\S32K144
#        AUTOSAR工具包\share_20230823\AUTOSAR_TOOLs\S32K144_SIP\MICROSAR\CBD1800257_D01_S32K1xx\Applications\S32K144_Start_new_IAR\Debug\Obj\Appl\Source\Dcm_Callout_Stubs.o"
#        "D:\WebDown\S32K144\S32K144 …\S32K144
#        AUTOSAR工具包\share_20230823\AUTOSAR_TOOLs\S32K144_SIP\MICROSAR\CBD1800257_D01_S32K1xx\Applications\S32K144_Start_new_IAR\Debug\Obj\Appl\GenData\Dcm_Lcfg.o"
#        "D:\WebDown\S32K144\S32K144 …\S32K144
#        AUTOSAR工具包\share_20230823\AUTOSAR_TOOLs\S32K144_SIP\MICROSAR\CBD1800257_D01_S32K1xx\Applications\S32K144_Start_new_IAR\Debug\Obj\Appl\GenData\Dcm_PBcfg.o"
#        "D:\WebDown\S32K144\S32K144 …\S32K144
#        AUTOSAR工具包\share_20230823\AUTOSAR_TOOLs\S32K144_SIP\MICROSAR\CBD1800257_D01_S32K1xx\Applications\S32K144_Start_new_IAR\Debug\Obj\BSW\Dem\Dem.o"
#        "D:\WebDown\S32K144\S32K144 …\S32K144
#        AUTOSAR工具包\share_20230823\AUTOSAR_TOOLs\S32K144_SIP\MICROSAR\CBD1800257_D01_S32K1xx\Applications\S32K144_Start_new_IAR\Debug\Obj\Appl\GenData\Dem_Lcfg.o"
#        "D:\WebDown\S32K144\S32K144 …\S32K144
#        AUTOSAR工具包\share_20230823\AUTOSAR_TOOLs\S32K144_SIP\MICROSAR\CBD1800257_D01_S32K1xx\Applications\S32K144_Start_new_IAR\Debug\Obj\Appl\GenData\Dem_PBcfg.o"
#        "D:\WebDown\S32K144\S32K144 …\S32K144
#        AUTOSAR工具包\share_20230823\AUTOSAR_TOOLs\S32K144_SIP\MICROSAR\CBD1800257_D01_S32K1xx\Applications\S32K144_Start_new_IAR\Debug\Obj\BSW\Det\Det.o"
#        "D:\WebDown\S32K144\S32K144 …\S32K144
#        AUTOSAR工具包\share_20230823\AUTOSAR_TOOLs\S32K144_SIP\MICROSAR\CBD1800257_D01_S32K1xx\Applications\S32K144_Start_new_IAR\Debug\Obj\Appl\GenData\Det_Cfg.o"
#        "D:\WebDown\S32K144\S32K144 …\S32K144
#        AUTOSAR工具包\share_20230823\AUTOSAR_TOOLs\S32K144_SIP\MICROSAR\CBD1800257_D01_S32K1xx\Applications\S32K144_Start_new_IAR\Debug\Obj\MCAL\DIO\Dio.o"
#        "D:\WebDown\S32K144\S32K144 …\S32K144
#        AUTOSAR工具包\share_20230823\AUTOSAR_TOOLs\S32K144_SIP\MICROSAR\CBD1800257_D01_S32K1xx\Applications\S32K144_Start_new_IAR\Debug\Obj\Appl\GenData\src\Dio_Cfg.o"
#        "D:\WebDown\S32K144\S32K144 …\S32K144
#        AUTOSAR工具包\share_20230823\AUTOSAR_TOOLs\S32K144_SIP\MICROSAR\CBD1800257_D01_S32K1xx\Applications\S32K144_Start_new_IAR\Debug\Obj\MCAL\DIO\Dio_Gpio.o"
#        "D:\WebDown\S32K144\S32K144 …\S32K144
#        AUTOSAR工具包\share_20230823\AUTOSAR_TOOLs\S32K144_SIP\MICROSAR\CBD1800257_D01_S32K1xx\Applications\S32K144_Start_new_IAR\Debug\Obj\BSW\EcuM\EcuM.o"
#        "D:\WebDown\S32K144\S32K144 …\S32K144
#        AUTOSAR工具包\share_20230823\AUTOSAR_TOOLs\S32K144_SIP\MICROSAR\CBD1800257_D01_S32K1xx\Applications\S32K144_Start_new_IAR\Debug\Obj\Appl\Source\EcuM_Callout_Stubs.o"
#        "D:\WebDown\S32K144\S32K144 …\S32K144
#        AUTOSAR工具包\share_20230823\AUTOSAR_TOOLs\S32K144_SIP\MICROSAR\CBD1800257_D01_S32K1xx\Applications\S32K144_Start_new_IAR\Debug\Obj\Appl\GenData\EcuM_Cfg.o"
#        "D:\WebDown\S32K144\S32K144 …\S32K144
#        AUTOSAR工具包\share_20230823\AUTOSAR_TOOLs\S32K144_SIP\MICROSAR\CBD1800257_D01_S32K1xx\Applications\S32K144_Start_new_IAR\Debug\Obj\Appl\GenData\EcuM_Init_Cfg.o"
#        "D:\WebDown\S32K144\S32K144 …\S32K144
#        AUTOSAR工具包\share_20230823\AUTOSAR_TOOLs\S32K144_SIP\MICROSAR\CBD1800257_D01_S32K1xx\Applications\S32K144_Start_new_IAR\Debug\Obj\Appl\GenData\EcuM_Init_PBcfg.o"
#        "D:\WebDown\S32K144\S32K144 …\S32K144
#        AUTOSAR工具包\share_20230823\AUTOSAR_TOOLs\S32K144_SIP\MICROSAR\CBD1800257_D01_S32K1xx\Applications\S32K144_Start_new_IAR\Debug\Obj\Appl\GenData\EcuM_PBcfg.o"
#        "D:\WebDown\S32K144\S32K144 …\S32K144
#        AUTOSAR工具包\share_20230823\AUTOSAR_TOOLs\S32K144_SIP\MICROSAR\CBD1800257_D01_S32K1xx\Applications\S32K144_Start_new_IAR\Debug\Obj\MCAL\MCU\Mcu.o"
#        "D:\WebDown\S32K144\S32K144 …\S32K144
#        AUTOSAR工具包\share_20230823\AUTOSAR_TOOLs\S32K144_SIP\MICROSAR\CBD1800257_D01_S32K1xx\Applications\S32K144_Start_new_IAR\Debug\Obj\Appl\GenData\src\Mcu_Cfg.o"
#        "D:\WebDown\S32K144\S32K144 …\S32K144
#        AUTOSAR工具包\share_20230823\AUTOSAR_TOOLs\S32K144_SIP\MICROSAR\CBD1800257_D01_S32K1xx\Applications\S32K144_Start_new_IAR\Debug\Obj\MCAL\MCU\Mcu_CMU.o"
#        "D:\WebDown\S32K144\S32K144 …\S32K144
#        AUTOSAR工具包\share_20230823\AUTOSAR_TOOLs\S32K144_SIP\MICROSAR\CBD1800257_D01_S32K1xx\Applications\S32K144_Start_new_IAR\Debug\Obj\MCAL\MCU\Mcu_CMU_Irq.o"
#        "D:\WebDown\S32K144\S32K144 …\S32K144
#        AUTOSAR工具包\share_20230823\AUTOSAR_TOOLs\S32K144_SIP\MICROSAR\CBD1800257_D01_S32K1xx\Applications\S32K144_Start_new_IAR\Debug\Obj\MCAL\MCU\Mcu_CortexM4.o"
#        "D:\WebDown\S32K144\S32K144 …\S32K144
#        AUTOSAR工具包\share_20230823\AUTOSAR_TOOLs\S32K144_SIP\MICROSAR\CBD1800257_D01_S32K1xx\Applications\S32K144_Start_new_IAR\Debug\Obj\MCAL\MCU\Mcu_IPW.o"
#        "D:\WebDown\S32K144\S32K144 …\S32K144
#        AUTOSAR工具包\share_20230823\AUTOSAR_TOOLs\S32K144_SIP\MICROSAR\CBD1800257_D01_S32K1xx\Applications\S32K144_Start_new_IAR\Debug\Obj\MCAL\MCU\Mcu_IPW_Irq.o"
#        "D:\WebDown\S32K144\S32K144 …\S32K144
#        AUTOSAR工具包\share_20230823\AUTOSAR_TOOLs\S32K144_SIP\MICROSAR\CBD1800257_D01_S32K1xx\Applications\S32K144_Start_new_IAR\Debug\Obj\Appl\GenData\src\Mcu_PBcfg.o"
#        "D:\WebDown\S32K144\S32K144 …\S32K144
#        AUTOSAR工具包\share_20230823\AUTOSAR_TOOLs\S32K144_SIP\MICROSAR\CBD1800257_D01_S32K1xx\Applications\S32K144_Start_new_IAR\Debug\Obj\MCAL\MCU\Mcu_PCC.o"
#        "D:\WebDown\S32K144\S32K144 …\S32K144
#        AUTOSAR工具包\share_20230823\AUTOSAR_TOOLs\S32K144_SIP\MICROSAR\CBD1800257_D01_S32K1xx\Applications\S32K144_Start_new_IAR\Debug\Obj\MCAL\MCU\Mcu_PMC.o"
#        "D:\WebDown\S32K144\S32K144 …\S32K144
#        AUTOSAR工具包\share_20230823\AUTOSAR_TOOLs\S32K144_SIP\MICROSAR\CBD1800257_D01_S32K1xx\Applications\S32K144_Start_new_IAR\Debug\Obj\MCAL\MCU\Mcu_PMC_Irq.o"
#        "D:\WebDown\S32K144\S32K144 …\S32K144
#        AUTOSAR工具包\share_20230823\AUTOSAR_TOOLs\S32K144_SIP\MICROSAR\CBD1800257_D01_S32K1xx\Applications\S32K144_Start_new_IAR\Debug\Obj\MCAL\MCU\Mcu_RCM.o"
#        "D:\WebDown\S32K144\S32K144 …\S32K144
#        AUTOSAR工具包\share_20230823\AUTOSAR_TOOLs\S32K144_SIP\MICROSAR\CBD1800257_D01_S32K1xx\Applications\S32K144_Start_new_IAR\Debug\Obj\MCAL\MCU\Mcu_SCG.o"
#        "D:\WebDown\S32K144\S32K144 …\S32K144
#        AUTOSAR工具包\share_20230823\AUTOSAR_TOOLs\S32K144_SIP\MICROSAR\CBD1800257_D01_S32K1xx\Applications\S32K144_Start_new_IAR\Debug\Obj\MCAL\MCU\Mcu_SIM.o"
#        "D:\WebDown\S32K144\S32K144 …\S32K144
#        AUTOSAR工具包\share_20230823\AUTOSAR_TOOLs\S32K144_SIP\MICROSAR\CBD1800257_D01_S32K1xx\Applications\S32K144_Start_new_IAR\Debug\Obj\MCAL\MCU\Mcu_SMC.o"
#        "D:\WebDown\S32K144\S32K144 …\S32K144
#        AUTOSAR工具包\share_20230823\AUTOSAR_TOOLs\S32K144_SIP\MICROSAR\CBD1800257_D01_S32K1xx\Applications\S32K144_Start_new_IAR\Debug\Obj\BSW\Nm\Nm.o"
#        "D:\WebDown\S32K144\S32K144 …\S32K144
#        AUTOSAR工具包\share_20230823\AUTOSAR_TOOLs\S32K144_SIP\MICROSAR\CBD1800257_D01_S32K1xx\Applications\S32K144_Start_new_IAR\Debug\Obj\BSW\Os\Os_AccessCheck.o"
#        "D:\WebDown\S32K144\S32K144 …\S32K144
#        AUTOSAR工具包\share_20230823\AUTOSAR_TOOLs\S32K144_SIP\MICROSAR\CBD1800257_D01_S32K1xx\Applications\S32K144_Start_new_IAR\Debug\Obj\Appl\GenData\Os_AccessCheck_Lcfg.o"
#        "D:\WebDown\S32K144\S32K144 …\S32K144
#        AUTOSAR工具包\share_20230823\AUTOSAR_TOOLs\S32K144_SIP\MICROSAR\CBD1800257_D01_S32K1xx\Applications\S32K144_Start_new_IAR\Debug\Obj\BSW\Os\Os_Alarm.o"
#        "D:\WebDown\S32K144\S32K144 …\S32K144
#        AUTOSAR工具包\share_20230823\AUTOSAR_TOOLs\S32K144_SIP\MICROSAR\CBD1800257_D01_S32K1xx\Applications\S32K144_Start_new_IAR\Debug\Obj\Appl\GenData\Os_Alarm_Lcfg.o"
#        "D:\WebDown\S32K144\S32K144 …\S32K144
#        AUTOSAR工具包\share_20230823\AUTOSAR_TOOLs\S32K144_SIP\MICROSAR\CBD1800257_D01_S32K1xx\Applications\S32K144_Start_new_IAR\Debug\Obj\BSW\Os\Os_Application.o"
#        "D:\WebDown\S32K144\S32K144 …\S32K144
#        AUTOSAR工具包\share_20230823\AUTOSAR_TOOLs\S32K144_SIP\MICROSAR\CBD1800257_D01_S32K1xx\Applications\S32K144_Start_new_IAR\Debug\Obj\Appl\GenData\Os_Application_Lcfg.o"
#        "D:\WebDown\S32K144\S32K144 …\S32K144
#        AUTOSAR工具包\share_20230823\AUTOSAR_TOOLs\S32K144_SIP\MICROSAR\CBD1800257_D01_S32K1xx\Applications\S32K144_Start_new_IAR\Debug\Obj\BSW\Os\Os_Barrier.o"
#        "D:\WebDown\S32K144\S32K144 …\S32K144
#        AUTOSAR工具包\share_20230823\AUTOSAR_TOOLs\S32K144_SIP\MICROSAR\CBD1800257_D01_S32K1xx\Applications\S32K144_Start_new_IAR\Debug\Obj\Appl\GenData\Os_Barrier_Lcfg.o"
#        "D:\WebDown\S32K144\S32K144 …\S32K144
#        AUTOSAR工具包\share_20230823\AUTOSAR_TOOLs\S32K144_SIP\MICROSAR\CBD1800257_D01_S32K1xx\Applications\S32K144_Start_new_IAR\Debug\Obj\BSW\Os\Os_Bit.o"
#        "D:\WebDown\S32K144\S32K144 …\S32K144
#        AUTOSAR工具包\share_20230823\AUTOSAR_TOOLs\S32K144_SIP\MICROSAR\CBD1800257_D01_S32K1xx\Applications\S32K144_Start_new_IAR\Debug\Obj\BSW\Os\Os_BitArray.o"
#        "D:\WebDown\S32K144\S32K144 …\S32K144
#        AUTOSAR工具包\share_20230823\AUTOSAR_TOOLs\S32K144_SIP\MICROSAR\CBD1800257_D01_S32K1xx\Applications\S32K144_Start_new_IAR\Debug\Obj\Appl\Source\Os_Callout_Stubs.o"
#        "D:\WebDown\S32K144\S32K144 …\S32K144
#        AUTOSAR工具包\share_20230823\AUTOSAR_TOOLs\S32K144_SIP\MICROSAR\CBD1800257_D01_S32K1xx\Applications\S32K144_Start_new_IAR\Debug\Obj\BSW\Os\Os_Core.o"
#        "D:\WebDown\S32K144\S32K144 …\S32K144
#        AUTOSAR工具包\share_20230823\AUTOSAR_TOOLs\S32K144_SIP\MICROSAR\CBD1800257_D01_S32K1xx\Applications\S32K144_Start_new_IAR\Debug\Obj\Appl\GenData\Os_Core_Lcfg.o"
#        "D:\WebDown\S32K144\S32K144 …\S32K144
#        AUTOSAR工具包\share_20230823\AUTOSAR_TOOLs\S32K144_SIP\MICROSAR\CBD1800257_D01_S32K1xx\Applications\S32K144_Start_new_IAR\Debug\Obj\BSW\Os\Os_Counter.o"
#        "D:\WebDown\S32K144\S32K144 …\S32K144
#        AUTOSAR工具包\share_20230823\AUTOSAR_TOOLs\S32K144_SIP\MICROSAR\CBD1800257_D01_S32K1xx\Applications\S32K144_Start_new_IAR\Debug\Obj\Appl\GenData\Os_Counter_Lcfg.o"
#        "D:\WebDown\S32K144\S32K144 …\S32K144
#        AUTOSAR工具包\share_20230823\AUTOSAR_TOOLs\S32K144_SIP\MICROSAR\CBD1800257_D01_S32K1xx\Applications\S32K144_Start_new_IAR\Debug\Obj\BSW\Os\Os_Deque.o"
#        "D:\WebDown\S32K144\S32K144 …\S32K144
#        AUTOSAR工具包\share_20230823\AUTOSAR_TOOLs\S32K144_SIP\MICROSAR\CBD1800257_D01_S32K1xx\Applications\S32K144_Start_new_IAR\Debug\Obj\BSW\Os\Os_Error.o"
#        "D:\WebDown\S32K144\S32K144 …\S32K144
#        AUTOSAR工具包\share_20230823\AUTOSAR_TOOLs\S32K144_SIP\MICROSAR\CBD1800257_D01_S32K1xx\Applications\S32K144_Start_new_IAR\Debug\Obj\Appl\GenData\Os_Error_Lcfg.o"
#        "D:\WebDown\S32K144\S32K144 …\S32K144
#        AUTOSAR工具包\share_20230823\AUTOSAR_TOOLs\S32K144_SIP\MICROSAR\CBD1800257_D01_S32K1xx\Applications\S32K144_Start_new_IAR\Debug\Obj\BSW\Os\Os_Event.o"
#        "D:\WebDown\S32K144\S32K144 …\S32K144
#        AUTOSAR工具包\share_20230823\AUTOSAR_TOOLs\S32K144_SIP\MICROSAR\CBD1800257_D01_S32K1xx\Applications\S32K144_Start_new_IAR\Debug\Obj\BSW\Os\Os_Fifo.o"
#        "D:\WebDown\S32K144\S32K144 …\S32K144
#        AUTOSAR工具包\share_20230823\AUTOSAR_TOOLs\S32K144_SIP\MICROSAR\CBD1800257_D01_S32K1xx\Applications\S32K144_Start_new_IAR\Debug\Obj\BSW\Os\Os_Fifo08.o"
#        "D:\WebDown\S32K144\S32K144 …\S32K144
#        AUTOSAR工具包\share_20230823\AUTOSAR_TOOLs\S32K144_SIP\MICROSAR\CBD1800257_D01_S32K1xx\Applications\S32K144_Start_new_IAR\Debug\Obj\BSW\Os\Os_Fifo16.o"
#        "D:\WebDown\S32K144\S32K144 …\S32K144
#        AUTOSAR工具包\share_20230823\AUTOSAR_TOOLs\S32K144_SIP\MICROSAR\CBD1800257_D01_S32K1xx\Applications\S32K144_Start_new_IAR\Debug\Obj\BSW\Os\Os_Fifo32.o"
#        "D:\WebDown\S32K144\S32K144 …\S32K144
#        AUTOSAR工具包\share_20230823\AUTOSAR_TOOLs\S32K144_SIP\MICROSAR\CBD1800257_D01_S32K1xx\Applications\S32K144_Start_new_IAR\Debug\Obj\BSW\Os\Os_FifoRef.o"
#        "D:\WebDown\S32K144\S32K144 …\S32K144
#        AUTOSAR工具包\share_20230823\AUTOSAR_TOOLs\S32K144_SIP\MICROSAR\CBD1800257_D01_S32K1xx\Applications\S32K144_Start_new_IAR\Debug\Obj\BSW\Os\Os_Hal_Compiler_Arm.o"
#        "D:\WebDown\S32K144\S32K144 …\S32K144
#        AUTOSAR工具包\share_20230823\AUTOSAR_TOOLs\S32K144_SIP\MICROSAR\CBD1800257_D01_S32K1xx\Applications\S32K144_Start_new_IAR\Debug\Obj\BSW\Os\Os_Hal_Compiler_Iar.o"
#        "D:\WebDown\S32K144\S32K144 …\S32K144
#        AUTOSAR工具包\share_20230823\AUTOSAR_TOOLs\S32K144_SIP\MICROSAR\CBD1800257_D01_S32K1xx\Applications\S32K144_Start_new_IAR\Debug\Obj\Appl\GenData\Os_Hal_Context_Lcfg.o"
#        "D:\WebDown\S32K144\S32K144 …\S32K144
#        AUTOSAR工具包\share_20230823\AUTOSAR_TOOLs\S32K144_SIP\MICROSAR\CBD1800257_D01_S32K1xx\Applications\S32K144_Start_new_IAR\Debug\Obj\BSW\Os\Os_Hal_Context_v7m.o"
#        "D:\WebDown\S32K144\S32K144 …\S32K144
#        AUTOSAR工具包\share_20230823\AUTOSAR_TOOLs\S32K144_SIP\MICROSAR\CBD1800257_D01_S32K1xx\Applications\S32K144_Start_new_IAR\Debug\Obj\BSW\Os\Os_Hal_ContextAsm.o"
#        "D:\WebDown\S32K144\S32K144 …\S32K144
#        AUTOSAR工具包\share_20230823\AUTOSAR_TOOLs\S32K144_SIP\MICROSAR\CBD1800257_D01_S32K1xx\Applications\S32K144_Start_new_IAR\Debug\Obj\BSW\Os\Os_Hal_Core.o"
#        "D:\WebDown\S32K144\S32K144 …\S32K144
#        AUTOSAR工具包\share_20230823\AUTOSAR_TOOLs\S32K144_SIP\MICROSAR\CBD1800257_D01_S32K1xx\Applications\S32K144_Start_new_IAR\Debug\Obj\Appl\GenData\Os_Hal_Core_Lcfg.o"
#        "D:\WebDown\S32K144\S32K144 …\S32K144
#        AUTOSAR工具包\share_20230823\AUTOSAR_TOOLs\S32K144_SIP\MICROSAR\CBD1800257_D01_S32K1xx\Applications\S32K144_Start_new_IAR\Debug\Obj\BSW\Os\Os_Hal_Entry.o"
#        "D:\WebDown\S32K144\S32K144 …\S32K144
#        AUTOSAR工具包\share_20230823\AUTOSAR_TOOLs\S32K144_SIP\MICROSAR\CBD1800257_D01_S32K1xx\Applications\S32K144_Start_new_IAR\Debug\Obj\Appl\GenData\Os_Hal_Entry_Lcfg.o"
#        "D:\WebDown\S32K144\S32K144 …\S32K144
#        AUTOSAR工具包\share_20230823\AUTOSAR_TOOLs\S32K144_SIP\MICROSAR\CBD1800257_D01_S32K1xx\Applications\S32K144_Start_new_IAR\Debug\Obj\Appl\GenData\Os_Hal_EntryAsm_Lcfg.o"
#        "D:\WebDown\S32K144\S32K144 …\S32K144
#        AUTOSAR工具包\share_20230823\AUTOSAR_TOOLs\S32K144_SIP\MICROSAR\CBD1800257_D01_S32K1xx\Applications\S32K144_Start_new_IAR\Debug\Obj\Appl\GenData\Os_Hal_Interrupt_Lcfg.o"
#        "D:\WebDown\S32K144\S32K144 …\S32K144
#        AUTOSAR工具包\share_20230823\AUTOSAR_TOOLs\S32K144_SIP\MICROSAR\CBD1800257_D01_S32K1xx\Applications\S32K144_Start_new_IAR\Debug\Obj\Appl\GenData\Os_Hal_Kernel_Lcfg.o"
#        "D:\WebDown\S32K144\S32K144 …\S32K144
#        AUTOSAR工具包\share_20230823\AUTOSAR_TOOLs\S32K144_SIP\MICROSAR\CBD1800257_D01_S32K1xx\Applications\S32K144_Start_new_IAR\Debug\Obj\Appl\GenData\Os_Hal_MemoryProtection_Lcfg.o"
#        "D:\WebDown\S32K144\S32K144 …\S32K144
#        AUTOSAR工具包\share_20230823\AUTOSAR_TOOLs\S32K144_SIP\MICROSAR\CBD1800257_D01_S32K1xx\Applications\S32K144_Start_new_IAR\Debug\Obj\Appl\GenData\Os_Hal_Timer_Lcfg.o"
#        "D:\WebDown\S32K144\S32K144 …\S32K144
#        AUTOSAR工具包\share_20230823\AUTOSAR_TOOLs\S32K144_SIP\MICROSAR\CBD1800257_D01_S32K1xx\Applications\S32K144_Start_new_IAR\Debug\Obj\BSW\Os\Os_Hook.o"
#        "D:\WebDown\S32K144\S32K144 …\S32K144
#        AUTOSAR工具包\share_20230823\AUTOSAR_TOOLs\S32K144_SIP\MICROSAR\CBD1800257_D01_S32K1xx\Applications\S32K144_Start_new_IAR\Debug\Obj\Appl\GenData\Os_Hook_Lcfg.o"
#        "D:\WebDown\S32K144\S32K144 …\S32K144
#        AUTOSAR工具包\share_20230823\AUTOSAR_TOOLs\S32K144_SIP\MICROSAR\CBD1800257_D01_S32K1xx\Applications\S32K144_Start_new_IAR\Debug\Obj\BSW\Os\Os_Interrupt.o"
#        "D:\WebDown\S32K144\S32K144 …\S32K144
#        AUTOSAR工具包\share_20230823\AUTOSAR_TOOLs\S32K144_SIP\MICROSAR\CBD1800257_D01_S32K1xx\Applications\S32K144_Start_new_IAR\Debug\Obj\BSW\Os\Os_Ioc.o"
#        "D:\WebDown\S32K144\S32K144 …\S32K144
#        AUTOSAR工具包\share_20230823\AUTOSAR_TOOLs\S32K144_SIP\MICROSAR\CBD1800257_D01_S32K1xx\Applications\S32K144_Start_new_IAR\Debug\Obj\Appl\GenData\Os_Ioc_Lcfg.o"
#        "D:\WebDown\S32K144\S32K144 …\S32K144
#        AUTOSAR工具包\share_20230823\AUTOSAR_TOOLs\S32K144_SIP\MICROSAR\CBD1800257_D01_S32K1xx\Applications\S32K144_Start_new_IAR\Debug\Obj\BSW\Os\Os_Isr.o"
#        "D:\WebDown\S32K144\S32K144 …\S32K144
#        AUTOSAR工具包\share_20230823\AUTOSAR_TOOLs\S32K144_SIP\MICROSAR\CBD1800257_D01_S32K1xx\Applications\S32K144_Start_new_IAR\Debug\Obj\Appl\GenData\Os_Isr_Lcfg.o"
#        "D:\WebDown\S32K144\S32K144 …\S32K144
#        AUTOSAR工具包\share_20230823\AUTOSAR_TOOLs\S32K144_SIP\MICROSAR\CBD1800257_D01_S32K1xx\Applications\S32K144_Start_new_IAR\Debug\Obj\BSW\Os\Os_Job.o"
#        "D:\WebDown\S32K144\S32K144 …\S32K144
#        AUTOSAR工具包\share_20230823\AUTOSAR_TOOLs\S32K144_SIP\MICROSAR\CBD1800257_D01_S32K1xx\Applications\S32K144_Start_new_IAR\Debug\Obj\BSW\Os\Os_Lock.o"
#        "D:\WebDown\S32K144\S32K144 …\S32K144
#        AUTOSAR工具包\share_20230823\AUTOSAR_TOOLs\S32K144_SIP\MICROSAR\CBD1800257_D01_S32K1xx\Applications\S32K144_Start_new_IAR\Debug\Obj\BSW\Os\Os_MemoryProtection.o"
#        "D:\WebDown\S32K144\S32K144 …\S32K144
#        AUTOSAR工具包\share_20230823\AUTOSAR_TOOLs\S32K144_SIP\MICROSAR\CBD1800257_D01_S32K1xx\Applications\S32K144_Start_new_IAR\Debug\Obj\Appl\GenData\Os_MemoryProtection_Lcfg.o"
#        "D:\WebDown\S32K144\S32K144 …\S32K144
#        AUTOSAR工具包\share_20230823\AUTOSAR_TOOLs\S32K144_SIP\MICROSAR\CBD1800257_D01_S32K1xx\Applications\S32K144_Start_new_IAR\Debug\Obj\BSW\Os\Os_Peripheral.o"
#        "D:\WebDown\S32K144\S32K144 …\S32K144
#        AUTOSAR工具包\share_20230823\AUTOSAR_TOOLs\S32K144_SIP\MICROSAR\CBD1800257_D01_S32K1xx\Applications\S32K144_Start_new_IAR\Debug\Obj\Appl\GenData\Os_Peripheral_Lcfg.o"
#        "D:\WebDown\S32K144\S32K144 …\S32K144
#        AUTOSAR工具包\share_20230823\AUTOSAR_TOOLs\S32K144_SIP\MICROSAR\CBD1800257_D01_S32K1xx\Applications\S32K144_Start_new_IAR\Debug\Obj\BSW\Os\Os_PriorityQueue.o"
#        "D:\WebDown\S32K144\S32K144 …\S32K144
#        AUTOSAR工具包\share_20230823\AUTOSAR_TOOLs\S32K144_SIP\MICROSAR\CBD1800257_D01_S32K1xx\Applications\S32K144_Start_new_IAR\Debug\Obj\BSW\Os\Os_Resource.o"
#        "D:\WebDown\S32K144\S32K144 …\S32K144
#        AUTOSAR工具包\share_20230823\AUTOSAR_TOOLs\S32K144_SIP\MICROSAR\CBD1800257_D01_S32K1xx\Applications\S32K144_Start_new_IAR\Debug\Obj\Appl\GenData\Os_Resource_Lcfg.o"
#        "D:\WebDown\S32K144\S32K144 …\S32K144
#        AUTOSAR工具包\share_20230823\AUTOSAR_TOOLs\S32K144_SIP\MICROSAR\CBD1800257_D01_S32K1xx\Applications\S32K144_Start_new_IAR\Debug\Obj\BSW\Os\Os_Scheduler.o"
#        "D:\WebDown\S32K144\S32K144 …\S32K144
#        AUTOSAR工具包\share_20230823\AUTOSAR_TOOLs\S32K144_SIP\MICROSAR\CBD1800257_D01_S32K1xx\Applications\S32K144_Start_new_IAR\Debug\Obj\Appl\GenData\Os_Scheduler_Lcfg.o"
#        "D:\WebDown\S32K144\S32K144 …\S32K144
#        AUTOSAR工具包\share_20230823\AUTOSAR_TOOLs\S32K144_SIP\MICROSAR\CBD1800257_D01_S32K1xx\Applications\S32K144_Start_new_IAR\Debug\Obj\BSW\Os\Os_ScheduleTable.o"
#        "D:\WebDown\S32K144\S32K144 …\S32K144
#        AUTOSAR工具包\share_20230823\AUTOSAR_TOOLs\S32K144_SIP\MICROSAR\CBD1800257_D01_S32K1xx\Applications\S32K144_Start_new_IAR\Debug\Obj\Appl\GenData\Os_ScheduleTable_Lcfg.o"
#        "D:\WebDown\S32K144\S32K144 …\S32K144
#        AUTOSAR工具包\share_20230823\AUTOSAR_TOOLs\S32K144_SIP\MICROSAR\CBD1800257_D01_S32K1xx\Applications\S32K144_Start_new_IAR\Debug\Obj\BSW\Os\Os_ServiceFunction.o"
#        "D:\WebDown\S32K144\S32K144 …\S32K144
#        AUTOSAR工具包\share_20230823\AUTOSAR_TOOLs\S32K144_SIP\MICROSAR\CBD1800257_D01_S32K1xx\Applications\S32K144_Start_new_IAR\Debug\Obj\Appl\GenData\Os_ServiceFunction_Lcfg.o"
#        "D:\WebDown\S32K144\S32K144 …\S32K144
#        AUTOSAR工具包\share_20230823\AUTOSAR_TOOLs\S32K144_SIP\MICROSAR\CBD1800257_D01_S32K1xx\Applications\S32K144_Start_new_IAR\Debug\Obj\BSW\Os\Os_Spinlock.o"
#        "D:\WebDown\S32K144\S32K144 …\S32K144
#        AUTOSAR工具包\share_20230823\AUTOSAR_TOOLs\S32K144_SIP\MICROSAR\CBD1800257_D01_S32K1xx\Applications\S32K144_Start_new_IAR\Debug\Obj\Appl\GenData\Os_Spinlock_Lcfg.o"
#        "D:\WebDown\S32K144\S32K144 …\S32K144
#        AUTOSAR工具包\share_20230823\AUTOSAR_TOOLs\S32K144_SIP\MICROSAR\CBD1800257_D01_S32K1xx\Applications\S32K144_Start_new_IAR\Debug\Obj\BSW\Os\Os_Stack.o"
#        "D:\WebDown\S32K144\S32K144 …\S32K144
#        AUTOSAR工具包\share_20230823\AUTOSAR_TOOLs\S32K144_SIP\MICROSAR\CBD1800257_D01_S32K1xx\Applications\S32K144_Start_new_IAR\Debug\Obj\Appl\GenData\Os_Stack_Lcfg.o"
#        "D:\WebDown\S32K144\S32K144 …\S32K144
#        AUTOSAR工具包\share_20230823\AUTOSAR_TOOLs\S32K144_SIP\MICROSAR\CBD1800257_D01_S32K1xx\Applications\S32K144_Start_new_IAR\Debug\Obj\BSW\Os\Os_Task.o"
#        "D:\WebDown\S32K144\S32K144 …\S32K144
#        AUTOSAR工具包\share_20230823\AUTOSAR_TOOLs\S32K144_SIP\MICROSAR\CBD1800257_D01_S32K1xx\Applications\S32K144_Start_new_IAR\Debug\Obj\Appl\GenData\Os_Task_Lcfg.o"
#        "D:\WebDown\S32K144\S32K144 …\S32K144
#        AUTOSAR工具包\share_20230823\AUTOSAR_TOOLs\S32K144_SIP\MICROSAR\CBD1800257_D01_S32K1xx\Applications\S32K144_Start_new_IAR\Debug\Obj\BSW\Os\Os_Thread.o"
#        "D:\WebDown\S32K144\S32K144 …\S32K144
#        AUTOSAR工具包\share_20230823\AUTOSAR_TOOLs\S32K144_SIP\MICROSAR\CBD1800257_D01_S32K1xx\Applications\S32K144_Start_new_IAR\Debug\Obj\BSW\Os\Os_Timer.o"
#        "D:\WebDown\S32K144\S32K144 …\S32K144
#        AUTOSAR工具包\share_20230823\AUTOSAR_TOOLs\S32K144_SIP\MICROSAR\CBD1800257_D01_S32K1xx\Applications\S32K144_Start_new_IAR\Debug\Obj\BSW\Os\Os_TimingProtection.o"
#        "D:\WebDown\S32K144\S32K144 …\S32K144
#        AUTOSAR工具包\share_20230823\AUTOSAR_TOOLs\S32K144_SIP\MICROSAR\CBD1800257_D01_S32K1xx\Applications\S32K144_Start_new_IAR\Debug\Obj\Appl\GenData\Os_TimingProtection_Lcfg.o"
#        "D:\WebDown\S32K144\S32K144 …\S32K144
#        AUTOSAR工具包\share_20230823\AUTOSAR_TOOLs\S32K144_SIP\MICROSAR\CBD1800257_D01_S32K1xx\Applications\S32K144_Start_new_IAR\Debug\Obj\BSW\Os\Os_Trace.o"
#        "D:\WebDown\S32K144\S32K144 …\S32K144
#        AUTOSAR工具包\share_20230823\AUTOSAR_TOOLs\S32K144_SIP\MICROSAR\CBD1800257_D01_S32K1xx\Applications\S32K144_Start_new_IAR\Debug\Obj\Appl\GenData\Os_Trace_Lcfg.o"
#        "D:\WebDown\S32K144\S32K144 …\S32K144
#        AUTOSAR工具包\share_20230823\AUTOSAR_TOOLs\S32K144_SIP\MICROSAR\CBD1800257_D01_S32K1xx\Applications\S32K144_Start_new_IAR\Debug\Obj\BSW\Os\Os_Trap.o"
#        "D:\WebDown\S32K144\S32K144 …\S32K144
#        AUTOSAR工具包\share_20230823\AUTOSAR_TOOLs\S32K144_SIP\MICROSAR\CBD1800257_D01_S32K1xx\Applications\S32K144_Start_new_IAR\Debug\Obj\BSW\Os\Os_XSignal.o"
#        "D:\WebDown\S32K144\S32K144 …\S32K144
#        AUTOSAR工具包\share_20230823\AUTOSAR_TOOLs\S32K144_SIP\MICROSAR\CBD1800257_D01_S32K1xx\Applications\S32K144_Start_new_IAR\Debug\Obj\Appl\GenData\Os_XSignal_Lcfg.o"
#        "D:\WebDown\S32K144\S32K144 …\S32K144
#        AUTOSAR工具包\share_20230823\AUTOSAR_TOOLs\S32K144_SIP\MICROSAR\CBD1800257_D01_S32K1xx\Applications\S32K144_Start_new_IAR\Debug\Obj\Appl\Source\OsAppTask.o"
#        "D:\WebDown\S32K144\S32K144 …\S32K144
#        AUTOSAR工具包\share_20230823\AUTOSAR_TOOLs\S32K144_SIP\MICROSAR\CBD1800257_D01_S32K1xx\Applications\S32K144_Start_new_IAR\Debug\Obj\BSW\PduR\PduR.o"
#        "D:\WebDown\S32K144\S32K144 …\S32K144
#        AUTOSAR工具包\share_20230823\AUTOSAR_TOOLs\S32K144_SIP\MICROSAR\CBD1800257_D01_S32K1xx\Applications\S32K144_Start_new_IAR\Debug\Obj\BSW\PduR\PduR_Bm.o"
#        "D:\WebDown\S32K144\S32K144 …\S32K144
#        AUTOSAR工具包\share_20230823\AUTOSAR_TOOLs\S32K144_SIP\MICROSAR\CBD1800257_D01_S32K1xx\Applications\S32K144_Start_new_IAR\Debug\Obj\BSW\PduR\PduR_Fm.o"
#        "D:\WebDown\S32K144\S32K144 …\S32K144
#        AUTOSAR工具包\share_20230823\AUTOSAR_TOOLs\S32K144_SIP\MICROSAR\CBD1800257_D01_S32K1xx\Applications\S32K144_Start_new_IAR\Debug\Obj\Appl\GenData\PduR_Lcfg.o"
#        "D:\WebDown\S32K144\S32K144 …\S32K144
#        AUTOSAR工具包\share_20230823\AUTOSAR_TOOLs\S32K144_SIP\MICROSAR\CBD1800257_D01_S32K1xx\Applications\S32K144_Start_new_IAR\Debug\Obj\BSW\PduR\PduR_Lock.o"
#        "D:\WebDown\S32K144\S32K144 …\S32K144
#        AUTOSAR工具包\share_20230823\AUTOSAR_TOOLs\S32K144_SIP\MICROSAR\CBD1800257_D01_S32K1xx\Applications\S32K144_Start_new_IAR\Debug\Obj\BSW\PduR\PduR_McQ.o"
#        "D:\WebDown\S32K144\S32K144 …\S32K144
#        AUTOSAR工具包\share_20230823\AUTOSAR_TOOLs\S32K144_SIP\MICROSAR\CBD1800257_D01_S32K1xx\Applications\S32K144_Start_new_IAR\Debug\Obj\Appl\GenData\PduR_PBcfg.o"
#        "D:\WebDown\S32K144\S32K144 …\S32K144
#        AUTOSAR工具包\share_20230823\AUTOSAR_TOOLs\S32K144_SIP\MICROSAR\CBD1800257_D01_S32K1xx\Applications\S32K144_Start_new_IAR\Debug\Obj\BSW\PduR\PduR_RmIf.o"
#        "D:\WebDown\S32K144\S32K144 …\S32K144
#        AUTOSAR工具包\share_20230823\AUTOSAR_TOOLs\S32K144_SIP\MICROSAR\CBD1800257_D01_S32K1xx\Applications\S32K144_Start_new_IAR\Debug\Obj\BSW\PduR\PduR_RmTp.o"
#        "D:\WebDown\S32K144\S32K144 …\S32K144
#        AUTOSAR工具包\share_20230823\AUTOSAR_TOOLs\S32K144_SIP\MICROSAR\CBD1800257_D01_S32K1xx\Applications\S32K144_Start_new_IAR\Debug\Obj\BSW\PduR\PduR_RmTp_TxInst.o"
#        "D:\WebDown\S32K144\S32K144 …\S32K144
#        AUTOSAR工具包\share_20230823\AUTOSAR_TOOLs\S32K144_SIP\MICROSAR\CBD1800257_D01_S32K1xx\Applications\S32K144_Start_new_IAR\Debug\Obj\BSW\PduR\PduR_Sm.o"
#        "D:\WebDown\S32K144\S32K144 …\S32K144
#        AUTOSAR工具包\share_20230823\AUTOSAR_TOOLs\S32K144_SIP\MICROSAR\CBD1800257_D01_S32K1xx\Applications\S32K144_Start_new_IAR\Debug\Obj\MCAL\PORT\Port.o"
#        "D:\WebDown\S32K144\S32K144 …\S32K144
#        AUTOSAR工具包\share_20230823\AUTOSAR_TOOLs\S32K144_SIP\MICROSAR\CBD1800257_D01_S32K1xx\Applications\S32K144_Start_new_IAR\Debug\Obj\Appl\GenData\src\Port_Cfg.o"
#        "D:\WebDown\S32K144\S32K144 …\S32K144
#        AUTOSAR工具包\share_20230823\AUTOSAR_TOOLs\S32K144_SIP\MICROSAR\CBD1800257_D01_S32K1xx\Applications\S32K144_Start_new_IAR\Debug\Obj\MCAL\PORT\Port_Ipw.o"
#        "D:\WebDown\S32K144\S32K144 …\S32K144
#        AUTOSAR工具包\share_20230823\AUTOSAR_TOOLs\S32K144_SIP\MICROSAR\CBD1800257_D01_S32K1xx\Applications\S32K144_Start_new_IAR\Debug\Obj\Appl\GenData\src\Port_PBcfg.o"
#        "D:\WebDown\S32K144\S32K144 …\S32K144
#        AUTOSAR工具包\share_20230823\AUTOSAR_TOOLs\S32K144_SIP\MICROSAR\CBD1800257_D01_S32K1xx\Applications\S32K144_Start_new_IAR\Debug\Obj\MCAL\PORT\Port_Port_Ci.o"
#        "D:\WebDown\S32K144\S32K144 …\S32K144
#        AUTOSAR工具包\share_20230823\AUTOSAR_TOOLs\S32K144_SIP\MICROSAR\CBD1800257_D01_S32K1xx\Applications\S32K144_Start_new_IAR\Debug\Obj\Appl\GenData\Rte.o"
#        "D:\WebDown\S32K144\S32K144 …\S32K144
#        AUTOSAR工具包\share_20230823\AUTOSAR_TOOLs\S32K144_SIP\MICROSAR\CBD1800257_D01_S32K1xx\Applications\S32K144_Start_new_IAR\Debug\Obj\MCAL\SPI\Spi.o"
#        "D:\WebDown\S32K144\S32K144 …\S32K144
#        AUTOSAR工具包\share_20230823\AUTOSAR_TOOLs\S32K144_SIP\MICROSAR\CBD1800257_D01_S32K1xx\Applications\S32K144_Start_new_IAR\Debug\Obj\Appl\GenData\src\Spi_Cfg.o"
#        "D:\WebDown\S32K144\S32K144 …\S32K144
#        AUTOSAR工具包\share_20230823\AUTOSAR_TOOLs\S32K144_SIP\MICROSAR\CBD1800257_D01_S32K1xx\Applications\S32K144_Start_new_IAR\Debug\Obj\MCAL\SPI\Spi_LPspi.o"
#        "D:\WebDown\S32K144\S32K144 …\S32K144
#        AUTOSAR工具包\share_20230823\AUTOSAR_TOOLs\S32K144_SIP\MICROSAR\CBD1800257_D01_S32K1xx\Applications\S32K144_Start_new_IAR\Debug\Obj\MCAL\SPI\Spi_LPspi_Irq.o"
#        "D:\WebDown\S32K144\S32K144 …\S32K144
#        AUTOSAR工具包\share_20230823\AUTOSAR_TOOLs\S32K144_SIP\MICROSAR\CBD1800257_D01_S32K1xx\Applications\S32K144_Start_new_IAR\Debug\Obj\Appl\GenData\src\Spi_PBcfg.o"
#        "D:\WebDown\S32K144\S32K144 …\S32K144
#        AUTOSAR工具包\share_20230823\AUTOSAR_TOOLs\S32K144_SIP\MICROSAR\CBD1800257_D01_S32K1xx\Applications\S32K144_Start_new_IAR\Debug\Obj\Device\startup.o"
#        "D:\WebDown\S32K144\S32K144 …\S32K144
#        AUTOSAR工具包\share_20230823\AUTOSAR_TOOLs\S32K144_SIP\MICROSAR\CBD1800257_D01_S32K1xx\Applications\S32K144_Start_new_IAR\Debug\Obj\Device\startup_S32K148.o"
#        "D:\WebDown\S32K144\S32K144 …\S32K144
#        AUTOSAR工具包\share_20230823\AUTOSAR_TOOLs\S32K144_SIP\MICROSAR\CBD1800257_D01_S32K1xx\Applications\S32K144_Start_new_IAR\Debug\Obj\Device\system_S32K148.o"
#        "D:\WebDown\S32K144\S32K144 …\S32K144
#        AUTOSAR工具包\share_20230823\AUTOSAR_TOOLs\S32K144_SIP\MICROSAR\CBD1800257_D01_S32K1xx\Applications\S32K144_Start_new_IAR\Debug\Obj\BSW\VstdLib\vstdlib.o"
#        --no_out_extension -o "D:\WebDown\S32K144\S32K144 …\S32K144
#        AUTOSAR工具包\share_20230823\AUTOSAR_TOOLs\S32K144_SIP\MICROSAR\CBD1800257_D01_S32K1xx\Applications\S32K144_Start_new_IAR\Debug\Exe\ASR_S32K144_Start.out"
#        --map "D:\WebDown\S32K144\S32K144 …\S32K144
#        AUTOSAR工具包\share_20230823\AUTOSAR_TOOLs\S32K144_SIP\MICROSAR\CBD1800257_D01_S32K1xx\Applications\S32K144_Start_new_IAR\Debug\List\ASR_S32K144_Start.map"
#        --config "D:\WebDown\S32K144\S32K144 …\S32K144
#        AUTOSAR工具包\share_20230823\AUTOSAR_TOOLs\S32K144_SIP\MICROSAR\CBD1800257_D01_S32K1xx\Applications\S32K144_Start_new_IAR\Appl\S32K148Asr.icf"
#        --semihosting --entry __iar_program_start --vfe --utf8_text_in
#        --text_out utf8 --cpu=Cortex-M4 --fpu=VFPv4_sp)
#
###############################################################################

*******************************************************************************
*** RUNTIME MODEL ATTRIBUTES
***

CppFlavor       = *
__CPP_Runtime   = 1
__SystemLibrary = DLib
__dlib_version  = 6


*******************************************************************************
*** HEAP SELECTION
***

The basic heap was selected because --advanced_heap
was not specified and the application did not appear to
be primarily optimized for speed.


*******************************************************************************
*** PLACEMENT SUMMARY
***

"P1":  place in [from 0x400 to 0x40f] { section FlashConfig };
define block OS_EXCVEC_CORE0_CODE_BLOCK
   with alignment = 8 { section .OS_EXCVEC_CORE0_CODE };
define block OS_EXCVEC_CORE0_CODE
   with fixed order {
      section OS_EXCVEC_CORE0_CODE_START_SEC, block OS_EXCVEC_CORE0_CODE_BLOCK,
      section OS_EXCVEC_CORE0_CODE_LIMIT_SEC };
"PROGRAM_FLASH__OS_EXCVEC_CORE0_CODE":
       place in [from 0x500 to 0x8'0000] { block OS_EXCVEC_CORE0_CODE };
define block OS_EXCVEC_CORE0_CONST_BLOCK
   with alignment = 8 { section .OS_EXCVEC_CORE0_CONST };
define block OS_EXCVEC_CORE0_CONST_FAST_BLOCK
   with alignment = 8 { section .OS_EXCVEC_CORE0_CONST_FAST };
define block OS_EXCVEC_CORE0_CONST
   with fixed order {
      section OS_EXCVEC_CORE0_CONST_START_SEC,
      block OS_EXCVEC_CORE0_CONST_BLOCK,
      block OS_EXCVEC_CORE0_CONST_FAST_BLOCK,
      section OS_EXCVEC_CORE0_CONST_LIMIT_SEC };
"VECTORS__OS_EXCVEC_CORE0_CONST":
       place in [from 0x0 to 0x3ff] { block OS_EXCVEC_CORE0_CONST };
define block OS_INTVEC_CODE_BLOCK
   with alignment = 128 { section .OS_INTVEC_CODE };
define block OS_INTVEC_CODE
   with fixed order, alignment = 128 {
      section OS_INTVEC_CODE_START_SEC, block OS_INTVEC_CODE_BLOCK,
      section OS_INTVEC_CODE_LIMIT_SEC };
"PROGRAM_FLASH__OS_INTVEC_CODE":
       place in [from 0x500 to 0x8'0000] { block OS_INTVEC_CODE };
define block OS_INTVEC_CORE0_CODE_BLOCK
   with alignment = 128 { section .OS_INTVEC_CORE0_CODE };
define block OS_INTVEC_CORE0_CODE
   with fixed order, alignment = 128 {
      section OS_INTVEC_CORE0_CODE_START_SEC, block OS_INTVEC_CORE0_CODE_BLOCK,
      section OS_INTVEC_CORE0_CODE_LIMIT_SEC };
"PROGRAM_FLASH__OS_INTVEC_CORE0_CODE":
       place in [from 0x500 to 0x8'0000] { block OS_INTVEC_CORE0_CODE };
define block OS_INTVEC_CORE0_CONST_BLOCK
   with alignment = 128 { section .OS_INTVEC_CORE0_CONST };
define block OS_INTVEC_CORE0_CONST_FAST_BLOCK
   with alignment = 128 { section .OS_INTVEC_CORE0_CONST_FAST };
define block OS_INTVEC_CORE0_CONST
   with fixed order, alignment = 128 {
      section OS_INTVEC_CORE0_CONST_START_SEC,
      block OS_INTVEC_CORE0_CONST_BLOCK,
      block OS_INTVEC_CORE0_CONST_FAST_BLOCK,
      section OS_INTVEC_CORE0_CONST_LIMIT_SEC };
"VECTORS__OS_INTVEC_CORE0_CONST":
       place in [from 0x0 to 0x3ff] { block OS_INTVEC_CORE0_CONST };
define block OS_STACK_DEFAULT_APPL_TASK_VAR_NOINIT_BLOCK
   with alignment = 32 { section .OS_STACK_DEFAULT_APPL_TASK_VAR_NOINIT };
define block OS_STACK_DEFAULT_BSW_ASYNC_TASK_VAR_NOINIT_BLOCK
   with alignment = 32 { section .OS_STACK_DEFAULT_BSW_ASYNC_TASK_VAR_NOINIT };
define block OS_STACK_OSCORE0_ERROR_VAR_NOINIT_BLOCK
   with alignment = 32 { section .OS_STACK_OSCORE0_ERROR_VAR_NOINIT };
define block OS_STACK_OSCORE0_INIT_VAR_NOINIT_BLOCK
   with alignment = 32 { section .OS_STACK_OSCORE0_INIT_VAR_NOINIT };
define block OS_STACK_OSCORE0_ISR_CORE_VAR_NOINIT_BLOCK
   with alignment = 32 { section .OS_STACK_OSCORE0_ISR_CORE_VAR_NOINIT };
define block OS_STACK_OSCORE0_KERNEL_VAR_NOINIT_BLOCK
   with alignment = 32 { section .OS_STACK_OSCORE0_KERNEL_VAR_NOINIT };
define block OS_STACK_OSCORE0_PROTECTION_VAR_NOINIT_BLOCK
   with alignment = 32 { section .OS_STACK_OSCORE0_PROTECTION_VAR_NOINIT };
define block OS_STACK_OSCORE0_TASK_PRIO10_VAR_NOINIT_BLOCK
   with alignment = 32 { section .OS_STACK_OSCORE0_TASK_PRIO10_VAR_NOINIT };
define block OS_STACK_OSCORE0_TASK_PRIO30_VAR_NOINIT_BLOCK
   with alignment = 32 { section .OS_STACK_OSCORE0_TASK_PRIO30_VAR_NOINIT };
define block OS_STACK_OSCORE0_TASK_PRIO40_VAR_NOINIT_BLOCK
   with alignment = 32 { section .OS_STACK_OSCORE0_TASK_PRIO40_VAR_NOINIT };
define block OS_STACK_OSCORE0_TASK_PRIO4294967295_VAR_NOINIT_BLOCK
   with alignment = 32 {
      section .OS_STACK_OSCORE0_TASK_PRIO4294967295_VAR_NOINIT };
define block OS_STACK_OSCORE0_TASK_PRIO45_VAR_NOINIT_BLOCK
   with alignment = 32 { section .OS_STACK_OSCORE0_TASK_PRIO45_VAR_NOINIT };
define block OS_STACK_OSCORE0_TASK_PRIO5_VAR_NOINIT_BLOCK
   with alignment = 32 { section .OS_STACK_OSCORE0_TASK_PRIO5_VAR_NOINIT };
define block OS_STACK_OSCORE0_TASK_PRIO50_VAR_NOINIT_BLOCK
   with alignment = 32 { section .OS_STACK_OSCORE0_TASK_PRIO50_VAR_NOINIT };
define block OS_STACK_OSCORE0_TASK_PRIO100_VAR_NOINIT_BLOCK
   with alignment = 32 { section .OS_STACK_OSCORE0_TASK_PRIO100_VAR_NOINIT };
define block OS_STACK_OSTASK_APP_VAR_NOINIT_BLOCK
   with alignment = 8 { section .OS_STACK_OSTASK_APP_VAR_NOINIT };
define block OS_STACK_OSTASK_BSW_SCHM_VAR_NOINIT_BLOCK
   with alignment = 8 { section .OS_STACK_OSTASK_BSW_SCHM_VAR_NOINIT };
define block OS_STACKS_CORE0_NOINIT
   with fixed order, alignment = 4 {
      section OS_STACKS_CORE0_NOINIT_START_SEC,
      block OS_STACK_DEFAULT_APPL_TASK_VAR_NOINIT_BLOCK,
      block OS_STACK_DEFAULT_BSW_ASYNC_TASK_VAR_NOINIT_BLOCK,
      block OS_STACK_OSCORE0_ERROR_VAR_NOINIT_BLOCK,
      block OS_STACK_OSCORE0_INIT_VAR_NOINIT_BLOCK,
      block OS_STACK_OSCORE0_ISR_CORE_VAR_NOINIT_BLOCK,
      block OS_STACK_OSCORE0_KERNEL_VAR_NOINIT_BLOCK,
      block OS_STACK_OSCORE0_PROTECTION_VAR_NOINIT_BLOCK,
      block OS_STACK_OSCORE0_TASK_PRIO10_VAR_NOINIT_BLOCK,
      block OS_STACK_OSCORE0_TASK_PRIO30_VAR_NOINIT_BLOCK,
      block OS_STACK_OSCORE0_TASK_PRIO40_VAR_NOINIT_BLOCK,
      block OS_STACK_OSCORE0_TASK_PRIO4294967295_VAR_NOINIT_BLOCK,
      block OS_STACK_OSCORE0_TASK_PRIO45_VAR_NOINIT_BLOCK,
      block OS_STACK_OSCORE0_TASK_PRIO5_VAR_NOINIT_BLOCK,
      block OS_STACK_OSCORE0_TASK_PRIO50_VAR_NOINIT_BLOCK,
      block OS_STACK_OSCORE0_TASK_PRIO100_VAR_NOINIT_BLOCK,
      block OS_STACK_OSTASK_APP_VAR_NOINIT_BLOCK,
      block OS_STACK_OSTASK_BSW_SCHM_VAR_NOINIT_BLOCK,
      section OS_STACKS_CORE0_NOINIT_LIMIT_SEC };
"INTERNAL_RAM__OS_STACKS_CORE0_NOINIT":
       place in [from 0x1fff'8000 to 0x2000'0000] {
          block OS_STACKS_CORE0_NOINIT };
define block OS_SystemApplication_OsCore0_VAR_FAST_NOCACHE_NOINIT_BLOCK
   with alignment = 8 {
      section .OS_SystemApplication_OsCore0_VAR_FAST_NOCACHE_NOINIT };
define block OS_SystemApplication_OsCore0_VAR_FAST_NOINIT_BLOCK
   with alignment = 8 { section .OS_SystemApplication_OsCore0_VAR_FAST_NOINIT };
define block OS_SystemApplication_OsCore0_VAR_NOCACHE_NOINIT_BLOCK
   with alignment = 8 {
      section .OS_SystemApplication_OsCore0_VAR_NOCACHE_NOINIT };
define block OS_SystemApplication_OsCore0_VAR_NOINIT_BLOCK
   with alignment = 8 { section .OS_SystemApplication_OsCore0_VAR_NOINIT };
define block OS_SystemApplication_OsCore0_NOINIT
   with fixed order, alignment = 4 {
      section OS_SystemApplication_OsCore0_NOINIT_START_SEC,
      block OS_SystemApplication_OsCore0_VAR_FAST_NOCACHE_NOINIT_BLOCK,
      block OS_SystemApplication_OsCore0_VAR_FAST_NOINIT_BLOCK,
      block OS_SystemApplication_OsCore0_VAR_NOCACHE_NOINIT_BLOCK,
      block OS_SystemApplication_OsCore0_VAR_NOINIT_BLOCK,
      section OS_SystemApplication_OsCore0_NOINIT_LIMIT_SEC };
"INTERNAL_RAM__OS_SystemApplication_OsCore0_NOINIT":
       place in [from 0x1fff'8000 to 0x2000'0000] {
          block OS_SystemApplication_OsCore0_NOINIT };
define block Startup_Code_Core0 with alignment = 8 { section .brsStartup };
define block Startup_Code
   with fixed order, alignment = 4 {
      section Startup_Code_START_SEC, block Startup_Code_Core0,
      section Startup_Code_LIMIT_SEC };
"PROGRAM_FLASH__Startup_Code":
       place in [from 0x500 to 0x8'0000] { block Startup_Code };
define block CSTACK with size = 2K, alignment = 8 { };
define block Startup_Stack
   with fixed order, alignment = 4 {
      section Startup_Stack_START_SEC, block CSTACK,
      section Startup_Stack_LIMIT_SEC };
"INTERNAL_RAM__Startup_Stack":
       place in [from 0x1fff'8000 to 0x2000'0000] { block Startup_Stack };
define block DEFAULT_CODE_BLOCK with alignment = 8 { section .text };
define block OS_Default_Init_Task_CODE_BLOCK
   with alignment = 8 { section .OS_Default_Init_Task_CODE };
define block OS_ERRORHOOK_CODE_BLOCK
   with alignment = 8 { section .OS_ERRORHOOK_CODE };
define block Code_Default
   with fixed order, alignment = 4 {
      section Code_Default_START_SEC, block DEFAULT_CODE_BLOCK,
      block OS_Default_Init_Task_CODE_BLOCK, block OS_ERRORHOOK_CODE_BLOCK,
      section Code_Default_LIMIT_SEC };
"PROGRAM_FLASH__Code_Default":
       place in [from 0x500 to 0x8'0000] { block Code_Default };
define block OS_Adc_Adc12bsarv2_EndGroupConvUnit0_CODE_BLOCK
   with alignment = 8 { section .OS_Adc_Adc12bsarv2_EndGroupConvUnit0_CODE };
define block OS_Adc_Adc12bsarv2_EndGroupConvUnit1_CODE_BLOCK
   with alignment = 8 { section .OS_Adc_Adc12bsarv2_EndGroupConvUnit1_CODE };
define block OS_Application_10ms_Task_CODE_BLOCK
   with alignment = 8 { section .OS_Application_10ms_Task_CODE };
define block OS_Application_2ms_Task_CODE_BLOCK
   with alignment = 8 { section .OS_Application_2ms_Task_CODE };
define block OS_Application_500ms_Task_CODE_BLOCK
   with alignment = 8 { section .OS_Application_500ms_Task_CODE };
define block OS_CODE_BLOCK with alignment = 8 { section .OS_CODE };
define block OS_CanBusOffIsr_0_CODE_BLOCK
   with alignment = 8 { section .OS_CanBusOffIsr_0_CODE };
define block OS_CanMailboxIsr_0_CODE_BLOCK
   with alignment = 8 { section .OS_CanMailboxIsr_0_CODE };
define block OS_Default_BSW_10ms_Task_CODE_BLOCK
   with alignment = 8 { section .OS_Default_BSW_10ms_Task_CODE };
define block OS_Default_BSW_20ms_Task_CODE_BLOCK
   with alignment = 8 { section .OS_Default_BSW_20ms_Task_CODE };
define block OS_Default_BSW_5ms_Task_CODE_BLOCK
   with alignment = 8 { section .OS_Default_BSW_5ms_Task_CODE };
define block OS_Default_BSW_ServiceDispatcher_CODE_BLOCK
   with alignment = 8 { section .OS_Default_BSW_ServiceDispatcher_CODE };
define block OS_FTM_0_CH_0_CH_1_ISR_CODE_BLOCK
   with alignment = 8 { section .OS_FTM_0_CH_0_CH_1_ISR_CODE };
define block OS_FTM_0_CH_2_CH_3_ISR_CODE_BLOCK
   with alignment = 8 { section .OS_FTM_0_CH_2_CH_3_ISR_CODE };
define block OS_ICU_PORT_CI_A_EXT_IRQ_ISR_CODE_BLOCK
   with alignment = 8 { section .OS_ICU_PORT_CI_A_EXT_IRQ_ISR_CODE };
define block OS_ICU_PORT_CI_B_EXT_IRQ_ISR_CODE_BLOCK
   with alignment = 8 { section .OS_ICU_PORT_CI_B_EXT_IRQ_ISR_CODE };
define block OS_OS_COREINITHOOK_CODE_BLOCK
   with alignment = 8 { section .OS_OS_COREINITHOOK_CODE };
define block OS_StartApplication_Appl_Init_Task_CODE_BLOCK
   with alignment = 8 { section .OS_StartApplication_Appl_Init_Task_CODE };
define block OS_StartApplication_NVM_Task_CODE_BLOCK
   with alignment = 8 { section .OS_StartApplication_NVM_Task_CODE };
define block OS_CODE
   with fixed order, alignment = 4 {
      section OS_CODE_START_SEC,
      block OS_Adc_Adc12bsarv2_EndGroupConvUnit0_CODE_BLOCK,
      block OS_Adc_Adc12bsarv2_EndGroupConvUnit1_CODE_BLOCK,
      block OS_Application_10ms_Task_CODE_BLOCK,
      block OS_Application_2ms_Task_CODE_BLOCK,
      block OS_Application_500ms_Task_CODE_BLOCK, block OS_CODE_BLOCK,
      block OS_CanBusOffIsr_0_CODE_BLOCK, block OS_CanMailboxIsr_0_CODE_BLOCK,
      block OS_Default_BSW_10ms_Task_CODE_BLOCK,
      block OS_Default_BSW_20ms_Task_CODE_BLOCK,
      block OS_Default_BSW_5ms_Task_CODE_BLOCK,
      block OS_Default_BSW_ServiceDispatcher_CODE_BLOCK,
      block OS_FTM_0_CH_0_CH_1_ISR_CODE_BLOCK,
      block OS_FTM_0_CH_2_CH_3_ISR_CODE_BLOCK,
      block OS_ICU_PORT_CI_A_EXT_IRQ_ISR_CODE_BLOCK,
      block OS_ICU_PORT_CI_B_EXT_IRQ_ISR_CODE_BLOCK,
      block OS_OS_COREINITHOOK_CODE_BLOCK,
      block OS_StartApplication_Appl_Init_Task_CODE_BLOCK,
      block OS_StartApplication_NVM_Task_CODE_BLOCK, section OS_CODE_LIMIT_SEC,
      section .mcal_text };
"PROGRAM_FLASH__OS_CODE":
       place in [from 0x500 to 0x8'0000] { block OS_CODE };
define block OS_CONST_BLOCK with alignment = 8 { section .OS_CONST };
define block OS_CONST_FAST_BLOCK with alignment = 8 { section .OS_CONST_FAST };
define block OS_CORE0_CONST_BLOCK
   with alignment = 8 { section .OS_CORE0_CONST };
define block OS_CORE0_CONST_FAST_BLOCK
   with alignment = 8 { section .OS_CORE0_CONST_FAST };
define block OS_GLOBALSHARED_CONST_BLOCK
   with alignment = 8 { section .OS_GLOBALSHARED_CONST };
define block OS_GLOBALSHARED_CONST_FAST_BLOCK
   with alignment = 8 { section .OS_GLOBALSHARED_CONST_FAST };
define block OS_INTVEC_CONST_BLOCK
   with alignment = 8 { section .OS_INTVEC_CONST };
define block OS_INTVEC_CONST_FAST_BLOCK
   with alignment = 8 { section .OS_INTVEC_CONST_FAST };
define block OS_SystemApplication_OsCore0_CONST_BLOCK
   with alignment = 8 { section .OS_SystemApplication_OsCore0_CONST };
define block OS_SystemApplication_OsCore0_CONST_FAST_BLOCK
   with alignment = 8 { section .OS_SystemApplication_OsCore0_CONST_FAST };
define block OS_CONST
   with fixed order, alignment = 4 {
      section OS_CONST_START_SEC, block OS_CONST_BLOCK,
      block OS_CONST_FAST_BLOCK, block OS_CORE0_CONST_BLOCK,
      block OS_CORE0_CONST_FAST_BLOCK, block OS_GLOBALSHARED_CONST_BLOCK,
      block OS_GLOBALSHARED_CONST_FAST_BLOCK, block OS_INTVEC_CONST_BLOCK,
      block OS_INTVEC_CONST_FAST_BLOCK,
      block OS_SystemApplication_OsCore0_CONST_BLOCK,
      block OS_SystemApplication_OsCore0_CONST_FAST_BLOCK,
      section OS_CONST_LIMIT_SEC, section .mcal_const,
      section .mcal_const_cfg };
"PROGRAM_FLASH__OS_CONST":
       place in [from 0x500 to 0x8'0000] { block OS_CONST };
define block OS_CORE0_VAR_FAST_NOCACHE_NOINIT_BLOCK
   with alignment = 8 { section .OS_CORE0_VAR_FAST_NOCACHE_NOINIT };
define block OS_CORE0_VAR_FAST_NOINIT_BLOCK
   with alignment = 8 { section .OS_CORE0_VAR_FAST_NOINIT };
define block OS_CORE0_VAR_NOCACHE_NOINIT_BLOCK
   with alignment = 8 { section .OS_CORE0_VAR_NOCACHE_NOINIT };
define block OS_CORE0_VAR_NOINIT_BLOCK
   with alignment = 8 { section .OS_CORE0_VAR_NOINIT };
define block OS_DATA_CORE0_NOINIT
   with fixed order, alignment = 4 {
      section OS_DATA_CORE0_NOINIT_START_SEC,
      block OS_CORE0_VAR_FAST_NOCACHE_NOINIT_BLOCK,
      block OS_CORE0_VAR_FAST_NOINIT_BLOCK,
      block OS_CORE0_VAR_NOCACHE_NOINIT_BLOCK, block OS_CORE0_VAR_NOINIT_BLOCK,
      section OS_DATA_CORE0_NOINIT_LIMIT_SEC };
"INTERNAL_RAM__OS_DATA_CORE0_NOINIT":
       place in [from 0x1fff'8000 to 0x2000'0000] {
          block OS_DATA_CORE0_NOINIT };
define block OS_BARRIER_CORE0_VAR_FAST_NOCACHE_NOINIT_BLOCK
   with alignment = 8 { section .OS_BARRIER_CORE0_VAR_FAST_NOCACHE_NOINIT };
define block OS_BARRIER_CORE0_VAR_FAST_NOINIT_BLOCK
   with alignment = 8 { section .OS_BARRIER_CORE0_VAR_FAST_NOINIT };
define block OS_BARRIER_CORE0_VAR_NOCACHE_NOINIT_BLOCK
   with alignment = 8 { section .OS_BARRIER_CORE0_VAR_NOCACHE_NOINIT };
define block OS_BARRIER_CORE0_VAR_NOINIT_BLOCK
   with alignment = 8 { section .OS_BARRIER_CORE0_VAR_NOINIT };
define block OS_CORESTATUS_CORE0_VAR_FAST_NOCACHE_NOINIT_BLOCK
   with alignment = 8 { section .OS_CORESTATUS_CORE0_VAR_FAST_NOCACHE_NOINIT };
define block OS_CORESTATUS_CORE0_VAR_FAST_NOINIT_BLOCK
   with alignment = 8 { section .OS_CORESTATUS_CORE0_VAR_FAST_NOINIT };
define block OS_CORESTATUS_CORE0_VAR_NOCACHE_NOINIT_BLOCK
   with alignment = 8 { section .OS_CORESTATUS_CORE0_VAR_NOCACHE_NOINIT };
define block OS_CORESTATUS_CORE0_VAR_NOINIT_BLOCK
   with alignment = 8 { section .OS_CORESTATUS_CORE0_VAR_NOINIT };
define block OS_GLOBALSHARED_VAR_FAST_NOCACHE_NOINIT_BLOCK
   with alignment = 8 { section .OS_GLOBALSHARED_VAR_FAST_NOCACHE_NOINIT };
define block OS_GLOBALSHARED_VAR_FAST_NOINIT_BLOCK
   with alignment = 8 { section .OS_GLOBALSHARED_VAR_FAST_NOINIT };
define block OS_GLOBALSHARED_VAR_NOCACHE_NOINIT_BLOCK
   with alignment = 8 { section .OS_GLOBALSHARED_VAR_NOCACHE_NOINIT };
define block OS_GLOBALSHARED_VAR_NOINIT_BLOCK
   with alignment = 8 { section .OS_GLOBALSHARED_VAR_NOINIT };
define block OS_PUBLIC_CORE0_VAR_FAST_NOCACHE_NOINIT_BLOCK
   with alignment = 8 { section .OS_PUBLIC_CORE0_VAR_FAST_NOCACHE_NOINIT };
define block OS_PUBLIC_CORE0_VAR_FAST_NOINIT_BLOCK
   with alignment = 8 { section .OS_PUBLIC_CORE0_VAR_FAST_NOINIT };
define block OS_PUBLIC_CORE0_VAR_NOCACHE_NOINIT_BLOCK
   with alignment = 8 { section .OS_PUBLIC_CORE0_VAR_NOCACHE_NOINIT };
define block OS_PUBLIC_CORE0_VAR_NOINIT_BLOCK
   with alignment = 8 { section .OS_PUBLIC_CORE0_VAR_NOINIT };
define block OS_VAR_FAST_NOCACHE_NOINIT_BLOCK
   with alignment = 8 { section .OS_VAR_FAST_NOCACHE_NOINIT };
define block OS_VAR_FAST_NOINIT_BLOCK
   with alignment = 8 { section .OS_VAR_FAST_NOINIT };
define block OS_VAR_NOCACHE_NOINIT_BLOCK
   with alignment = 8 { section .OS_VAR_NOCACHE_NOINIT };
define block OS_VAR_NOINIT_BLOCK with alignment = 8 { section .OS_VAR_NOINIT };
define block OS_DATA_SHARED_NOINIT
   with fixed order, alignment = 4 {
      section OS_DATA_SHARED_NOINIT_START_SEC,
      block OS_BARRIER_CORE0_VAR_FAST_NOCACHE_NOINIT_BLOCK,
      block OS_BARRIER_CORE0_VAR_FAST_NOINIT_BLOCK,
      block OS_BARRIER_CORE0_VAR_NOCACHE_NOINIT_BLOCK,
      block OS_BARRIER_CORE0_VAR_NOINIT_BLOCK,
      block OS_CORESTATUS_CORE0_VAR_FAST_NOCACHE_NOINIT_BLOCK,
      block OS_CORESTATUS_CORE0_VAR_FAST_NOINIT_BLOCK,
      block OS_CORESTATUS_CORE0_VAR_NOCACHE_NOINIT_BLOCK,
      block OS_CORESTATUS_CORE0_VAR_NOINIT_BLOCK,
      block OS_GLOBALSHARED_VAR_FAST_NOCACHE_NOINIT_BLOCK,
      block OS_GLOBALSHARED_VAR_FAST_NOINIT_BLOCK,
      block OS_GLOBALSHARED_VAR_NOCACHE_NOINIT_BLOCK,
      block OS_GLOBALSHARED_VAR_NOINIT_BLOCK,
      block OS_PUBLIC_CORE0_VAR_FAST_NOCACHE_NOINIT_BLOCK,
      block OS_PUBLIC_CORE0_VAR_FAST_NOINIT_BLOCK,
      block OS_PUBLIC_CORE0_VAR_NOCACHE_NOINIT_BLOCK,
      block OS_PUBLIC_CORE0_VAR_NOINIT_BLOCK,
      block OS_VAR_FAST_NOCACHE_NOINIT_BLOCK, block OS_VAR_FAST_NOINIT_BLOCK,
      block OS_VAR_NOCACHE_NOINIT_BLOCK, block OS_VAR_NOINIT_BLOCK,
      section OS_DATA_SHARED_NOINIT_LIMIT_SEC };
"INTERNAL_RAM__OS_DATA_SHARED_NOINIT":
       place in [from 0x1fff'8000 to 0x2000'0000] {
          block OS_DATA_SHARED_NOINIT };
define block OS_BARRIER_CORE0_VAR_BLOCK
   with alignment = 8 { section .OS_BARRIER_CORE0_VAR };
define block OS_BARRIER_CORE0_VAR_FAST_BLOCK
   with alignment = 8 { section .OS_BARRIER_CORE0_VAR_FAST };
define block OS_BARRIER_CORE0_VAR_FAST_NOCACHE_BLOCK
   with alignment = 8 { section .OS_BARRIER_CORE0_VAR_FAST_NOCACHE };
define block OS_BARRIER_CORE0_VAR_NOCACHE_BLOCK
   with alignment = 8 { section .OS_BARRIER_CORE0_VAR_NOCACHE };
define block OS_CORESTATUS_CORE0_VAR_BLOCK
   with alignment = 8 { section .OS_CORESTATUS_CORE0_VAR };
define block OS_CORESTATUS_CORE0_VAR_FAST_BLOCK
   with alignment = 8 { section .OS_CORESTATUS_CORE0_VAR_FAST };
define block OS_CORESTATUS_CORE0_VAR_FAST_NOCACHE_BLOCK
   with alignment = 8 { section .OS_CORESTATUS_CORE0_VAR_FAST_NOCACHE };
define block OS_CORESTATUS_CORE0_VAR_NOCACHE_BLOCK
   with alignment = 8 { section .OS_CORESTATUS_CORE0_VAR_NOCACHE };
define block OS_GLOBALSHARED_VAR_BLOCK
   with alignment = 8 { section .OS_GLOBALSHARED_VAR };
define block OS_GLOBALSHARED_VAR_FAST_BLOCK
   with alignment = 8 { section .OS_GLOBALSHARED_VAR_FAST };
define block OS_GLOBALSHARED_VAR_FAST_NOCACHE_BLOCK
   with alignment = 8 { section .OS_GLOBALSHARED_VAR_FAST_NOCACHE };
define block OS_GLOBALSHARED_VAR_NOCACHE_BLOCK
   with alignment = 8 { section .OS_GLOBALSHARED_VAR_NOCACHE };
define block OS_PUBLIC_CORE0_VAR_BLOCK
   with alignment = 8 { section .OS_PUBLIC_CORE0_VAR };
define block OS_PUBLIC_CORE0_VAR_FAST_BLOCK
   with alignment = 8 { section .OS_PUBLIC_CORE0_VAR_FAST };
define block OS_PUBLIC_CORE0_VAR_FAST_NOCACHE_BLOCK
   with alignment = 8 { section .OS_PUBLIC_CORE0_VAR_FAST_NOCACHE };
define block OS_PUBLIC_CORE0_VAR_NOCACHE_BLOCK
   with alignment = 8 { section .OS_PUBLIC_CORE0_VAR_NOCACHE };
define block OS_VAR_BLOCK with alignment = 8 { section .OS_VAR };
define block OS_VAR_FAST_BLOCK with alignment = 8 { section .OS_VAR_FAST };
define block OS_VAR_FAST_NOCACHE_BLOCK
   with alignment = 8 { section .OS_VAR_FAST_NOCACHE };
define block OS_VAR_NOCACHE_BLOCK
   with alignment = 8 { section .OS_VAR_NOCACHE };
define block OS_DATA_SHARED_INIT
   with fixed order, alignment = 4 {
      section OS_DATA_SHARED_INIT_START_SEC, block OS_BARRIER_CORE0_VAR_BLOCK,
      block OS_BARRIER_CORE0_VAR_FAST_BLOCK,
      block OS_BARRIER_CORE0_VAR_FAST_NOCACHE_BLOCK,
      block OS_BARRIER_CORE0_VAR_NOCACHE_BLOCK,
      block OS_CORESTATUS_CORE0_VAR_BLOCK,
      block OS_CORESTATUS_CORE0_VAR_FAST_BLOCK,
      block OS_CORESTATUS_CORE0_VAR_FAST_NOCACHE_BLOCK,
      block OS_CORESTATUS_CORE0_VAR_NOCACHE_BLOCK,
      block OS_GLOBALSHARED_VAR_BLOCK, block OS_GLOBALSHARED_VAR_FAST_BLOCK,
      block OS_GLOBALSHARED_VAR_FAST_NOCACHE_BLOCK,
      block OS_GLOBALSHARED_VAR_NOCACHE_BLOCK, block OS_PUBLIC_CORE0_VAR_BLOCK,
      block OS_PUBLIC_CORE0_VAR_FAST_BLOCK,
      block OS_PUBLIC_CORE0_VAR_FAST_NOCACHE_BLOCK,
      block OS_PUBLIC_CORE0_VAR_NOCACHE_BLOCK, block OS_VAR_BLOCK,
      block OS_VAR_FAST_BLOCK, block OS_VAR_FAST_NOCACHE_BLOCK,
      block OS_VAR_NOCACHE_BLOCK, section OS_DATA_SHARED_INIT_LIMIT_SEC };
"INTERNAL_RAM__OS_DATA_SHARED_INIT":
       place in [from 0x1fff'8000 to 0x2000'0000] { block OS_DATA_SHARED_INIT };
define block OS_BARRIER_CORE0_VAR_FAST_NOCACHE_ZERO_INIT_BLOCK
   with alignment = 8 { section .OS_BARRIER_CORE0_VAR_FAST_NOCACHE_ZERO_INIT };
define block OS_BARRIER_CORE0_VAR_FAST_ZERO_INIT_BLOCK
   with alignment = 8 { section .OS_BARRIER_CORE0_VAR_FAST_ZERO_INIT };
define block OS_BARRIER_CORE0_VAR_NOCACHE_ZERO_INIT_BLOCK
   with alignment = 8 { section .OS_BARRIER_CORE0_VAR_NOCACHE_ZERO_INIT };
define block OS_BARRIER_CORE0_VAR_ZERO_INIT_BLOCK
   with alignment = 8 { section .OS_BARRIER_CORE0_VAR_ZERO_INIT };
define block OS_CORESTATUS_CORE0_VAR_FAST_NOCACHE_ZERO_INIT_BLOCK
   with alignment = 8 {
      section .OS_CORESTATUS_CORE0_VAR_FAST_NOCACHE_ZERO_INIT };
define block OS_CORESTATUS_CORE0_VAR_FAST_ZERO_INIT_BLOCK
   with alignment = 8 { section .OS_CORESTATUS_CORE0_VAR_FAST_ZERO_INIT };
define block OS_CORESTATUS_CORE0_VAR_NOCACHE_ZERO_INIT_BLOCK
   with alignment = 8 { section .OS_CORESTATUS_CORE0_VAR_NOCACHE_ZERO_INIT };
define block OS_CORESTATUS_CORE0_VAR_ZERO_INIT_BLOCK
   with alignment = 8 { section .OS_CORESTATUS_CORE0_VAR_ZERO_INIT };
define block OS_GLOBALSHARED_VAR_FAST_NOCACHE_ZERO_INIT_BLOCK
   with alignment = 8 { section .OS_GLOBALSHARED_VAR_FAST_NOCACHE_ZERO_INIT };
define block OS_GLOBALSHARED_VAR_FAST_ZERO_INIT_BLOCK
   with alignment = 8 { section .OS_GLOBALSHARED_VAR_FAST_ZERO_INIT };
define block OS_GLOBALSHARED_VAR_NOCACHE_ZERO_INIT_BLOCK
   with alignment = 8 { section .OS_GLOBALSHARED_VAR_NOCACHE_ZERO_INIT };
define block OS_GLOBALSHARED_VAR_ZERO_INIT_BLOCK
   with alignment = 8 { section .OS_GLOBALSHARED_VAR_ZERO_INIT };
define block OS_PUBLIC_CORE0_VAR_FAST_NOCACHE_ZERO_INIT_BLOCK
   with alignment = 8 { section .OS_PUBLIC_CORE0_VAR_FAST_NOCACHE_ZERO_INIT };
define block OS_PUBLIC_CORE0_VAR_FAST_ZERO_INIT_BLOCK
   with alignment = 8 { section .OS_PUBLIC_CORE0_VAR_FAST_ZERO_INIT };
define block OS_PUBLIC_CORE0_VAR_NOCACHE_ZERO_INIT_BLOCK
   with alignment = 8 { section .OS_PUBLIC_CORE0_VAR_NOCACHE_ZERO_INIT };
define block OS_PUBLIC_CORE0_VAR_ZERO_INIT_BLOCK
   with alignment = 8 { section .OS_PUBLIC_CORE0_VAR_ZERO_INIT };
define block OS_VAR_FAST_NOCACHE_ZERO_INIT_BLOCK
   with alignment = 8 { section .OS_VAR_FAST_NOCACHE_ZERO_INIT };
define block OS_VAR_FAST_ZERO_INIT_BLOCK
   with alignment = 8 { section .OS_VAR_FAST_ZERO_INIT };
define block OS_VAR_NOCACHE_ZERO_INIT_BLOCK
   with alignment = 8 { section .OS_VAR_NOCACHE_ZERO_INIT };
define block OS_VAR_ZERO_INIT_BLOCK
   with alignment = 8 { section .OS_VAR_ZERO_INIT };
define block OS_DATA_SHARED_ZERO_INIT
   with fixed order, alignment = 4 {
      section OS_DATA_SHARED_ZERO_INIT_START_SEC,
      block OS_BARRIER_CORE0_VAR_FAST_NOCACHE_ZERO_INIT_BLOCK,
      block OS_BARRIER_CORE0_VAR_FAST_ZERO_INIT_BLOCK,
      block OS_BARRIER_CORE0_VAR_NOCACHE_ZERO_INIT_BLOCK,
      block OS_BARRIER_CORE0_VAR_ZERO_INIT_BLOCK,
      block OS_CORESTATUS_CORE0_VAR_FAST_NOCACHE_ZERO_INIT_BLOCK,
      block OS_CORESTATUS_CORE0_VAR_FAST_ZERO_INIT_BLOCK,
      block OS_CORESTATUS_CORE0_VAR_NOCACHE_ZERO_INIT_BLOCK,
      block OS_CORESTATUS_CORE0_VAR_ZERO_INIT_BLOCK,
      block OS_GLOBALSHARED_VAR_FAST_NOCACHE_ZERO_INIT_BLOCK,
      block OS_GLOBALSHARED_VAR_FAST_ZERO_INIT_BLOCK,
      block OS_GLOBALSHARED_VAR_NOCACHE_ZERO_INIT_BLOCK,
      block OS_GLOBALSHARED_VAR_ZERO_INIT_BLOCK,
      block OS_PUBLIC_CORE0_VAR_FAST_NOCACHE_ZERO_INIT_BLOCK,
      block OS_PUBLIC_CORE0_VAR_FAST_ZERO_INIT_BLOCK,
      block OS_PUBLIC_CORE0_VAR_NOCACHE_ZERO_INIT_BLOCK,
      block OS_PUBLIC_CORE0_VAR_ZERO_INIT_BLOCK,
      block OS_VAR_FAST_NOCACHE_ZERO_INIT_BLOCK,
      block OS_VAR_FAST_ZERO_INIT_BLOCK, block OS_VAR_NOCACHE_ZERO_INIT_BLOCK,
      block OS_VAR_ZERO_INIT_BLOCK, section OS_DATA_SHARED_ZERO_INIT_LIMIT_SEC,
      section .mcal_bss, section .mcal_data };
"INTERNAL_RAM__OS_DATA_SHARED_ZERO_INIT":
       place in [from 0x1fff'8000 to 0x2000'0000] {
          block OS_DATA_SHARED_ZERO_INIT };
define block DEFAULT_RODATA_BLOCK with alignment = 8 { section .rodata };
define block DEFAULT_INTVEC_BLOCK with alignment = 8 { section .intvec };
define block DEFAULT_INIT_TABLE_BLOCK
   with alignment = 8 { section .iar.init_table };
define block DEFAULT_DATA_ROM_INIT_BLOCK
   with alignment = 8 { section .data_init };
define block Const_Default
   with fixed order, alignment = 4 {
      section Const_Default_START_SEC, block DEFAULT_RODATA_BLOCK,
      block DEFAULT_INTVEC_BLOCK, block DEFAULT_INIT_TABLE_BLOCK,
      block DEFAULT_DATA_ROM_INIT_BLOCK, section Const_Default_LIMIT_SEC };
"PROGRAM_FLASH__Const_Default":
       place in [from 0x500 to 0x8'0000] { block Const_Default };
define block DEFAULT_BSS_BLOCK with alignment = 8 { section .bss };
define block DEFAULT_DATA_INIT_BLOCK with alignment = 8 { section .data };
define block Data_Default
   with fixed order, alignment = 4 {
      section Data_Default_START_SEC, block DEFAULT_BSS_BLOCK,
      block DEFAULT_DATA_INIT_BLOCK, section Data_Default_LIMIT_SEC };
"INTERNAL_RAM__Data_Default":
       place in [from 0x1fff'8000 to 0x2000'0000] { block Data_Default };
define block function_in_ram_BLOCK
   with alignment = 4 { section .function_in_ram };
define block Data_Default_INIT
   with fixed order, alignment = 4 {
      section Data_Default_INIT_START_SEC, block function_in_ram_BLOCK,
      section Data_Default_INIT_LIMIT_SEC };
"INTERNAL_RAM__Data_Default_INIT":
       place in [from 0x1fff'8000 to 0x2000'0000] { block Data_Default_INIT };
define block HEAP with size = 2K, alignment = 8 { };
define block Heap_Default
   with fixed order, alignment = 4 {
      section Heap_Default_START_SEC, block HEAP,
      section Heap_Default_LIMIT_SEC };
"INTERNAL_RAM__Heap_Default":
       place in [from 0x1fff'8000 to 0x2000'0000] { block Heap_Default };
do not initialize {
   section .OS_STACK_APPLICATION_10MS_TASK_VAR_NOINIT,
   section .OS_STACK_APPLICATION_500MS_TASK_VAR_NOINIT,
   section .OS_STACK_DEFAULT_BSW_10MS_TASK_VAR_NOINIT,
   section .OS_STACK_DEFAULT_BSW_20MS_TASK_VAR_NOINIT,
   section .OS_STACK_OSCORE0_ERROR_VAR_NOINIT,
   section .OS_STACK_OSCORE0_INIT_VAR_NOINIT,
   section .OS_STACK_OSCORE0_ISR_CORE_VAR_NOINIT,
   section .OS_STACK_OSCORE0_KERNEL_VAR_NOINIT,
   section .OS_STACK_OSCORE0_TASK_PRIO40_VAR_NOINIT,
   section .OS_STACK_OSCORE0_TASK_PRIO4294967295_VAR_NOINIT,
   section .OS_STACK_OSCORE0_TASK_PRIO45_VAR_NOINIT,
   section .OS_STACK_OSCORE0_TASK_PRIO50_VAR_NOINIT,
   section .OS_STACK_OSCORE0_TASK_PRIO5_VAR_NOINIT,
   section .OS_STACK_OSCORE0_TASK_PRIO60_VAR_NOINIT,
   section .OS_STACK_STARTAPPLICATION_NVM_TASK_VAR_NOINIT,
   section .OS_SystemApplication_OsCore0_VAR_FAST_NOCACHE_NOINIT,
   section .OS_SystemApplication_OsCore0_VAR_FAST_NOINIT,
   section .OS_SystemApplication_OsCore0_VAR_NOCACHE_NOINIT,
   section .OS_SystemApplication_OsCore0_VAR_NOINIT,
   section .OS_CORE0_VAR_FAST_NOCACHE_NOINIT,
   section .OS_CORE0_VAR_FAST_NOINIT, section .OS_CORE0_VAR_NOCACHE_NOINIT,
   section .OS_CORE0_VAR_NOINIT,
   section .OS_BARRIER_CORE0_VAR_FAST_NOCACHE_NOINIT,
   section .OS_BARRIER_CORE0_VAR_FAST_NOCACHE_ZERO_INIT,
   section .OS_BARRIER_CORE0_VAR_FAST_NOINIT,
   section .OS_BARRIER_CORE0_VAR_FAST_ZERO_INIT,
   section .OS_BARRIER_CORE0_VAR_NOCACHE_NOINIT,
   section .OS_BARRIER_CORE0_VAR_NOCACHE_ZERO_INIT,
   section .OS_BARRIER_CORE0_VAR_NOINIT,
   section .OS_BARRIER_CORE0_VAR_ZERO_INIT,
   section .OS_CORESTATUS_CORE0_VAR_FAST_NOCACHE_NOINIT,
   section .OS_CORESTATUS_CORE0_VAR_FAST_NOCACHE_ZERO_INIT,
   section .OS_CORESTATUS_CORE0_VAR_FAST_NOINIT,
   section .OS_CORESTATUS_CORE0_VAR_FAST_ZERO_INIT,
   section .OS_CORESTATUS_CORE0_VAR_NOCACHE_NOINIT,
   section .OS_CORESTATUS_CORE0_VAR_NOCACHE_ZERO_INIT,
   section .OS_CORESTATUS_CORE0_VAR_NOINIT,
   section .OS_CORESTATUS_CORE0_VAR_ZERO_INIT,
   section .OS_GLOBALSHARED_VAR_FAST_NOCACHE_NOINIT,
   section .OS_GLOBALSHARED_VAR_FAST_NOCACHE_ZERO_INIT,
   section .OS_GLOBALSHARED_VAR_FAST_NOINIT,
   section .OS_GLOBALSHARED_VAR_FAST_ZERO_INIT,
   section .OS_GLOBALSHARED_VAR_NOCACHE_NOINIT,
   section .OS_GLOBALSHARED_VAR_NOCACHE_ZERO_INIT,
   section .OS_GLOBALSHARED_VAR_NOINIT, section .OS_GLOBALSHARED_VAR_ZERO_INIT,
   section .OS_PUBLIC_CORE0_VAR_FAST_NOCACHE_NOINIT,
   section .OS_PUBLIC_CORE0_VAR_FAST_NOCACHE_ZERO_INIT,
   section .OS_PUBLIC_CORE0_VAR_FAST_NOINIT,
   section .OS_PUBLIC_CORE0_VAR_FAST_ZERO_INIT,
   section .OS_PUBLIC_CORE0_VAR_NOCACHE_NOINIT,
   section .OS_PUBLIC_CORE0_VAR_NOCACHE_ZERO_INIT,
   section .OS_PUBLIC_CORE0_VAR_NOINIT, section .OS_PUBLIC_CORE0_VAR_ZERO_INIT,
   section .OS_VAR_FAST_NOCACHE_NOINIT, section .OS_VAR_FAST_NOCACHE_ZERO_INIT,
   section .OS_VAR_FAST_NOINIT, section .OS_VAR_FAST_ZERO_INIT,
   section .OS_VAR_NOCACHE_NOINIT, section .OS_VAR_NOCACHE_ZERO_INIT,
   section .OS_VAR_NOINIT, section .OS_VAR_ZERO_INIT, section .bss, rw };
keep { section OS_EXCVEC_CORE0_CODE_START_SEC };
keep { section OS_EXCVEC_CORE0_CODE_LIMIT_SEC };
keep { section OS_EXCVEC_CORE0_CONST_START_SEC };
keep { section OS_EXCVEC_CORE0_CONST_LIMIT_SEC };
keep { section OS_INTVEC_CODE_START_SEC };
keep { section OS_INTVEC_CODE_LIMIT_SEC };
keep { section OS_INTVEC_CORE0_CODE_START_SEC };
keep { section OS_INTVEC_CORE0_CODE_LIMIT_SEC };
keep { section OS_INTVEC_CORE0_CONST_START_SEC };
keep { section OS_INTVEC_CORE0_CONST_LIMIT_SEC };
keep { section OS_STACKS_CORE0_NOINIT_START_SEC };
keep { section OS_STACKS_CORE0_NOINIT_LIMIT_SEC };
keep { section OS_SystemApplication_OsCore0_NOINIT_START_SEC };
keep { section OS_SystemApplication_OsCore0_NOINIT_LIMIT_SEC };
keep { section Startup_Code_START_SEC };
keep { section Startup_Code_LIMIT_SEC };
keep { section Startup_Stack_START_SEC };
keep { section Startup_Stack_LIMIT_SEC };
keep { section Code_Default_START_SEC };
keep { section Code_Default_LIMIT_SEC };
keep { section OS_CODE_START_SEC };
keep { section OS_CODE_LIMIT_SEC };
keep { section OS_CONST_START_SEC };
keep { section OS_CONST_LIMIT_SEC };
keep { section OS_DATA_CORE0_NOINIT_START_SEC };
keep { section OS_DATA_CORE0_NOINIT_LIMIT_SEC };
keep { section OS_DATA_SHARED_NOINIT_START_SEC };
keep { section OS_DATA_SHARED_NOINIT_LIMIT_SEC };
keep { section OS_DATA_SHARED_INIT_START_SEC };
keep { section OS_DATA_SHARED_INIT_LIMIT_SEC };
keep { section OS_DATA_SHARED_ZERO_INIT_START_SEC };
keep { section OS_DATA_SHARED_ZERO_INIT_LIMIT_SEC };
keep { section Const_Default_START_SEC };
keep { section Const_Default_LIMIT_SEC };
keep { section Data_Default_START_SEC };
keep { section Data_Default_LIMIT_SEC };
keep { section Data_Default_INIT_START_SEC };
keep { section Data_Default_INIT_LIMIT_SEC };
keep { section Heap_Default_START_SEC };
keep { section Heap_Default_LIMIT_SEC };

No sections matched the following patterns:

  section .APPLHEADER                                            in "P4"
  section .APPLVECT                                              in "P3"
  section .BMHDRHEADER                                           in "P5"
  section .CAL_DATA_SEC                                          in "P2"
  section .OS_Adc_Adc12bsarv2_EndGroupConvUnit0_CODE             in block OS_Adc_Adc12bsarv2_EndGroupConvUnit0_CODE_BLOCK
  section .OS_Adc_Adc12bsarv2_EndGroupConvUnit1_CODE             in block OS_Adc_Adc12bsarv2_EndGroupConvUnit1_CODE_BLOCK
  section .OS_Application_10ms_Task_CODE                         in block OS_Application_10ms_Task_CODE_BLOCK
  section .OS_Application_2ms_Task_CODE                          in block OS_Application_2ms_Task_CODE_BLOCK
  section .OS_Application_500ms_Task_CODE                        in block OS_Application_500ms_Task_CODE_BLOCK
  section .OS_BARRIER_CORE0_VAR                                  in block OS_BARRIER_CORE0_VAR_BLOCK
  section .OS_BARRIER_CORE0_VAR_FAST                             in block OS_BARRIER_CORE0_VAR_FAST_BLOCK
  section .OS_BARRIER_CORE0_VAR_FAST_NOCACHE                     in block OS_BARRIER_CORE0_VAR_FAST_NOCACHE_BLOCK
  section .OS_BARRIER_CORE0_VAR_FAST_NOCACHE_NOINIT              in block OS_BARRIER_CORE0_VAR_FAST_NOCACHE_NOINIT_BLOCK
  section .OS_BARRIER_CORE0_VAR_FAST_NOCACHE_ZERO_INIT           in block OS_BARRIER_CORE0_VAR_FAST_NOCACHE_ZERO_INIT_BLOCK
  section .OS_BARRIER_CORE0_VAR_FAST_NOCACHE_init                in block OS_BARRIER_CORE0_VAR_FAST_NOCACHE_init_BLOCK
  section .OS_BARRIER_CORE0_VAR_FAST_NOINIT                      in block OS_BARRIER_CORE0_VAR_FAST_NOINIT_BLOCK
  section .OS_BARRIER_CORE0_VAR_FAST_ZERO_INIT                   in block OS_BARRIER_CORE0_VAR_FAST_ZERO_INIT_BLOCK
  section .OS_BARRIER_CORE0_VAR_FAST_init                        in block OS_BARRIER_CORE0_VAR_FAST_init_BLOCK
  section .OS_BARRIER_CORE0_VAR_NOCACHE                          in block OS_BARRIER_CORE0_VAR_NOCACHE_BLOCK
  section .OS_BARRIER_CORE0_VAR_NOCACHE_ZERO_INIT                in block OS_BARRIER_CORE0_VAR_NOCACHE_ZERO_INIT_BLOCK
  section .OS_BARRIER_CORE0_VAR_NOCACHE_init                     in block OS_BARRIER_CORE0_VAR_NOCACHE_init_BLOCK
  section .OS_BARRIER_CORE0_VAR_NOINIT                           in block OS_BARRIER_CORE0_VAR_NOINIT_BLOCK
  section .OS_BARRIER_CORE0_VAR_ZERO_INIT                        in block OS_BARRIER_CORE0_VAR_ZERO_INIT_BLOCK
  section .OS_BARRIER_CORE0_VAR_init                             in block OS_BARRIER_CORE0_VAR_init_BLOCK
  section .OS_CONST_FAST                                         in block OS_CONST_FAST_BLOCK
  section .OS_CORE0_CONST_FAST                                   in block OS_CORE0_CONST_FAST_BLOCK
  section .OS_CORE0_VAR_FAST_NOCACHE_NOINIT                      in block OS_CORE0_VAR_FAST_NOCACHE_NOINIT_BLOCK
  section .OS_CORE0_VAR_NOCACHE_NOINIT                           in block OS_CORE0_VAR_NOCACHE_NOINIT_BLOCK
  section .OS_CORESTATUS_CORE0_VAR                               in block OS_CORESTATUS_CORE0_VAR_BLOCK
  section .OS_CORESTATUS_CORE0_VAR_FAST                          in block OS_CORESTATUS_CORE0_VAR_FAST_BLOCK
  section .OS_CORESTATUS_CORE0_VAR_FAST_NOCACHE                  in block OS_CORESTATUS_CORE0_VAR_FAST_NOCACHE_BLOCK
  section .OS_CORESTATUS_CORE0_VAR_FAST_NOCACHE_NOINIT           in block OS_CORESTATUS_CORE0_VAR_FAST_NOCACHE_NOINIT_BLOCK
  section .OS_CORESTATUS_CORE0_VAR_FAST_NOCACHE_ZERO_INIT        in block OS_CORESTATUS_CORE0_VAR_FAST_NOCACHE_ZERO_INIT_BLOCK
  section .OS_CORESTATUS_CORE0_VAR_FAST_NOCACHE_init             in block OS_CORESTATUS_CORE0_VAR_FAST_NOCACHE_init_BLOCK
  section .OS_CORESTATUS_CORE0_VAR_FAST_NOINIT                   in block OS_CORESTATUS_CORE0_VAR_FAST_NOINIT_BLOCK
  section .OS_CORESTATUS_CORE0_VAR_FAST_ZERO_INIT                in block OS_CORESTATUS_CORE0_VAR_FAST_ZERO_INIT_BLOCK
  section .OS_CORESTATUS_CORE0_VAR_FAST_init                     in block OS_CORESTATUS_CORE0_VAR_FAST_init_BLOCK
  section .OS_CORESTATUS_CORE0_VAR_NOCACHE                       in block OS_CORESTATUS_CORE0_VAR_NOCACHE_BLOCK
  section .OS_CORESTATUS_CORE0_VAR_NOCACHE_ZERO_INIT             in block OS_CORESTATUS_CORE0_VAR_NOCACHE_ZERO_INIT_BLOCK
  section .OS_CORESTATUS_CORE0_VAR_NOCACHE_init                  in block OS_CORESTATUS_CORE0_VAR_NOCACHE_init_BLOCK
  section .OS_CORESTATUS_CORE0_VAR_NOINIT                        in block OS_CORESTATUS_CORE0_VAR_NOINIT_BLOCK
  section .OS_CORESTATUS_CORE0_VAR_ZERO_INIT                     in block OS_CORESTATUS_CORE0_VAR_ZERO_INIT_BLOCK
  section .OS_CORESTATUS_CORE0_VAR_init                          in block OS_CORESTATUS_CORE0_VAR_init_BLOCK
  section .OS_CanBusOffIsr_0_CODE                                in block OS_CanBusOffIsr_0_CODE_BLOCK
  section .OS_CanMailboxIsr_0_CODE                               in block OS_CanMailboxIsr_0_CODE_BLOCK
  section .OS_Default_BSW_10ms_Task_CODE                         in block OS_Default_BSW_10ms_Task_CODE_BLOCK
  section .OS_Default_BSW_20ms_Task_CODE                         in block OS_Default_BSW_20ms_Task_CODE_BLOCK
  section .OS_Default_BSW_5ms_Task_CODE                          in block OS_Default_BSW_5ms_Task_CODE_BLOCK
  section .OS_Default_BSW_ServiceDispatcher_CODE                 in block OS_Default_BSW_ServiceDispatcher_CODE_BLOCK
  section .OS_Default_Init_Task_CODE                             in block OS_Default_Init_Task_CODE_BLOCK
  section .OS_ERRORHOOK_CODE                                     in block OS_ERRORHOOK_CODE_BLOCK
  section .OS_EXCVEC_CORE0_CODE                                  in block OS_EXCVEC_CORE0_CODE_BLOCK
  section .OS_EXCVEC_CORE0_CONST                                 in block OS_EXCVEC_CORE0_CONST_BLOCK
  section .OS_EXCVEC_CORE0_CONST_FAST                            in block OS_EXCVEC_CORE0_CONST_FAST_BLOCK
  section .OS_FTM_0_CH_0_CH_1_ISR_CODE                           in block OS_FTM_0_CH_0_CH_1_ISR_CODE_BLOCK
  section .OS_FTM_0_CH_2_CH_3_ISR_CODE                           in block OS_FTM_0_CH_2_CH_3_ISR_CODE_BLOCK
  section .OS_GLOBALSHARED_CONST                                 in block OS_GLOBALSHARED_CONST_BLOCK
  section .OS_GLOBALSHARED_CONST_FAST                            in block OS_GLOBALSHARED_CONST_FAST_BLOCK
  section .OS_GLOBALSHARED_VAR                                   in block OS_GLOBALSHARED_VAR_BLOCK
  section .OS_GLOBALSHARED_VAR_FAST                              in block OS_GLOBALSHARED_VAR_FAST_BLOCK
  section .OS_GLOBALSHARED_VAR_FAST_NOCACHE                      in block OS_GLOBALSHARED_VAR_FAST_NOCACHE_BLOCK
  section .OS_GLOBALSHARED_VAR_FAST_NOCACHE_NOINIT               in block OS_GLOBALSHARED_VAR_FAST_NOCACHE_NOINIT_BLOCK
  section .OS_GLOBALSHARED_VAR_FAST_NOCACHE_ZERO_INIT            in block OS_GLOBALSHARED_VAR_FAST_NOCACHE_ZERO_INIT_BLOCK
  section .OS_GLOBALSHARED_VAR_FAST_NOCACHE_init                 in block OS_GLOBALSHARED_VAR_FAST_NOCACHE_init_BLOCK
  section .OS_GLOBALSHARED_VAR_FAST_NOINIT                       in block OS_GLOBALSHARED_VAR_FAST_NOINIT_BLOCK
  section .OS_GLOBALSHARED_VAR_FAST_ZERO_INIT                    in block OS_GLOBALSHARED_VAR_FAST_ZERO_INIT_BLOCK
  section .OS_GLOBALSHARED_VAR_FAST_init                         in block OS_GLOBALSHARED_VAR_FAST_init_BLOCK
  section .OS_GLOBALSHARED_VAR_NOCACHE                           in block OS_GLOBALSHARED_VAR_NOCACHE_BLOCK
  section .OS_GLOBALSHARED_VAR_NOCACHE_NOINIT                    in block OS_GLOBALSHARED_VAR_NOCACHE_NOINIT_BLOCK
  section .OS_GLOBALSHARED_VAR_NOCACHE_ZERO_INIT                 in block OS_GLOBALSHARED_VAR_NOCACHE_ZERO_INIT_BLOCK
  section .OS_GLOBALSHARED_VAR_NOCACHE_init                      in block OS_GLOBALSHARED_VAR_NOCACHE_init_BLOCK
  section .OS_GLOBALSHARED_VAR_NOINIT                            in block OS_GLOBALSHARED_VAR_NOINIT_BLOCK
  section .OS_GLOBALSHARED_VAR_ZERO_INIT                         in block OS_GLOBALSHARED_VAR_ZERO_INIT_BLOCK
  section .OS_GLOBALSHARED_VAR_init                              in block OS_GLOBALSHARED_VAR_init_BLOCK
  section .OS_ICU_PORT_CI_A_EXT_IRQ_ISR_CODE                     in block OS_ICU_PORT_CI_A_EXT_IRQ_ISR_CODE_BLOCK
  section .OS_ICU_PORT_CI_B_EXT_IRQ_ISR_CODE                     in block OS_ICU_PORT_CI_B_EXT_IRQ_ISR_CODE_BLOCK
  section .OS_INTVEC_CODE                                        in block OS_INTVEC_CODE_BLOCK
  section .OS_INTVEC_CONST                                       in block OS_INTVEC_CONST_BLOCK
  section .OS_INTVEC_CONST_FAST                                  in block OS_INTVEC_CONST_FAST_BLOCK
  section .OS_INTVEC_CORE0_CONST_FAST                            in block OS_INTVEC_CORE0_CONST_FAST_BLOCK
  section .OS_OS_COREINITHOOK_CODE                               in block OS_OS_COREINITHOOK_CODE_BLOCK
  section .OS_PUBLIC_CORE0_VAR                                   in block OS_PUBLIC_CORE0_VAR_BLOCK
  section .OS_PUBLIC_CORE0_VAR_FAST                              in block OS_PUBLIC_CORE0_VAR_FAST_BLOCK
  section .OS_PUBLIC_CORE0_VAR_FAST_NOCACHE                      in block OS_PUBLIC_CORE0_VAR_FAST_NOCACHE_BLOCK
  section .OS_PUBLIC_CORE0_VAR_FAST_NOCACHE_NOINIT               in block OS_PUBLIC_CORE0_VAR_FAST_NOCACHE_NOINIT_BLOCK
  section .OS_PUBLIC_CORE0_VAR_FAST_NOCACHE_ZERO_INIT            in block OS_PUBLIC_CORE0_VAR_FAST_NOCACHE_ZERO_INIT_BLOCK
  section .OS_PUBLIC_CORE0_VAR_FAST_NOCACHE_init                 in block OS_PUBLIC_CORE0_VAR_FAST_NOCACHE_init_BLOCK
  section .OS_PUBLIC_CORE0_VAR_FAST_NOINIT                       in block OS_PUBLIC_CORE0_VAR_FAST_NOINIT_BLOCK
  section .OS_PUBLIC_CORE0_VAR_FAST_ZERO_INIT                    in block OS_PUBLIC_CORE0_VAR_FAST_ZERO_INIT_BLOCK
  section .OS_PUBLIC_CORE0_VAR_FAST_init                         in block OS_PUBLIC_CORE0_VAR_FAST_init_BLOCK
  section .OS_PUBLIC_CORE0_VAR_NOCACHE                           in block OS_PUBLIC_CORE0_VAR_NOCACHE_BLOCK
  section .OS_PUBLIC_CORE0_VAR_NOCACHE_NOINIT                    in block OS_PUBLIC_CORE0_VAR_NOCACHE_NOINIT_BLOCK
  section .OS_PUBLIC_CORE0_VAR_NOCACHE_ZERO_INIT                 in block OS_PUBLIC_CORE0_VAR_NOCACHE_ZERO_INIT_BLOCK
  section .OS_PUBLIC_CORE0_VAR_NOCACHE_init                      in block OS_PUBLIC_CORE0_VAR_NOCACHE_init_BLOCK
  section .OS_PUBLIC_CORE0_VAR_NOINIT                            in block OS_PUBLIC_CORE0_VAR_NOINIT_BLOCK
  section .OS_PUBLIC_CORE0_VAR_ZERO_INIT                         in block OS_PUBLIC_CORE0_VAR_ZERO_INIT_BLOCK
  section .OS_PUBLIC_CORE0_VAR_init                              in block OS_PUBLIC_CORE0_VAR_init_BLOCK
  section .OS_STACK_DEFAULT_APPL_TASK_VAR_NOINIT                 in block OS_STACK_DEFAULT_APPL_TASK_VAR_NOINIT_BLOCK
  section .OS_STACK_DEFAULT_BSW_ASYNC_TASK_VAR_NOINIT            in block OS_STACK_DEFAULT_BSW_ASYNC_TASK_VAR_NOINIT_BLOCK
  section .OS_STACK_OSCORE0_PROTECTION_VAR_NOINIT                in block OS_STACK_OSCORE0_PROTECTION_VAR_NOINIT_BLOCK
  section .OS_STACK_OSCORE0_TASK_PRIO10_VAR_NOINIT               in block OS_STACK_OSCORE0_TASK_PRIO10_VAR_NOINIT_BLOCK
  section .OS_STACK_OSCORE0_TASK_PRIO30_VAR_NOINIT               in block OS_STACK_OSCORE0_TASK_PRIO30_VAR_NOINIT_BLOCK
  section .OS_STACK_OSCORE0_TASK_PRIO40_VAR_NOINIT               in block OS_STACK_OSCORE0_TASK_PRIO40_VAR_NOINIT_BLOCK
  section .OS_STACK_OSCORE0_TASK_PRIO45_VAR_NOINIT               in block OS_STACK_OSCORE0_TASK_PRIO45_VAR_NOINIT_BLOCK
  section .OS_STACK_OSCORE0_TASK_PRIO50_VAR_NOINIT               in block OS_STACK_OSCORE0_TASK_PRIO50_VAR_NOINIT_BLOCK
  section .OS_STACK_OSCORE0_TASK_PRIO5_VAR_NOINIT                in block OS_STACK_OSCORE0_TASK_PRIO5_VAR_NOINIT_BLOCK
  section .OS_StartApplication_Appl_Init_Task_CODE               in block OS_StartApplication_Appl_Init_Task_CODE_BLOCK
  section .OS_StartApplication_NVM_Task_CODE                     in block OS_StartApplication_NVM_Task_CODE_BLOCK
  section .OS_SystemApplication_OsCore0_CONST                    in block OS_SystemApplication_OsCore0_CONST_BLOCK
  section .OS_SystemApplication_OsCore0_CONST_FAST               in block OS_SystemApplication_OsCore0_CONST_FAST_BLOCK
  section .OS_SystemApplication_OsCore0_VAR_FAST_NOCACHE_NOINIT  in block OS_SystemApplication_OsCore0_VAR_FAST_NOCACHE_NOINIT_BLOCK
  section .OS_SystemApplication_OsCore0_VAR_FAST_NOINIT          in block OS_SystemApplication_OsCore0_VAR_FAST_NOINIT_BLOCK
  section .OS_SystemApplication_OsCore0_VAR_NOCACHE_NOINIT       in block OS_SystemApplication_OsCore0_VAR_NOCACHE_NOINIT_BLOCK
  section .OS_SystemApplication_OsCore0_VAR_NOINIT               in block OS_SystemApplication_OsCore0_VAR_NOINIT_BLOCK
  section .OS_VAR                                                in block OS_VAR_BLOCK
  section .OS_VAR_FAST                                           in block OS_VAR_FAST_BLOCK
  section .OS_VAR_FAST_NOCACHE                                   in block OS_VAR_FAST_NOCACHE_BLOCK
  section .OS_VAR_FAST_NOCACHE_NOINIT                            in block OS_VAR_FAST_NOCACHE_NOINIT_BLOCK
  section .OS_VAR_FAST_NOCACHE_ZERO_INIT                         in block OS_VAR_FAST_NOCACHE_ZERO_INIT_BLOCK
  section .OS_VAR_FAST_NOCACHE_init                              in block OS_VAR_FAST_NOCACHE_init_BLOCK
  section .OS_VAR_FAST_NOINIT                                    in block OS_VAR_FAST_NOINIT_BLOCK
  section .OS_VAR_FAST_ZERO_INIT                                 in block OS_VAR_FAST_ZERO_INIT_BLOCK
  section .OS_VAR_FAST_init                                      in block OS_VAR_FAST_init_BLOCK
  section .OS_VAR_NOCACHE                                        in block OS_VAR_NOCACHE_BLOCK
  section .OS_VAR_NOCACHE_ZERO_INIT                              in block OS_VAR_NOCACHE_ZERO_INIT_BLOCK
  section .OS_VAR_NOCACHE_init                                   in block OS_VAR_NOCACHE_init_BLOCK
  section .OS_VAR_NOINIT                                         in block OS_VAR_NOINIT_BLOCK
  section .OS_VAR_ZERO_INIT                                      in block OS_VAR_ZERO_INIT_BLOCK
  section .OS_VAR_init                                           in block OS_VAR_init_BLOCK
  section .brsStartup                                            in block Startup_Code_Core0
  section .data                                                  in block DEFAULT_DATA_INIT_BLOCK
  section .data_init                                             in block DEFAULT_DATA_ROM_INIT_BLOCK
  section .function_in_ram                                       in block function_in_ram_BLOCK
  section .function_in_ram_init                                  in block function_in_ram_init_BLOCK
  section .iar.init_table                                        in block DEFAULT_INIT_TABLE_BLOCK
  section .mcal_bss                                              in block OS_DATA_SHARED_ZERO_INIT
  section .mcal_const                                            in block OS_CONST
  section .mcal_const_cfg                                        in block OS_CONST
  section .mcal_data                                             in block OS_DATA_SHARED_ZERO_INIT
  section .mcal_text                                             in block OS_CODE


  Section                 Kind               Address      Size  Object
  -------                 ----               -------      ----  ------
"VECTORS__OS_EXCVEC_CORE0_CONST":                          0x0
  OS_EXCVEC_CORE0_CONST                          0x0       0x0  <Block>
    OS_EXCVEC_CORE0_CONST_START_SEC
                          uninit                 0x0       0x0  <internal module>
    OS_EXCVEC_CORE0_CONST_LIMIT_SEC
                          uninit                 0x0       0x0  <internal module>

"VECTORS__OS_INTVEC_CORE0_CONST":                        0x3c0
  OS_INTVEC_CORE0_CONST                          0x0     0x3c0  <Block>
    OS_INTVEC_CORE0_CONST_START_SEC
                          uninit                 0x0       0x0  <internal module>
    OS_INTVEC_CORE0_CONST_BLOCK
                                                 0x0     0x3c0  <Block>
      .OS_INTVEC_CORE0_CONST
                          const                  0x0     0x3c0  Os_Hal_Entry_Lcfg.o [2]
    OS_INTVEC_CORE0_CONST_LIMIT_SEC
                          uninit               0x3c0       0x0  <internal module>
                                             - 0x3c0     0x3c0

"P1":                                                     0x10
  FlashConfig             ro code              0x400      0x10  startup_S32K148.o [20]
                                             - 0x410      0x10

"PROGRAM_FLASH__OS_EXCVEC_CORE0_CODE":                     0x0
  OS_EXCVEC_CORE0_CODE                         0x500       0x0  <Block>
    OS_EXCVEC_CORE0_CODE_START_SEC
                          uninit               0x500       0x0  <internal module>
    OS_EXCVEC_CORE0_CODE_LIMIT_SEC
                          uninit               0x500       0x0  <internal module>

"PROGRAM_FLASH__OS_INTVEC_CODE":                           0x0
  OS_INTVEC_CODE                               0x500       0x0  <Block>
    OS_INTVEC_CODE_START_SEC
                          uninit               0x500       0x0  <internal module>
    OS_INTVEC_CODE_LIMIT_SEC
                          uninit               0x500       0x0  <internal module>

"PROGRAM_FLASH__OS_INTVEC_CORE0_CODE":                   0x128
  OS_INTVEC_CORE0_CODE                         0x500     0x128  <Block>
    OS_INTVEC_CORE0_CODE_START_SEC
                          uninit               0x500       0x0  <internal module>
    OS_INTVEC_CORE0_CODE_BLOCK
                                               0x500     0x128  <Block>
      .OS_INTVEC_CORE0_CODE
                          ro code              0x500     0x128  Os_Hal_EntryAsm_Lcfg.o [2]
    OS_INTVEC_CORE0_CODE_LIMIT_SEC
                          uninit               0x628       0x0  <internal module>
                                             - 0x628     0x128

"PROGRAM_FLASH__Startup_Code":                             0x0
  Startup_Code                                 0x628       0x0  <Block>
    Startup_Code_START_SEC
                          uninit               0x628       0x0  <internal module>
    Startup_Code_LIMIT_SEC
                          uninit               0x628       0x0  <internal module>

"PROGRAM_FLASH__Code_Default":                        0x1'2fac
  Code_Default                                 0x628  0x1'2fac  <Block>
    Code_Default_START_SEC
                          uninit               0x628       0x0  <internal module>
    DEFAULT_CODE_BLOCK                         0x628  0x1'2fac  <Block>
      .text               ro code              0x628      0xa4  BrsAsrMain.o [1]
      .text               ro code              0x6cc     0x270  EcuM.o [15]
      .text               ro code              0x93c    0x10d8  Can.o [6]
      .text               ro code             0x1a14     0x5b8  ComM.o [11]
      .text               ro code             0x1fcc      0x88  EcuM_Callout_Stubs.o [4]
      .text               ro code             0x2054      0x28  Det.o [14]
      .text               ro code             0x207c     0x630  BswM.o [5]
      .text               ro code             0x26ac     0x20c  Rte.o [2]
      .text               ro code             0x28b8     0xb14  CanIf.o [7]
      .text               ro code             0x33cc      0x28  ComM_Lcfg.o [2]
      .text               ro code             0x33f4    0x3c44  Dcm.o [12]
      .text               ro code             0x7038     0x6ec  CanSM.o [8]
      .text               ro code             0x7724    0x1584  CanTp.o [9]
      .text               ro code             0x8ca8     0xab0  Com.o [10]
      .text               ro code             0x9758     0x3b4  PduR.o [18]
      .text               ro code             0x9b0c    0x757a  Dem.o [13]
      .text               ro code           0x1'1086       0x2  startup_S32K148.o [20]
      .text               ro code           0x1'1088      0x8c  Mcu.o [22]
      .text               ro code           0x1'1114      0x28  Port.o [23]
      .text               ro code           0x1'113c     0x3a0  Spi.o [24]
      .text               ro code           0x1'14dc     0x688  BswM_Lcfg.o [2]
      .text               ro code           0x1'1b64      0x34  CtLedTask.o [4]
      .text               ro code           0x1'1b98      0x50  CddSbc.o [4]
      .text               ro code           0x1'1be8     0x5a4  vstdlib.o [19]
      .text               ro code           0x1'218c      0xd8  PduR_Lcfg.o [2]
      .text               ro code           0x1'2264       0xa  Dcm_Callout_Stubs.o [4]
      .text               ro code           0x1'226e       0x2  startup_S32K148.o [20]
      .text               ro code           0x1'2270     0x188  PduR_RmIf.o [18]
      .text               ro code           0x1'23f8     0x1bc  PduR_RmTp.o [18]
      .text               ro code           0x1'25b4      0xa6  ABImemcpy.o [27]
      .text               ro code           0x1'265a       0x2  startup_S32K148.o [20]
      .text               ro code           0x1'265c      0xd0  Mcu_IPW.o [22]
      .text               ro code           0x1'272c     0x2d8  Port_Port_Ci.o [23]
      .text               ro code           0x1'2a04     0x53c  Spi_LPspi.o [24]
      .text               ro code           0x1'2f40      0x3a  BswM_Callout_Stubs.o [4]
      .text               ro code           0x1'2f7a       0xc  Dio.o [21]
      .text               ro code           0x1'2f86       0x2  startup_S32K148.o [20]
      .text               ro code           0x1'2f88      0xb0  PduR_Lock.o [18]
      .text               ro code           0x1'3038      0xb8  Mcu_SIM.o [22]
      .text               ro code           0x1'30f0      0x24  Mcu_RCM.o [22]
      .text               ro code           0x1'3114      0x34  Mcu_PMC.o [22]
      .text               ro code           0x1'3148      0x10  Mcu_SMC.o [22]
      .text               ro code           0x1'3158     0x1b4  Mcu_SCG.o [22]
      .text               ro code           0x1'330c      0x68  Mcu_PCC.o [22]
      .text               ro code           0x1'3374      0x44  Dio_Gpio.o [21]
      .text               ro code           0x1'33b8      0xb4  startup.o [20]
      .text               ro code           0x1'346c      0x3c  startup_S32K148.o [20]
      .text               ro code           0x1'34a8      0x48  system_S32K148.o [20]
      .text               ro code           0x1'34f0      0x1c  cstartup_M.o [27]
      .text               ro code           0x1'350c      0x22  fpinit_M.o [26]
      .text               ro code           0x1'352e       0x2  startup_S32K148.o [20]
      .text               ro code           0x1'3530      0x1e  cmain.o [27]
      .text               ro code           0x1'354e       0x4  low_level_init.o [25]
      .text               ro code           0x1'3552       0x4  exit.o [25]
      .text               ro code           0x1'3556       0x2  startup_S32K148.o [20]
      .text               ro code           0x1'3558       0xa  cexit.o [27]
      .text               ro code           0x1'3562       0x2  startup_S32K148.o [20]
      .text               ro code           0x1'3564      0x14  exit.o [28]
      .text               ro code           0x1'3578      0x10  Can_Irq.o [6]
      .text               ro code           0x1'3588       0x8  Dcm_Lcfg.o [2]
      .text               ro code           0x1'3590      0x30  Os_Callout_Stubs.o [4]
      .text               ro code           0x1'35c0       0xc  Os_Core.o [17]
      .text               ro code           0x1'35cc       0x2  startup_S32K148.o [20]
      .text               ro code           0x1'35ce       0x2  startup_S32K148.o [20]
      .text               ro code           0x1'35d0       0x4  startup_S32K148.o [20]
    Code_Default_LIMIT_SEC
                          uninit            0x1'35d4       0x0  <internal module>
                                          - 0x1'35d4  0x1'2fac

"PROGRAM_FLASH__OS_CODE":                             0x1'51b0
  OS_CODE                                   0x1'35d4  0x1'51b0  <Block>
    OS_CODE_START_SEC     uninit            0x1'35d4       0x0  <internal module>
    OS_CODE_BLOCK                           0x1'35d8  0x1'51ac  <Block>
      .OS_CODE            ro code           0x1'35d8     0x182  Os_AccessCheck.o [17]
      .OS_CODE            ro code           0x1'375c     0x6ba  Os_Error.o [17]
      .OS_CODE            ro code           0x1'3e18    0x1a6c  Os_Task.o [17]
      .OS_CODE            ro code           0x1'5884    0x16da  Os_Isr.o [17]
      .OS_CODE            ro code           0x1'6f60     0x834  Os_Thread.o [17]
      .OS_CODE            ro code           0x1'7794    0x1390  Os_Application.o [17]
      .OS_CODE            ro code           0x1'8b24     0xf7e  Os_Core.o [17]
      .OS_CODE            ro code           0x1'9aa4    0x125e  Os_Hook.o [17]
      .OS_CODE            ro code           0x1'ad04      0x84  Os_Hal_Core.o [17]
      .OS_CODE            ro code           0x1'ad88     0x5c4  Os_XSignal.o [17]
      .OS_CODE            ro code           0x1'b34c     0x350  Os_TimingProtection.o [17]
      .OS_CODE            ro code           0x1'b69c     0xb80  Os_Interrupt.o [17]
      .OS_CODE            ro code           0x1'c21c    0x1e36  Os_Trap.o [17]
      .OS_CODE            ro code           0x1'e054    0x1142  Os_Spinlock.o [17]
      .OS_CODE            ro code           0x1'f198    0x11c0  Os_Resource.o [17]
      .OS_CODE            ro code           0x2'0358     0xd1e  Os_ServiceFunction.o [17]
      .OS_CODE            ro code           0x2'1078     0x176  Os_Hal_Context_v7m.o [17]
      .OS_CODE            ro code           0x2'11f0     0x730  Os_Scheduler.o [17]
      .OS_CODE            ro code           0x2'1920    0x12d4  Os_Counter.o [17]
      .OS_CODE            ro code           0x2'2bf4     0x984  Os_Alarm.o [17]
      .OS_CODE            ro code           0x2'3578     0xfc8  Os_ScheduleTable.o [17]
      .OS_CODE            ro code           0x2'4540    0x1740  Os_Ioc.o [17]
      .OS_CODE            ro code           0x2'5c80     0x856  Os_Stack.o [17]
      .OS_CODE            ro code           0x2'64d8     0x36c  Os_Barrier.o [17]
      .OS_CODE            ro code           0x2'6844    0x1324  Os_Event.o [17]
      .OS_CODE            ro code           0x2'7b68     0x2b4  Os_Peripheral.o [17]
      .OS_CODE            ro code           0x2'7e1c      0x12  Os_Hal_Compiler_Iar.o [17]
      .OS_CODE            ro code           0x2'7e30     0x1d8  Os_Hal_ContextAsm.o [17]
      .OS_CODE            ro code           0x2'8008     0x280  Os_PriorityQueue.o [17]
      .OS_CODE            ro code           0x2'8288     0x390  Os_Timer.o [17]
      .OS_CODE            ro code           0x2'8618       0x0  Os_Hal_EntryAsm_Lcfg.o [2]
      .OS_CODE            ro code           0x2'8618     0x16c  Os_MemoryProtection.o [17]
    OS_CODE_LIMIT_SEC     uninit            0x2'8784       0x0  <internal module>
                                          - 0x2'8784  0x1'51b0

"PROGRAM_FLASH__OS_CONST":                               0x910
  OS_CONST                                  0x2'8784     0x910  <Block>
    OS_CONST_START_SEC    uninit            0x2'8784       0x0  <internal module>
    OS_CONST_BLOCK                          0x2'8788      0xf9  <Block>
      .OS_CONST           const             0x2'8788       0x8  Os_AccessCheck_Lcfg.o [2]
      .OS_CONST           const             0x2'8790      0x18  Os_Alarm_Lcfg.o [2]
      .OS_CONST           const             0x2'87a8       0x8  Os_Application_Lcfg.o [2]
      .OS_CONST           const             0x2'87b0       0x4  Os_Barrier_Lcfg.o [2]
      .OS_CONST           const             0x2'87b4       0x4  Os_Core_Lcfg.o [2]
      .OS_CONST           const             0x2'87b8       0x8  Os_Core_Lcfg.o [2]
      .OS_CONST           const             0x2'87c0      0x28  Os_Core_Lcfg.o [2]
      .OS_CONST           const             0x2'87e8       0x8  Os_Counter_Lcfg.o [2]
      .OS_CONST           const             0x2'87f0       0x8  Os_Error_Lcfg.o [2]
      .OS_CONST           const             0x2'87f8       0x8  Os_Error_Lcfg.o [2]
      .OS_CONST           const             0x2'8800       0x8  Os_Hal_Context_Lcfg.o [2]
      .OS_CONST           const             0x2'8808       0x4  Os_Hal_Core_Lcfg.o [2]
      .OS_CONST           const             0x2'880c       0x4  Os_Hal_Core_Lcfg.o [2]
      .OS_CONST           const             0x2'8810      0x10  Os_Hal_Core_Lcfg.o [2]
      .OS_CONST           const             0x2'8820       0x8  Os_Hal_Kernel_Lcfg.o [2]
      .OS_CONST           const             0x2'8828       0x8  Os_Hal_Kernel_Lcfg.o [2]
      .OS_CONST           const             0x2'8830       0x8  Os_Hal_Kernel_Lcfg.o [2]
      .OS_CONST           const             0x2'8838      0x14  Os_Isr_Lcfg.o [2]
      .OS_CONST           const             0x2'884c       0x4  Os_Peripheral_Lcfg.o [2]
      .OS_CONST           const             0x2'8850       0x8  Os_Resource_Lcfg.o [2]
      .OS_CONST           const             0x2'8858       0x4  Os_ScheduleTable_Lcfg.o [2]
      .OS_CONST           const             0x2'885c       0x4  Os_ServiceFunction_Lcfg.o [2]
      .OS_CONST           const             0x2'8860       0x4  Os_ServiceFunction_Lcfg.o [2]
      .OS_CONST           const             0x2'8864       0x4  Os_ServiceFunction_Lcfg.o [2]
      .OS_CONST           const             0x2'8868       0x4  Os_Spinlock_Lcfg.o [2]
      .OS_CONST           const             0x2'886c      0x14  Os_Task_Lcfg.o [2]
      .OS_CONST           const             0x2'8880       0x1  Os_XSignal_Lcfg.o [2]
    OS_CORE0_CONST_BLOCK                    0x2'8888     0x80c  <Block>
      .OS_CORE0_CONST     const             0x2'8888      0x30  Os_Alarm_Lcfg.o [2]
      .OS_CORE0_CONST     const             0x2'88b8      0x30  Os_Alarm_Lcfg.o [2]
      .OS_CORE0_CONST     const             0x2'88e8      0x30  Os_Alarm_Lcfg.o [2]
      .OS_CORE0_CONST     const             0x2'8918      0x30  Os_Alarm_Lcfg.o [2]
      .OS_CORE0_CONST     const             0x2'8948      0x30  Os_Alarm_Lcfg.o [2]
      .OS_CORE0_CONST     const             0x2'8978      0x18  Os_Application_Lcfg.o [2]
      .OS_CORE0_CONST     const             0x2'8990       0x8  Os_Application_Lcfg.o [2]
      .OS_CORE0_CONST     const             0x2'8998       0x4  Os_Application_Lcfg.o [2]
      .OS_CORE0_CONST     const             0x2'899c      0x14  Os_Application_Lcfg.o [2]
      .OS_CORE0_CONST     const             0x2'89b0       0x4  Os_Application_Lcfg.o [2]
      .OS_CORE0_CONST     const             0x2'89b4       0x4  Os_Application_Lcfg.o [2]
      .OS_CORE0_CONST     const             0x2'89b8      0x14  Os_Application_Lcfg.o [2]
      .OS_CORE0_CONST     const             0x2'89cc       0x4  Os_Application_Lcfg.o [2]
      .OS_CORE0_CONST     const             0x2'89d0      0x60  Os_Application_Lcfg.o [2]
      .OS_CORE0_CONST     const             0x2'8a30      0x14  Os_Barrier_Lcfg.o [2]
      .OS_CORE0_CONST     const             0x2'8a44       0xc  Os_Core_Lcfg.o [2]
      .OS_CORE0_CONST     const             0x2'8a50       0x4  Os_Core_Lcfg.o [2]
      .OS_CORE0_CONST     const             0x2'8a54       0x4  Os_Core_Lcfg.o [2]
      .OS_CORE0_CONST     const             0x2'8a58       0x4  Os_Core_Lcfg.o [2]
      .OS_CORE0_CONST     const             0x2'8a5c       0x8  Os_Core_Lcfg.o [2]
      .OS_CORE0_CONST     const             0x2'8a64      0x24  Os_Core_Lcfg.o [2]
      .OS_CORE0_CONST     const             0x2'8a88      0x98  Os_Core_Lcfg.o [2]
      .OS_CORE0_CONST     const             0x2'8b20      0x38  Os_Counter_Lcfg.o [2]
      .OS_CORE0_CONST     const             0x2'8b58      0x1c  Os_Hal_Context_Lcfg.o [2]
      .OS_CORE0_CONST     const             0x2'8b74      0x1c  Os_Hal_Context_Lcfg.o [2]
      .OS_CORE0_CONST     const             0x2'8b90      0x1c  Os_Hal_Context_Lcfg.o [2]
      .OS_CORE0_CONST     const             0x2'8bac      0x1c  Os_Hal_Context_Lcfg.o [2]
      .OS_CORE0_CONST     const             0x2'8bc8      0x1c  Os_Hal_Context_Lcfg.o [2]
      .OS_CORE0_CONST     const             0x2'8be4      0x1c  Os_Hal_Context_Lcfg.o [2]
      .OS_CORE0_CONST     const             0x2'8c00      0x1c  Os_Hal_Context_Lcfg.o [2]
      .OS_CORE0_CONST     const             0x2'8c1c      0x1c  Os_Hal_Context_Lcfg.o [2]
      .OS_CORE0_CONST     const             0x2'8c38      0x1c  Os_Hal_Context_Lcfg.o [2]
      .OS_CORE0_CONST     const             0x2'8c54      0x1c  Os_Hal_Context_Lcfg.o [2]
      .OS_CORE0_CONST     const             0x2'8c70       0xc  Os_Hal_Context_Lcfg.o [2]
      .OS_CORE0_CONST     const             0x2'8c7c       0x4  Os_Hal_Core_Lcfg.o [2]
      .OS_CORE0_CONST     const             0x2'8c80       0x8  Os_Hal_Core_Lcfg.o [2]
      .OS_CORE0_CONST     const             0x2'8c88      0x14  Os_Hal_Core_Lcfg.o [2]
      .OS_CORE0_CONST     const             0x2'8c9c      0x10  Os_Hal_Interrupt_Lcfg.o [2]
      .OS_CORE0_CONST     const             0x2'8cac      0x10  Os_Hal_Interrupt_Lcfg.o [2]
      .OS_CORE0_CONST     const             0x2'8cbc      0x10  Os_Hal_Interrupt_Lcfg.o [2]
      .OS_CORE0_CONST     const             0x2'8ccc      0x10  Os_Hal_Interrupt_Lcfg.o [2]
      .OS_CORE0_CONST     const             0x2'8cdc       0x4  Os_Hal_Timer_Lcfg.o [2]
      .OS_CORE0_CONST     const             0x2'8ce0      0x50  Os_Hook_Lcfg.o [2]
      .OS_CORE0_CONST     const             0x2'8d30      0x50  Os_Hook_Lcfg.o [2]
      .OS_CORE0_CONST     const             0x2'8d80      0x44  Os_Isr_Lcfg.o [2]
      .OS_CORE0_CONST     const             0x2'8dc4      0x44  Os_Isr_Lcfg.o [2]
      .OS_CORE0_CONST     const             0x2'8e08      0x44  Os_Isr_Lcfg.o [2]
      .OS_CORE0_CONST     const             0x2'8e4c      0x48  Os_Isr_Lcfg.o [2]
      .OS_CORE0_CONST     const             0x2'8e94      0x18  Os_Resource_Lcfg.o [2]
      .OS_CORE0_CONST     const             0x2'8eac      0x30  Os_Scheduler_Lcfg.o [2]
      .OS_CORE0_CONST     const             0x2'8edc      0x18  Os_Scheduler_Lcfg.o [2]
      .OS_CORE0_CONST     const             0x2'8ef4       0x8  Os_Stack_Lcfg.o [2]
      .OS_CORE0_CONST     const             0x2'8efc       0x8  Os_Stack_Lcfg.o [2]
      .OS_CORE0_CONST     const             0x2'8f04       0x8  Os_Stack_Lcfg.o [2]
      .OS_CORE0_CONST     const             0x2'8f0c       0x8  Os_Stack_Lcfg.o [2]
      .OS_CORE0_CONST     const             0x2'8f14       0x8  Os_Stack_Lcfg.o [2]
      .OS_CORE0_CONST     const             0x2'8f1c       0x8  Os_Stack_Lcfg.o [2]
      .OS_CORE0_CONST     const             0x2'8f24       0x8  Os_Stack_Lcfg.o [2]
      .OS_CORE0_CONST     const             0x2'8f2c       0x8  Os_Stack_Lcfg.o [2]
      .OS_CORE0_CONST     const             0x2'8f34      0x58  Os_Task_Lcfg.o [2]
      .OS_CORE0_CONST     const             0x2'8f8c      0x58  Os_Task_Lcfg.o [2]
      .OS_CORE0_CONST     const             0x2'8fe4      0x58  Os_Task_Lcfg.o [2]
      .OS_CORE0_CONST     const             0x2'903c      0x58  Os_Task_Lcfg.o [2]
    OS_CONST_LIMIT_SEC    uninit            0x2'9094       0x0  <internal module>
                                          - 0x2'9094     0x910

"PROGRAM_FLASH__Const_Default":                         0x1044
  Const_Default                             0x2'9094    0x1044  <Block>
    Const_Default_START_SEC
                          uninit            0x2'9094       0x0  <internal module>
    DEFAULT_RODATA_BLOCK                    0x2'9098     0xc39  <Block>
      .rodata             const             0x2'9098      0x50  BswM_Lcfg.o [2]
      .rodata             const             0x2'90e8       0x8  BswM_Lcfg.o [2]
      .rodata             const             0x2'90f0      0x18  BswM_Lcfg.o [2]
      .rodata             const             0x2'9108       0xc  BswM_Lcfg.o [2]
      .rodata             const             0x2'9114      0x78  BswM_Lcfg.o [2]
      .rodata             const             0x2'918c       0xc  BswM_Lcfg.o [2]
      .rodata             const             0x2'9198       0x4  BswM_Lcfg.o [2]
      .rodata             const             0x2'919c       0x4  Can.o [6]
      .rodata             const             0x2'91a0      0x34  Can_Lcfg.o [2]
      .rodata             const             0x2'91d4      0x40  Can_Lcfg.o [2]
      .rodata             const             0x2'9214       0x8  Can_Lcfg.o [2]
      .rodata             const             0x2'921c      0x18  Can_Lcfg.o [2]
      .rodata             const             0x2'9234      0x2c  CanIf.o [7]
      .rodata             const             0x2'9260       0x4  CanIf_Lcfg.o [2]
      .rodata             const             0x2'9264       0x4  CanIf_Lcfg.o [2]
      .rodata             const             0x2'9268       0xc  CanIf_Lcfg.o [2]
      .rodata             const             0x2'9274      0x18  CanIf_Lcfg.o [2]
      .rodata             const             0x2'928c      0x18  CanIf_Lcfg.o [2]
      .rodata             const             0x2'92a4       0x4  CanIf_Lcfg.o [2]
      .rodata             const             0x2'92a8       0x4  CanIf_Lcfg.o [2]
      .rodata             const             0x2'92ac       0xc  CanIf_Lcfg.o [2]
      .rodata             const             0x2'92b8      0x18  CanIf_Lcfg.o [2]
      .rodata             const             0x2'92d0       0x4  CanIf_Lcfg.o [2]
      .rodata             const             0x2'92d4       0x8  CanTp_Lcfg.o [2]
      .rodata             const             0x2'92dc      0x14  CanTp_Lcfg.o [2]
      .rodata             const             0x2'92f0       0xc  Com_Lcfg.o [2]
      .rodata             const             0x2'92fc       0x4  Com_Lcfg.o [2]
      .rodata             const             0x2'9300       0x4  Com_Lcfg.o [2]
      .rodata             const             0x2'9304       0x8  Com_Lcfg.o [2]
      .rodata             const             0x2'930c       0xc  Com_Lcfg.o [2]
      .rodata             const             0x2'9318      0x1c  ComM.o [11]
      .rodata             const             0x2'9334      0x64  ComM.o [11]
      .rodata             const             0x2'9398       0x4  Dcm.o [12]
      .rodata             const             0x2'939c       0x4  Dcm.o [12]
      .rodata             const             0x2'93a0       0x4  Dcm.o [12]
      .rodata             const             0x2'93a4       0x4  Dcm.o [12]
      .rodata             const             0x2'93a8       0xc  Dcm.o [12]
      .rodata             const             0x2'93b4       0x4  Dcm.o [12]
      .rodata             const             0x2'93b8       0x4  Dcm.o [12]
      .rodata             const             0x2'93bc       0x8  Dcm.o [12]
      .rodata             const             0x2'93c4       0x8  Dcm.o [12]
      .rodata             const             0x2'93cc       0x8  Dcm.o [12]
      .rodata             const             0x2'93d4       0x8  Dcm.o [12]
      .rodata             const             0x2'93dc      0x38  Dcm.o [12]
      .rodata             const             0x2'9414      0x10  Dcm.o [12]
      .rodata             const             0x2'9424      0x1c  Dcm.o [12]
      .rodata             const             0x2'9440       0x8  Dcm.o [12]
      .rodata             const             0x2'9448       0xc  Dcm_Lcfg.o [2]
      .rodata             const             0x2'9454       0x4  Dcm_Lcfg.o [2]
      .rodata             const             0x2'9458       0x4  Dcm_Lcfg.o [2]
      .rodata             const             0x2'945c       0x4  Dcm_Lcfg.o [2]
      .rodata             const             0x2'9460       0x4  Dcm_Lcfg.o [2]
      .rodata             const             0x2'9464       0x4  Dcm_Lcfg.o [2]
      .rodata             const             0x2'9468       0x8  Dcm_Lcfg.o [2]
      .rodata             const             0x2'9470       0x4  Dcm_Lcfg.o [2]
      .rodata             const             0x2'9474       0x8  Dcm_Lcfg.o [2]
      .rodata             const             0x2'947c       0xc  Dcm_Lcfg.o [2]
      .rodata             const             0x2'9488       0x4  Dcm_Lcfg.o [2]
      .rodata             const             0x2'948c      0x14  Dcm_Lcfg.o [2]
      .rodata             const             0x2'94a0       0x4  Dcm_Lcfg.o [2]
      .rodata             const             0x2'94a4       0x8  Dcm_Lcfg.o [2]
      .rodata             const             0x2'94ac       0x8  Dcm_Lcfg.o [2]
      .rodata             const             0x2'94b4       0x4  Dcm_Lcfg.o [2]
      .rodata             const             0x2'94b8      0x24  Dcm_Lcfg.o [2]
      .rodata             const             0x2'94dc       0x8  Dcm_Lcfg.o [2]
      .rodata             const             0x2'94e4      0x78  Dcm_Lcfg.o [2]
      .rodata             const             0x2'955c       0xc  Dcm_Lcfg.o [2]
      .rodata             const             0x2'9568      0x20  Dcm_Lcfg.o [2]
      .rodata             const             0x2'9588       0xc  Dcm_Lcfg.o [2]
      .rodata             const             0x2'9594       0x4  Dcm_Lcfg.o [2]
      .rodata             const             0x2'9598       0xc  Dcm_Lcfg.o [2]
      .rodata             const             0x2'95a4       0x4  Dcm_Lcfg.o [2]
      .rodata             const             0x2'95a8       0x4  Dcm_Lcfg.o [2]
      .rodata             const             0x2'95ac      0x18  Dcm_Lcfg.o [2]
      .rodata             const             0x2'95c4       0x4  Dcm_Lcfg.o [2]
      .rodata             const             0x2'95c8      0x10  Dcm_Lcfg.o [2]
      .rodata             const             0x2'95d8       0xc  Dcm_Lcfg.o [2]
      .rodata             const             0x2'95e4      0x10  Dcm_Lcfg.o [2]
      .rodata             const             0x2'95f4      0x10  Dem.o [13]
      .rodata             const             0x2'9604      0x28  Dem.o [13]
      .rodata             const             0x2'962c      0x28  Dem.o [13]
      .rodata             const             0x2'9654      0x28  Dem.o [13]
      .rodata             const             0x2'967c      0x28  Dem.o [13]
      .rodata             const             0x2'96a4       0x8  Dem.o [13]
      .rodata             const             0x2'96ac      0x10  Dem_Lcfg.o [2]
      .rodata             const             0x2'96bc      0x18  Dem_Lcfg.o [2]
      .rodata             const             0x2'96d4       0xc  Dem_Lcfg.o [2]
      .rodata             const             0x2'96e0      0x10  Dem_Lcfg.o [2]
      .rodata             const             0x2'96f0       0x8  Dem_Lcfg.o [2]
      .rodata             const             0x2'96f8       0xc  Dem_Lcfg.o [2]
      .rodata             const             0x2'9704      0x24  Dem_Lcfg.o [2]
      .rodata             const             0x2'9728      0x14  Dem_Lcfg.o [2]
      .rodata             const             0x2'973c       0x4  EcuM_Cfg.o [2]
      .rodata             const             0x2'9740       0x8  EcuM_Cfg.o [2]
      .rodata             const             0x2'9748       0x8  Mcu_PBcfg.o [3]
      .rodata             const             0x2'9750       0xc  Mcu_PBcfg.o [3]
      .rodata             const             0x2'975c      0x18  Mcu_PBcfg.o [3]
      .rodata             const             0x2'9774      0x18  Mcu_PBcfg.o [3]
      .rodata             const             0x2'978c      0x18  Mcu_PBcfg.o [3]
      .rodata             const             0x2'97a4      0x18  Mcu_PBcfg.o [3]
      .rodata             const             0x2'97bc      0x20  Mcu_PBcfg.o [3]
      .rodata             const             0x2'97dc     0x100  Mcu_PBcfg.o [3]
      .rodata             const             0x2'98dc       0x8  Mcu_PBcfg.o [3]
      .rodata             const             0x2'98e4      0x14  Mcu_PBcfg.o [3]
      .rodata             const             0x2'98f8       0x8  Mcu_PBcfg.o [3]
      .rodata             const             0x2'9900      0x1c  Mcu_PBcfg.o [3]
      .rodata             const             0x2'991c       0x4  Mcu_PBcfg.o [3]
      .rodata             const             0x2'9920       0x4  Mcu_PBcfg.o [3]
      .rodata             const             0x2'9924      0x10  Mcu_PBcfg.o [3]
      .rodata             const             0x2'9934      0x18  Mcu_PBcfg.o [3]
      .rodata             const             0x2'994c      0x10  Os_Scheduler.o [17]
      .rodata             const             0x2'995c      0x10  Os_ServiceFunction.o [17]
      .rodata             const             0x2'996c       0x8  PduR_Lcfg.o [2]
      .rodata             const             0x2'9974      0xa0  PduR_Lcfg.o [2]
      .rodata             const             0x2'9a14      0x14  PduR_Lcfg.o [2]
      .rodata             const             0x2'9a28      0x20  PduR_Lcfg.o [2]
      .rodata             const             0x2'9a48      0x18  PduR_Lcfg.o [2]
      .rodata             const             0x2'9a60       0x8  PduR_Lcfg.o [2]
      .rodata             const             0x2'9a68       0x4  PduR_Lcfg.o [2]
      .rodata             const             0x2'9a6c      0x9c  Port_PBcfg.o [3]
      .rodata             const             0x2'9b08       0x8  Port_PBcfg.o [3]
      .rodata             const             0x2'9b10      0xb0  Port_PBcfg.o [3]
      .rodata             const             0x2'9bc0      0x18  Port_PBcfg.o [3]
      .rodata             const             0x2'9bd8      0x34  Spi_LPspi.o [24]
      .rodata             const             0x2'9c0c       0xc  Spi_PBcfg.o [3]
      .rodata             const             0x2'9c18      0x30  Spi_PBcfg.o [3]
      .rodata             const             0x2'9c48      0x10  Spi_PBcfg.o [3]
      .rodata             const             0x2'9c58       0xc  Spi_PBcfg.o [3]
      .rodata             const             0x2'9c64       0xc  Spi_PBcfg.o [3]
      .rodata             const             0x2'9c70       0x8  Spi_PBcfg.o [3]
      .rodata             const             0x2'9c78       0x8  Spi_PBcfg.o [3]
      .rodata             const             0x2'9c80      0x1c  Spi_PBcfg.o [3]
      .rodata             const             0x2'9c9c       0x4  startup.o [20]
      .rodata             const             0x2'9ca0       0x2  Can_Lcfg.o [2]
      .rodata             const             0x2'9ca2       0x2  Can_Lcfg.o [2]
      .rodata             const             0x2'9ca4       0x2  Can_Lcfg.o [2]
      .rodata             const             0x2'9ca6       0x2  Can_Lcfg.o [2]
      .rodata             const             0x2'9ca8       0x2  Can_Lcfg.o [2]
      .rodata             const             0x2'9caa       0x2  CanIf_Lcfg.o [2]
      .rodata             const             0x2'9cac       0x2  CanTp_Lcfg.o [2]
      .rodata             const             0x2'9cae       0x2  CanTp_Lcfg.o [2]
      .rodata             const             0x2'9cb0       0x2  Com_Lcfg.o [2]
      .rodata             const             0x2'9cb2       0x2  Dcm.o [12]
      .rodata             const             0x2'9cb4       0x2  Dcm.o [12]
      .rodata             const             0x2'9cb6       0x2  Dcm_Lcfg.o [2]
      .rodata             const             0x2'9cb8       0x2  Dcm_Lcfg.o [2]
      .rodata             const             0x2'9cba       0x2  Dcm_Lcfg.o [2]
      .rodata             const             0x2'9cbc       0x2  Dcm_Lcfg.o [2]
      .rodata             const             0x2'9cbe       0x2  Dcm_Lcfg.o [2]
      .rodata             const             0x2'9cc0       0x2  PduR_Lcfg.o [2]
      .rodata             const             0x2'9cc2       0x2  Spi_PBcfg.o [3]
      .rodata             const             0x2'9cc4       0x1  CanIf_Lcfg.o [2]
      .rodata             const             0x2'9cc5       0x1  Com_Lcfg.o [2]
      .rodata             const             0x2'9cc6       0x1  Com_Lcfg.o [2]
      .rodata             const             0x2'9cc7       0x1  Com_Lcfg.o [2]
      .rodata             const             0x2'9cc8       0x1  Com_Lcfg.o [2]
      .rodata             const             0x2'9cc9       0x1  ComM_Lcfg.o [2]
      .rodata             const             0x2'9cca       0x1  Dcm.o [12]
      .rodata             const             0x2'9ccb       0x1  Dcm_Lcfg.o [2]
      .rodata             const             0x2'9ccc       0x1  Dcm_Lcfg.o [2]
      .rodata             const             0x2'9ccd       0x1  Dcm_Lcfg.o [2]
      .rodata             const             0x2'9cce       0x1  Dcm_Lcfg.o [2]
      .rodata             const             0x2'9ccf       0x1  Dcm_Lcfg.o [2]
      .rodata             const             0x2'9cd0       0x1  Spi_PBcfg.o [3]
    DEFAULT_INTVEC_BLOCK                    0x2'9cd8     0x400  <Block>
      .intvec             ro code           0x2'9cd8     0x400  startup_S32K148.o [20]
    Const_Default_LIMIT_SEC
                          uninit            0x2'a0d8       0x0  <internal module>
                                          - 0x2'a0d8    0x1044

"INTERNAL_RAM__OS_STACKS_CORE0_NOINIT":                 0x2800
  OS_STACKS_CORE0_NOINIT                 0x1fff'8000    0x2800  <Block>
    OS_STACKS_CORE0_NOINIT_START_SEC
                          uninit         0x1fff'8000       0x0  <internal module>
    OS_STACK_OSCORE0_ERROR_VAR_NOINIT_BLOCK
                                         0x1fff'8000     0x400  <Block>
      .OS_STACK_OSCORE0_ERROR_VAR_NOINIT
                          uninit         0x1fff'8000     0x400  Os_Stack_Lcfg.o [2]
    OS_STACK_OSCORE0_INIT_VAR_NOINIT_BLOCK
                                         0x1fff'8400     0x800  <Block>
      .OS_STACK_OSCORE0_INIT_VAR_NOINIT
                          uninit         0x1fff'8400     0x800  Os_Stack_Lcfg.o [2]
    OS_STACK_OSCORE0_ISR_CORE_VAR_NOINIT_BLOCK
                                         0x1fff'8c00     0x400  <Block>
      .OS_STACK_OSCORE0_ISR_CORE_VAR_NOINIT
                          uninit         0x1fff'8c00     0x400  Os_Stack_Lcfg.o [2]
    OS_STACK_OSCORE0_KERNEL_VAR_NOINIT_BLOCK
                                         0x1fff'9000     0x800  <Block>
      .OS_STACK_OSCORE0_KERNEL_VAR_NOINIT
                          uninit         0x1fff'9000     0x800  Os_Stack_Lcfg.o [2]
    OS_STACK_OSCORE0_TASK_PRIO4294967295_VAR_NOINIT_BLOCK
                                         0x1fff'9800     0x400  <Block>
      .OS_STACK_OSCORE0_TASK_PRIO4294967295_VAR_NOINIT
                          uninit         0x1fff'9800     0x400  Os_Stack_Lcfg.o [2]
    OS_STACK_OSCORE0_TASK_PRIO100_VAR_NOINIT_BLOCK
                                         0x1fff'9c00     0x400  <Block>
      .OS_STACK_OSCORE0_TASK_PRIO100_VAR_NOINIT
                          uninit         0x1fff'9c00     0x400  Os_Stack_Lcfg.o [2]
    OS_STACK_OSTASK_APP_VAR_NOINIT_BLOCK
                                         0x1fff'a000     0x400  <Block>
      .OS_STACK_OSTASK_APP_VAR_NOINIT
                          uninit         0x1fff'a000     0x400  Os_Stack_Lcfg.o [2]
    OS_STACK_OSTASK_BSW_SCHM_VAR_NOINIT_BLOCK
                                         0x1fff'a400     0x400  <Block>
      .OS_STACK_OSTASK_BSW_SCHM_VAR_NOINIT
                          uninit         0x1fff'a400     0x400  Os_Stack_Lcfg.o [2]
    OS_STACKS_CORE0_NOINIT_LIMIT_SEC
                          uninit         0x1fff'a800       0x0  <internal module>
                                       - 0x1fff'a800    0x2800

"INTERNAL_RAM__OS_SystemApplication_OsCore0_NOINIT":       0x0
  OS_SystemApplication_OsCore0_NOINIT
                                         0x1fff'a800       0x0  <Block>
    OS_SystemApplication_OsCore0_NOINIT_START_SEC
                          uninit         0x1fff'a800       0x0  <internal module>
    OS_SystemApplication_OsCore0_NOINIT_LIMIT_SEC
                          uninit         0x1fff'a800       0x0  <internal module>

"INTERNAL_RAM__Startup_Stack":                           0x800
  Startup_Stack                          0x1fff'a800     0x800  <Block>
    Startup_Stack_START_SEC
                          uninit         0x1fff'a800       0x0  <internal module>
    CSTACK                               0x1fff'a800     0x800  <Block>
      CSTACK              uninit         0x1fff'a800     0x800  <Block tail>
    Startup_Stack_LIMIT_SEC
                          uninit         0x1fff'b000       0x0  <internal module>
                                       - 0x1fff'b000     0x800

"INTERNAL_RAM__OS_DATA_CORE0_NOINIT":                    0x6d9
  OS_DATA_CORE0_NOINIT                   0x1fff'b000     0x6d9  <Block>
    OS_DATA_CORE0_NOINIT_START_SEC
                          uninit         0x1fff'b000       0x0  <internal module>
    OS_CORE0_VAR_FAST_NOINIT_BLOCK
                                         0x1fff'b000       0x4  <Block>
      .OS_CORE0_VAR_FAST_NOINIT
                          uninit         0x1fff'b000       0x4  Os_Hal_Core_Lcfg.o [2]
    OS_CORE0_VAR_NOINIT_BLOCK
                                         0x1fff'b008     0x6d1  <Block>
      .OS_CORE0_VAR_NOINIT
                          uninit         0x1fff'b008      0x90  Os_Core_Lcfg.o [2]
      .OS_CORE0_VAR_NOINIT
                          uninit         0x1fff'b098      0x38  Os_Task_Lcfg.o [2]
      .OS_CORE0_VAR_NOINIT
                          uninit         0x1fff'b0d0      0x38  Os_Task_Lcfg.o [2]
      .OS_CORE0_VAR_NOINIT
                          uninit         0x1fff'b108      0x38  Os_Task_Lcfg.o [2]
      .OS_CORE0_VAR_NOINIT
                          uninit         0x1fff'b140      0x38  Os_Task_Lcfg.o [2]
      .OS_CORE0_VAR_NOINIT
                          uninit         0x1fff'b178       0xc  Os_Alarm_Lcfg.o [2]
      .OS_CORE0_VAR_NOINIT
                          uninit         0x1fff'b184       0xc  Os_Alarm_Lcfg.o [2]
      .OS_CORE0_VAR_NOINIT
                          uninit         0x1fff'b190       0xc  Os_Alarm_Lcfg.o [2]
      .OS_CORE0_VAR_NOINIT
                          uninit         0x1fff'b19c       0xc  Os_Alarm_Lcfg.o [2]
      .OS_CORE0_VAR_NOINIT
                          uninit         0x1fff'b1a8       0xc  Os_Alarm_Lcfg.o [2]
      .OS_CORE0_VAR_NOINIT
                          uninit         0x1fff'b1b4       0x4  Os_Core_Lcfg.o [2]
      .OS_CORE0_VAR_NOINIT
                          uninit         0x1fff'b1b8       0x8  Os_Counter_Lcfg.o [2]
      .OS_CORE0_VAR_NOINIT
                          uninit         0x1fff'b1c0       0x4  Os_Counter_Lcfg.o [2]
      .OS_CORE0_VAR_NOINIT
                          uninit         0x1fff'b1c4      0x18  Os_Counter_Lcfg.o [2]
      .OS_CORE0_VAR_NOINIT
                          uninit         0x1fff'b1dc      0x5c  Os_Hal_Context_Lcfg.o [2]
      .OS_CORE0_VAR_NOINIT
                          uninit         0x1fff'b238      0x5c  Os_Hal_Context_Lcfg.o [2]
      .OS_CORE0_VAR_NOINIT
                          uninit         0x1fff'b294      0x5c  Os_Hal_Context_Lcfg.o [2]
      .OS_CORE0_VAR_NOINIT
                          uninit         0x1fff'b2f0      0x5c  Os_Hal_Context_Lcfg.o [2]
      .OS_CORE0_VAR_NOINIT
                          uninit         0x1fff'b34c      0x5c  Os_Hal_Context_Lcfg.o [2]
      .OS_CORE0_VAR_NOINIT
                          uninit         0x1fff'b3a8      0x5c  Os_Hal_Context_Lcfg.o [2]
      .OS_CORE0_VAR_NOINIT
                          uninit         0x1fff'b404      0x5c  Os_Hal_Context_Lcfg.o [2]
      .OS_CORE0_VAR_NOINIT
                          uninit         0x1fff'b460      0x5c  Os_Hal_Context_Lcfg.o [2]
      .OS_CORE0_VAR_NOINIT
                          uninit         0x1fff'b4bc      0x5c  Os_Hal_Context_Lcfg.o [2]
      .OS_CORE0_VAR_NOINIT
                          uninit         0x1fff'b518      0x5c  Os_Hal_Context_Lcfg.o [2]
      .OS_CORE0_VAR_NOINIT
                          uninit         0x1fff'b574       0x4  Os_Hal_Context_Lcfg.o [2]
      .OS_CORE0_VAR_NOINIT
                          uninit         0x1fff'b578      0x44  Os_Hook_Lcfg.o [2]
      .OS_CORE0_VAR_NOINIT
                          uninit         0x1fff'b5bc      0x44  Os_Hook_Lcfg.o [2]
      .OS_CORE0_VAR_NOINIT
                          uninit         0x1fff'b600      0x1c  Os_Isr_Lcfg.o [2]
      .OS_CORE0_VAR_NOINIT
                          uninit         0x1fff'b61c      0x1c  Os_Isr_Lcfg.o [2]
      .OS_CORE0_VAR_NOINIT
                          uninit         0x1fff'b638      0x1c  Os_Isr_Lcfg.o [2]
      .OS_CORE0_VAR_NOINIT
                          uninit         0x1fff'b654      0x1c  Os_Isr_Lcfg.o [2]
      .OS_CORE0_VAR_NOINIT
                          uninit         0x1fff'b670       0x8  Os_Resource_Lcfg.o [2]
      .OS_CORE0_VAR_NOINIT
                          uninit         0x1fff'b678      0x10  Os_Scheduler_Lcfg.o [2]
      .OS_CORE0_VAR_NOINIT
                          uninit         0x1fff'b688       0x4  Os_Scheduler_Lcfg.o [2]
      .OS_CORE0_VAR_NOINIT
                          uninit         0x1fff'b68c       0x4  Os_Scheduler_Lcfg.o [2]
      .OS_CORE0_VAR_NOINIT
                          uninit         0x1fff'b690       0x8  Os_Scheduler_Lcfg.o [2]
      .OS_CORE0_VAR_NOINIT
                          uninit         0x1fff'b698       0xc  Os_Scheduler_Lcfg.o [2]
      .OS_CORE0_VAR_NOINIT
                          uninit         0x1fff'b6a4       0x8  Os_Scheduler_Lcfg.o [2]
      .OS_CORE0_VAR_NOINIT
                          uninit         0x1fff'b6ac       0x8  Os_Scheduler_Lcfg.o [2]
      .OS_CORE0_VAR_NOINIT
                          uninit         0x1fff'b6b4       0x8  Os_Scheduler_Lcfg.o [2]
      .OS_CORE0_VAR_NOINIT
                          uninit         0x1fff'b6bc       0xc  Os_Scheduler_Lcfg.o [2]
      .OS_CORE0_VAR_NOINIT
                          uninit         0x1fff'b6c8       0x8  Os_Scheduler_Lcfg.o [2]
      .OS_CORE0_VAR_NOINIT
                          uninit         0x1fff'b6d0       0x8  Os_Scheduler_Lcfg.o [2]
      .OS_CORE0_VAR_NOINIT
                          uninit         0x1fff'b6d8       0x1  Os_Application_Lcfg.o [2]
    OS_DATA_CORE0_NOINIT_LIMIT_SEC
                          uninit         0x1fff'b6d9       0x0  <internal module>
                                       - 0x1fff'b6d9     0x6d9

"INTERNAL_RAM__OS_DATA_SHARED_NOINIT":                    0x20
  OS_DATA_SHARED_NOINIT                  0x1fff'b6dc      0x20  <Block>
    OS_DATA_SHARED_NOINIT_START_SEC
                          uninit         0x1fff'b6dc       0x0  <internal module>
    OS_BARRIER_CORE0_VAR_NOCACHE_NOINIT_BLOCK
                                         0x1fff'b6e0       0x8  <Block>
      .OS_BARRIER_CORE0_VAR_NOCACHE_NOINIT
                          uninit         0x1fff'b6e0       0x8  Os_Barrier_Lcfg.o [2]
    OS_CORESTATUS_CORE0_VAR_NOCACHE_NOINIT_BLOCK
                                         0x1fff'b6e8       0x8  <Block>
      .OS_CORESTATUS_CORE0_VAR_NOCACHE_NOINIT
                          uninit         0x1fff'b6e8       0x8  Os_Core_Lcfg.o [2]
    OS_VAR_NOCACHE_NOINIT_BLOCK
                                         0x1fff'b6f0       0xc  <Block>
      .OS_VAR_NOCACHE_NOINIT
                          uninit         0x1fff'b6f0       0xc  Os_Core_Lcfg.o [2]
    OS_DATA_SHARED_NOINIT_LIMIT_SEC
                          uninit         0x1fff'b6fc       0x0  <internal module>
                                       - 0x1fff'b6fc      0x20

"INTERNAL_RAM__OS_DATA_SHARED_INIT":                       0x0
  OS_DATA_SHARED_INIT                    0x1fff'b6fc       0x0  <Block>
    OS_DATA_SHARED_INIT_START_SEC
                          uninit         0x1fff'b6fc       0x0  <internal module>
    OS_DATA_SHARED_INIT_LIMIT_SEC
                          uninit         0x1fff'b6fc       0x0  <internal module>

"INTERNAL_RAM__OS_DATA_SHARED_ZERO_INIT":                  0x0
  OS_DATA_SHARED_ZERO_INIT
                                         0x1fff'b6fc       0x0  <Block>
    OS_DATA_SHARED_ZERO_INIT_START_SEC
                          uninit         0x1fff'b6fc       0x0  <internal module>
    OS_DATA_SHARED_ZERO_INIT_LIMIT_SEC
                          uninit         0x1fff'b6fc       0x0  <internal module>

"INTERNAL_RAM__Data_Default":                            0x4d0
  Data_Default                           0x1fff'b6fc     0x4d0  <Block>
    Data_Default_START_SEC
                          uninit         0x1fff'b6fc       0x0  <internal module>
    DEFAULT_BSS_BLOCK                    0x1fff'b700     0x4cc  <Block>
      .bss                               0x1fff'b700     0x4cc  <Block>
        .bss              uninit         0x1fff'b700      0x14  BswM_Lcfg.o [2]
        .bss              uninit         0x1fff'b714       0x8  BswM_Lcfg.o [2]
        .bss              uninit         0x1fff'b71c       0x4  BswM_Lcfg.o [2]
        .bss              uninit         0x1fff'b720      0x10  BswM_Lcfg.o [2]
        .bss              uninit         0x1fff'b730       0x4  BswM_Lcfg.o [2]
        .bss              uninit         0x1fff'b734       0x4  Can_Lcfg.o [2]
        .bss              uninit         0x1fff'b738      0x40  Can_Lcfg.o [2]
        .bss              uninit         0x1fff'b778      0x20  CanIf_Lcfg.o [2]
        .bss              uninit         0x1fff'b798      0x14  CanSM_Lcfg.o [2]
        .bss              uninit         0x1fff'b7ac      0x38  CanTp_Lcfg.o [2]
        .bss              uninit         0x1fff'b7e4      0x1c  CanTp_Lcfg.o [2]
        .bss              uninit         0x1fff'b800       0x4  CddSbc.o [4]
        .bss              uninit         0x1fff'b804       0x4  CddSbc.o [4]
        .bss              uninit         0x1fff'b808       0x4  Com_Lcfg.o [2]
        .bss              uninit         0x1fff'b80c       0xc  Com_Lcfg.o [2]
        .bss              uninit         0x1fff'b818       0x4  Com_Lcfg.o [2]
        .bss              uninit         0x1fff'b81c       0x8  ComM.o [11]
        .bss              uninit         0x1fff'b824       0x4  CtLedTask.o [4]
        .bss              uninit         0x1fff'b828      0xc0  Dcm.o [12]
        .bss              uninit         0x1fff'b8e8      0x40  Dcm.o [12]
        .bss              uninit         0x1fff'b928      0x34  Dcm_Lcfg.o [2]
        .bss              uninit         0x1fff'b95c       0x4  Dem.o [13]
        .bss              uninit         0x1fff'b960       0x4  Dem.o [13]
        .bss              uninit         0x1fff'b964       0x4  Dem.o [13]
        .bss              uninit         0x1fff'b968       0x8  Dem.o [13]
        .bss              uninit         0x1fff'b970       0xc  Dem_Lcfg.o [2]
        .bss              uninit         0x1fff'b97c      0x10  Dem_Lcfg.o [2]
        .bss              uninit         0x1fff'b98c       0xc  Dem_Lcfg.o [2]
        .bss              uninit         0x1fff'b998      0x10  Dem_Lcfg.o [2]
        .bss              uninit         0x1fff'b9a8       0xc  Dem_Lcfg.o [2]
        .bss              uninit         0x1fff'b9b4       0xc  Dem_Lcfg.o [2]
        .bss              uninit         0x1fff'b9c0       0x8  Dem_Lcfg.o [2]
        .bss              uninit         0x1fff'b9c8      0x14  Dem_Lcfg.o [2]
        .bss              uninit         0x1fff'b9dc      0x14  Dem_Lcfg.o [2]
        .bss              uninit         0x1fff'b9f0      0x14  Dem_Lcfg.o [2]
        .bss              uninit         0x1fff'ba04      0x14  Dem_Lcfg.o [2]
        .bss              uninit         0x1fff'ba18      0x14  Dem_Lcfg.o [2]
        .bss              uninit         0x1fff'ba2c      0x14  Dem_Lcfg.o [2]
        .bss              uninit         0x1fff'ba40      0x14  Dem_Lcfg.o [2]
        .bss              uninit         0x1fff'ba54      0x14  Dem_Lcfg.o [2]
        .bss              uninit         0x1fff'ba68      0x3c  Dem_Lcfg.o [2]
        .bss              uninit         0x1fff'baa4       0x4  Dem_Lcfg.o [2]
        .bss              uninit         0x1fff'baa8       0xc  Dem_Lcfg.o [2]
        .bss              uninit         0x1fff'bab4       0xc  Dem_Lcfg.o [2]
        .bss              uninit         0x1fff'bac0       0x4  EcuM.o [15]
        .bss              uninit         0x1fff'bac4       0x4  EcuM.o [15]
        .bss              uninit         0x1fff'bac8       0x4  EcuM.o [15]
        .bss              uninit         0x1fff'bacc       0x4  Mcu.o [22]
        .bss              uninit         0x1fff'bad0       0x4  Mcu_IPW.o [22]
        .bss              uninit         0x1fff'bad4       0x4  Port.o [23]
        .bss              uninit         0x1fff'bad8      0x14  Port_Port_Ci.o [23]
        .bss              uninit         0x1fff'baec       0x4  Rte.o [2]
        .bss              uninit         0x1fff'baf0       0x4  Spi.o [24]
        .bss              uninit         0x1fff'baf4       0x4  Spi.o [24]
        .bss              uninit         0x1fff'baf8       0x4  Spi.o [24]
        .bss              uninit         0x1fff'bafc       0x4  Spi.o [24]
        .bss              uninit         0x1fff'bb00      0x2c  Spi_LPspi.o [24]
        .bss              uninit         0x1fff'bb2c       0x4  Spi_LPspi.o [24]
        .bss              uninit         0x1fff'bb30      0x38  Spi_LPspi.o [24]
        .bss              uninit         0x1fff'bb68       0x8  Spi_PBcfg.o [3]
        .bss              uninit         0x1fff'bb70       0x2  CanIf_Lcfg.o [2]
        .bss              uninit         0x1fff'bb72       0x2  CanTp_Lcfg.o [2]
        .bss              uninit         0x1fff'bb74       0x2  CanTp_Lcfg.o [2]
        .bss              uninit         0x1fff'bb76       0x2  Com_Lcfg.o [2]
        .bss              uninit         0x1fff'bb78       0x2  Com_Lcfg.o [2]
        .bss              uninit         0x1fff'bb7a       0x2  Com_Lcfg.o [2]
        .bss              uninit         0x1fff'bb7c       0x2  Com_Lcfg.o [2]
        .bss              uninit         0x1fff'bb7e       0x2  Com_Lcfg.o [2]
        .bss              uninit         0x1fff'bb80       0x2  Com_Lcfg.o [2]
        .bss              uninit         0x1fff'bb82       0x2  Com_Lcfg.o [2]
        .bss              uninit         0x1fff'bb84       0x2  Com_Lcfg.o [2]
        .bss              uninit         0x1fff'bb86       0x2  Com_Lcfg.o [2]
        .bss              uninit         0x1fff'bb88       0x2  Com_Lcfg.o [2]
        .bss              uninit         0x1fff'bb8a       0x2  Com_Lcfg.o [2]
        .bss              uninit         0x1fff'bb8c       0x2  Dem.o [13]
        .bss              uninit         0x1fff'bb8e       0x2  Dem.o [13]
        .bss              uninit         0x1fff'bb90       0x2  Dem.o [13]
        .bss              uninit         0x1fff'bb92       0x2  Dem_Lcfg.o [2]
        .bss              uninit         0x1fff'bb94       0x2  Dem_Lcfg.o [2]
        .bss              uninit         0x1fff'bb96       0x1  BrsAsrMain.o [1]
        .bss              uninit         0x1fff'bb97       0x1  BswM_Lcfg.o [2]
        .bss              uninit         0x1fff'bb98       0x1  BswM_Lcfg.o [2]
        .bss              uninit         0x1fff'bb99       0x1  BswM_Lcfg.o [2]
        .bss              uninit         0x1fff'bb9a       0x1  BswM_Lcfg.o [2]
        .bss              uninit         0x1fff'bb9b       0x1  BswM_Lcfg.o [2]
        .bss              uninit         0x1fff'bb9c       0x1  BswM_Lcfg.o [2]
        .bss              uninit         0x1fff'bb9d       0x1  BswM_Lcfg.o [2]
        .bss              uninit         0x1fff'bb9e       0x1  BswM_Lcfg.o [2]
        .bss              uninit         0x1fff'bb9f       0x1  BswM_Lcfg.o [2]
        .bss              uninit         0x1fff'bba0       0x1  BswM_Lcfg.o [2]
        .bss              uninit         0x1fff'bba1       0x1  BswM_Lcfg.o [2]
        .bss              uninit         0x1fff'bba2       0x1  BswM_Lcfg.o [2]
        .bss              uninit         0x1fff'bba3       0x1  BswM_Lcfg.o [2]
        .bss              uninit         0x1fff'bba4       0x1  BswM_Lcfg.o [2]
        .bss              uninit         0x1fff'bba5       0x1  BswM_Lcfg.o [2]
        .bss              uninit         0x1fff'bba6       0x1  Can.o [6]
        .bss              uninit         0x1fff'bba7       0x1  Can.o [6]
        .bss              uninit         0x1fff'bba8       0x1  CanIf_Lcfg.o [2]
        .bss              uninit         0x1fff'bba9       0x1  CanSM.o [8]
        .bss              uninit         0x1fff'bbaa       0x1  CanTp.o [9]
        .bss              uninit         0x1fff'bbab       0x1  CddSbc.o [4]
        .bss              uninit         0x1fff'bbac       0x1  Com_Lcfg.o [2]
        .bss              uninit         0x1fff'bbad       0x1  Com_Lcfg.o [2]
        .bss              uninit         0x1fff'bbae       0x1  Com_Lcfg.o [2]
        .bss              uninit         0x1fff'bbaf       0x1  ComM.o [11]
        .bss              uninit         0x1fff'bbb0       0x1  ComM.o [11]
        .bss              uninit         0x1fff'bbb1       0x1  ComM.o [11]
        .bss              uninit         0x1fff'bbb2       0x1  ComM.o [11]
        .bss              uninit         0x1fff'bbb3       0x1  ComM.o [11]
        .bss              uninit         0x1fff'bbb4       0x1  ComM_Lcfg.o [2]
        .bss              uninit         0x1fff'bbb5       0x1  ComM_Lcfg.o [2]
        .bss              uninit         0x1fff'bbb6       0x1  CtLedTask.o [4]
        .bss              uninit         0x1fff'bbb7       0x1  Dcm.o [12]
        .bss              uninit         0x1fff'bbb8       0x1  Dem.o [13]
        .bss              uninit         0x1fff'bbb9       0x1  Dem.o [13]
        .bss              uninit         0x1fff'bbba       0x1  Dem.o [13]
        .bss              uninit         0x1fff'bbbb       0x1  Dem.o [13]
        .bss              uninit         0x1fff'bbbc       0x1  Dem_Lcfg.o [2]
        .bss              uninit         0x1fff'bbbd       0x1  Dem_Lcfg.o [2]
        .bss              uninit         0x1fff'bbbe       0x1  Dem_Lcfg.o [2]
        .bss              uninit         0x1fff'bbbf       0x1  Det.o [14]
        .bss              uninit         0x1fff'bbc0       0x1  EcuM.o [15]
        .bss              uninit         0x1fff'bbc1       0x1  EcuM.o [15]
        .bss              uninit         0x1fff'bbc2       0x1  EcuM.o [15]
        .bss              uninit         0x1fff'bbc3       0x1  EcuM.o [15]
        .bss              uninit         0x1fff'bbc4       0x1  EcuM_Cfg.o [2]
        .bss              uninit         0x1fff'bbc5       0x1  Mcu.o [22]
        .bss              uninit         0x1fff'bbc6       0x1  Mcu.o [22]
        .bss              uninit         0x1fff'bbc7       0x1  PduR_Lcfg.o [2]
        .bss              uninit         0x1fff'bbc8       0x1  Rte.o [2]
        .bss              uninit         0x1fff'bbc9       0x1  Spi.o [24]
        .bss              uninit         0x1fff'bbca       0x1  Spi.o [24]
        .bss              uninit         0x1fff'bbcb       0x1  Spi.o [24]
    Data_Default_LIMIT_SEC
                          uninit         0x1fff'bbcc       0x0  <internal module>
                                       - 0x1fff'bbcc     0x4d0

"INTERNAL_RAM__Data_Default_INIT":                         0x0
  Data_Default_INIT                      0x1fff'bbcc       0x0  <Block>
    Data_Default_INIT_START_SEC
                          uninit         0x1fff'bbcc       0x0  <internal module>
    Data_Default_INIT_LIMIT_SEC
                          uninit         0x1fff'bbcc       0x0  <internal module>

"INTERNAL_RAM__Heap_Default":                              0x0
  Heap_Default                           0x1fff'bbcc       0x0  <Block>
    Heap_Default_START_SEC
                          uninit         0x1fff'bbcc       0x0  <internal module>
    Heap_Default_LIMIT_SEC
                          uninit         0x1fff'bbcc       0x0  <internal module>

Unused ranges:

         From           To      Size
         ----           --      ----
        0x3c0        0x3ff      0x40
     0x2'a0d8     0x8'0000  0x5'5f29
  0x1fff'b6d9  0x1fff'b6db       0x3
  0x1fff'bbcc  0x2000'0000    0x4435



*******************************************************************************
*** MODULE SUMMARY
***

    Module                     ro code  ro data  rw data
    ------                     -------  -------  -------
command line/config:
    <internal module>
    ----------------------------------------------------
    Total:

D:\WebDown\S32K144\S32K144 …\S32K144 AUTOSAR工具包\share_20230823\AUTOSAR_TOOLs\S32K144_SIP\MICROSAR\CBD1800257_D01_S32K1xx\Applications\S32K144_Start_new_IAR\Debug\Obj\Appl: [1]
    BrsAsrMain.o                   164                 1
    ----------------------------------------------------
    Total:                         164                 1

D:\WebDown\S32K144\S32K144 …\S32K144 AUTOSAR工具包\share_20230823\AUTOSAR_TOOLs\S32K144_SIP\MICROSAR\CBD1800257_D01_S32K1xx\Applications\S32K144_Start_new_IAR\Debug\Obj\Appl\GenData: [2]
    BswM_Lcfg.o                  1'672      260       67
    CanIf_Lcfg.o                            119       35
    CanSM_Lcfg.o                                      20
    CanTp_Lcfg.o                             32       88
    Can_Lcfg.o                              158       68
    ComM_Lcfg.o                     40        1        2
    Com_Lcfg.o                               46       45
    Dcm_Lcfg.o                       8      443       52
    Dem_Lcfg.o                              144      343
    EcuM_Cfg.o                               12        1
    Os_AccessCheck_Lcfg.o                     8
    Os_Alarm_Lcfg.o                         264       60
    Os_Application_Lcfg.o                   192        1
    Os_Barrier_Lcfg.o                        24        8
    Os_Core_Lcfg.o                          272      168
    Os_Counter_Lcfg.o                        64       36
    Os_Error_Lcfg.o                          16
    Os_Hal_Context_Lcfg.o                   300      924
    Os_Hal_Core_Lcfg.o                       56        4
    Os_Hal_EntryAsm_Lcfg.o         296
    Os_Hal_Entry_Lcfg.o                     960
    Os_Hal_Interrupt_Lcfg.o                  64
    Os_Hal_Kernel_Lcfg.o                     24
    Os_Hal_Timer_Lcfg.o                       4
    Os_Hook_Lcfg.o                          160      136
    Os_Isr_Lcfg.o                           296      112
    Os_Peripheral_Lcfg.o                      4
    Os_Resource_Lcfg.o                       32        8
    Os_ScheduleTable_Lcfg.o                   4
    Os_Scheduler_Lcfg.o                      72       96
    Os_ServiceFunction_Lcfg.o                12
    Os_Spinlock_Lcfg.o                        4
    Os_Stack_Lcfg.o                          64   10'240
    Os_Task_Lcfg.o                          372      224
    Os_XSignal_Lcfg.o                         1
    PduR_Lcfg.o                    216      258        1
    Rte.o                          524                 5
    ----------------------------------------------------
    Total:                       2'756    4'742   12'744

D:\WebDown\S32K144\S32K144 …\S32K144 AUTOSAR工具包\share_20230823\AUTOSAR_TOOLs\S32K144_SIP\MICROSAR\CBD1800257_D01_S32K1xx\Applications\S32K144_Start_new_IAR\Debug\Obj\Appl\GenData\src: [3]
    Mcu_PBcfg.o                             516
    Port_PBcfg.o                            364
    Spi_PBcfg.o                             147        8
    ----------------------------------------------------
    Total:                                1'027        8

D:\WebDown\S32K144\S32K144 …\S32K144 AUTOSAR工具包\share_20230823\AUTOSAR_TOOLs\S32K144_SIP\MICROSAR\CBD1800257_D01_S32K1xx\Applications\S32K144_Start_new_IAR\Debug\Obj\Appl\Source: [4]
    BswM_Callout_Stubs.o            58
    CddSbc.o                        80                 9
    CtLedTask.o                     52                 5
    Dcm_Callout_Stubs.o             10
    EcuM_Callout_Stubs.o           136
    Os_Callout_Stubs.o              48
    ----------------------------------------------------
    Total:                         384                14

D:\WebDown\S32K144\S32K144 …\S32K144 AUTOSAR工具包\share_20230823\AUTOSAR_TOOLs\S32K144_SIP\MICROSAR\CBD1800257_D01_S32K1xx\Applications\S32K144_Start_new_IAR\Debug\Obj\BSW\BswM: [5]
    BswM.o                       1'584
    ----------------------------------------------------
    Total:                       1'584

D:\WebDown\S32K144\S32K144 …\S32K144 AUTOSAR工具包\share_20230823\AUTOSAR_TOOLs\S32K144_SIP\MICROSAR\CBD1800257_D01_S32K1xx\Applications\S32K144_Start_new_IAR\Debug\Obj\BSW\Can: [6]
    Can.o                        4'312        4        2
    Can_Irq.o                       16
    ----------------------------------------------------
    Total:                       4'328        4        2

D:\WebDown\S32K144\S32K144 …\S32K144 AUTOSAR工具包\share_20230823\AUTOSAR_TOOLs\S32K144_SIP\MICROSAR\CBD1800257_D01_S32K1xx\Applications\S32K144_Start_new_IAR\Debug\Obj\BSW\CanIf: [7]
    CanIf.o                      2'836       44
    ----------------------------------------------------
    Total:                       2'836       44

D:\WebDown\S32K144\S32K144 …\S32K144 AUTOSAR工具包\share_20230823\AUTOSAR_TOOLs\S32K144_SIP\MICROSAR\CBD1800257_D01_S32K1xx\Applications\S32K144_Start_new_IAR\Debug\Obj\BSW\CanSM: [8]
    CanSM.o                      1'772                 1
    ----------------------------------------------------
    Total:                       1'772                 1

D:\WebDown\S32K144\S32K144 …\S32K144 AUTOSAR工具包\share_20230823\AUTOSAR_TOOLs\S32K144_SIP\MICROSAR\CBD1800257_D01_S32K1xx\Applications\S32K144_Start_new_IAR\Debug\Obj\BSW\CanTP: [9]
    CanTp.o                      5'508                 1
    ----------------------------------------------------
    Total:                       5'508                 1

D:\WebDown\S32K144\S32K144 …\S32K144 AUTOSAR工具包\share_20230823\AUTOSAR_TOOLs\S32K144_SIP\MICROSAR\CBD1800257_D01_S32K1xx\Applications\S32K144_Start_new_IAR\Debug\Obj\BSW\Com: [10]
    Com.o                        2'736
    ----------------------------------------------------
    Total:                       2'736

D:\WebDown\S32K144\S32K144 …\S32K144 AUTOSAR工具包\share_20230823\AUTOSAR_TOOLs\S32K144_SIP\MICROSAR\CBD1800257_D01_S32K1xx\Applications\S32K144_Start_new_IAR\Debug\Obj\BSW\ComM: [11]
    ComM.o                       1'464      128       13
    ----------------------------------------------------
    Total:                       1'464      128       13

D:\WebDown\S32K144\S32K144 …\S32K144 AUTOSAR工具包\share_20230823\AUTOSAR_TOOLs\S32K144_SIP\MICROSAR\CBD1800257_D01_S32K1xx\Applications\S32K144_Start_new_IAR\Debug\Obj\BSW\Dcm: [12]
    Dcm.o                       15'428      181      257
    ----------------------------------------------------
    Total:                      15'428      181      257

D:\WebDown\S32K144\S32K144 …\S32K144 AUTOSAR工具包\share_20230823\AUTOSAR_TOOLs\S32K144_SIP\MICROSAR\CBD1800257_D01_S32K1xx\Applications\S32K144_Start_new_IAR\Debug\Obj\BSW\Dem: [13]
    Dem.o                       30'074      184       30
    ----------------------------------------------------
    Total:                      30'074      184       30

D:\WebDown\S32K144\S32K144 …\S32K144 AUTOSAR工具包\share_20230823\AUTOSAR_TOOLs\S32K144_SIP\MICROSAR\CBD1800257_D01_S32K1xx\Applications\S32K144_Start_new_IAR\Debug\Obj\BSW\Det: [14]
    Det.o                           40                 1
    ----------------------------------------------------
    Total:                          40                 1

D:\WebDown\S32K144\S32K144 …\S32K144 AUTOSAR工具包\share_20230823\AUTOSAR_TOOLs\S32K144_SIP\MICROSAR\CBD1800257_D01_S32K1xx\Applications\S32K144_Start_new_IAR\Debug\Obj\BSW\EcuM: [15]
    EcuM.o                         624                16
    ----------------------------------------------------
    Total:                         624                16

D:\WebDown\S32K144\S32K144 …\S32K144 AUTOSAR工具包\share_20230823\AUTOSAR_TOOLs\S32K144_SIP\MICROSAR\CBD1800257_D01_S32K1xx\Applications\S32K144_Start_new_IAR\Debug\Obj\BSW\Nm: [16]
    ----------------------------------------------------
    Total:

D:\WebDown\S32K144\S32K144 …\S32K144 AUTOSAR工具包\share_20230823\AUTOSAR_TOOLs\S32K144_SIP\MICROSAR\CBD1800257_D01_S32K1xx\Applications\S32K144_Start_new_IAR\Debug\Obj\BSW\Os: [17]
    Os_AccessCheck.o               386
    Os_Alarm.o                   2'436
    Os_Application.o             5'008
    Os_Barrier.o                   876
    Os_Core.o                    3'978
    Os_Counter.o                 4'820
    Os_Error.o                   1'722
    Os_Event.o                   4'900
    Os_Hal_Compiler_Iar.o           18
    Os_Hal_ContextAsm.o            472
    Os_Hal_Context_v7m.o           374
    Os_Hal_Core.o                  132
    Os_Hook.o                    4'702
    Os_Interrupt.o               2'944
    Os_Ioc.o                     5'952
    Os_Isr.o                     5'850
    Os_MemoryProtection.o          364
    Os_Peripheral.o                692
    Os_PriorityQueue.o             640
    Os_Resource.o                4'544
    Os_ScheduleTable.o           4'040
    Os_Scheduler.o               1'840       16
    Os_ServiceFunction.o         3'358       16
    Os_Spinlock.o                4'418
    Os_Stack.o                   2'134
    Os_Task.o                    6'764
    Os_Thread.o                  2'100
    Os_Timer.o                     912
    Os_TimingProtection.o          848
    Os_Trap.o                    7'734
    Os_XSignal.o                 1'476
    ----------------------------------------------------
    Total:                      86'434       32

D:\WebDown\S32K144\S32K144 …\S32K144 AUTOSAR工具包\share_20230823\AUTOSAR_TOOLs\S32K144_SIP\MICROSAR\CBD1800257_D01_S32K1xx\Applications\S32K144_Start_new_IAR\Debug\Obj\BSW\PduR: [18]
    PduR.o                         948
    PduR_Lock.o                    176
    PduR_RmIf.o                    392
    PduR_RmTp.o                    444
    ----------------------------------------------------
    Total:                       1'960

D:\WebDown\S32K144\S32K144 …\S32K144 AUTOSAR工具包\share_20230823\AUTOSAR_TOOLs\S32K144_SIP\MICROSAR\CBD1800257_D01_S32K1xx\Applications\S32K144_Start_new_IAR\Debug\Obj\BSW\VstdLib: [19]
    vstdlib.o                    1'444
    ----------------------------------------------------
    Total:                       1'444

D:\WebDown\S32K144\S32K144 …\S32K144 AUTOSAR工具包\share_20230823\AUTOSAR_TOOLs\S32K144_SIP\MICROSAR\CBD1800257_D01_S32K1xx\Applications\S32K144_Start_new_IAR\Debug\Obj\Device: [20]
    startup.o                      180        4
    startup_S32K148.o            1'122
    system_S32K148.o                72
    ----------------------------------------------------
    Total:                       1'374        4

D:\WebDown\S32K144\S32K144 …\S32K144 AUTOSAR工具包\share_20230823\AUTOSAR_TOOLs\S32K144_SIP\MICROSAR\CBD1800257_D01_S32K1xx\Applications\S32K144_Start_new_IAR\Debug\Obj\MCAL\DIO: [21]
    Dio.o                           12
    Dio_Gpio.o                      68
    ----------------------------------------------------
    Total:                          80

D:\WebDown\S32K144\S32K144 …\S32K144 AUTOSAR工具包\share_20230823\AUTOSAR_TOOLs\S32K144_SIP\MICROSAR\CBD1800257_D01_S32K1xx\Applications\S32K144_Start_new_IAR\Debug\Obj\MCAL\MCU: [22]
    Mcu.o                          140                 6
    Mcu_IPW.o                      208                 4
    Mcu_PCC.o                      104
    Mcu_PMC.o                       52
    Mcu_RCM.o                       36
    Mcu_SCG.o                      436
    Mcu_SIM.o                      184
    Mcu_SMC.o                       16
    ----------------------------------------------------
    Total:                       1'176                10

D:\WebDown\S32K144\S32K144 …\S32K144 AUTOSAR工具包\share_20230823\AUTOSAR_TOOLs\S32K144_SIP\MICROSAR\CBD1800257_D01_S32K1xx\Applications\S32K144_Start_new_IAR\Debug\Obj\MCAL\PORT: [23]
    Port.o                          40                 4
    Port_Port_Ci.o                 728                20
    ----------------------------------------------------
    Total:                         768                24

D:\WebDown\S32K144\S32K144 …\S32K144 AUTOSAR工具包\share_20230823\AUTOSAR_TOOLs\S32K144_SIP\MICROSAR\CBD1800257_D01_S32K1xx\Applications\S32K144_Start_new_IAR\Debug\Obj\MCAL\SPI: [24]
    Spi.o                          928                19
    Spi_LPspi.o                  1'340       52      104
    ----------------------------------------------------
    Total:                       2'268       52      123

dl7M_tln.a: [25]
    exit.o                           4
    low_level_init.o                 4
    ----------------------------------------------------
    Total:                           8

m7M_tls.a: [26]
    fpinit_M.o                      34
    ----------------------------------------------------
    Total:                          34

rt7M_tl.a: [27]
    ABImemcpy.o                    166
    cexit.o                         10
    cmain.o                         30
    cstartup_M.o                    28
    ----------------------------------------------------
    Total:                         234

shb_l.a: [28]
    exit.o                          20
    ----------------------------------------------------
    Total:                          20

    Gaps                            22
    Linker created                                 2'048
--------------------------------------------------------
    Grand Total:               165'520    6'398   15'293


*******************************************************************************
*** ENTRY LIST
***

Entry                       Address   Size  Type      Object
-----                       -------   ----  ----      ------
.bss$$Base              0x1fff'b700          --   Gb  - Linker created -
.bss$$Limit             0x1fff'bbcc          --   Gb  - Linker created -
.data$$Base                     0x0          --   Gb  - Linker created -
.data_init$$Base                0x0          --   Gb  - Linker created -
.data_init$$Limit               0x0          --   Gb  - Linker created -
?main                      0x1'3531         Code  Gb  cmain.o [27]
ADC0_IRQHandler            0x1'35d1         Code  Wk  startup_S32K148.o [20]
ADC1_IRQHandler            0x1'35d1         Code  Wk  startup_S32K148.o [20]
ActivateTask               0x1'd511   0x4a  Code  Gb  Os_Trap.o [17]
ApplCanTimerLoop              0x93d   0x5a  Code  Lc  Can.o [6]
BrsAsrApplCanInterruptLockCtr
                        0x1fff'bb96    0x1  Data  Lc  BrsAsrMain.o [1]
BswM_AL_SetProgrammableInterrupts
                           0x1'2f41    0x2  Code  Gb  BswM_Callout_Stubs.o [4]
BswM_ActionListQueue    0x1fff'b700   0x14  Data  Gb  BswM_Lcfg.o [2]
BswM_ActionList_CC_AL_CN_CAN00_5e566ad9_Disable_DM
                           0x1'1739   0x1e  Code  Lc  BswM_Lcfg.o [2]
BswM_ActionList_CC_AL_CN_CAN00_5e566ad9_Enable_DM
                           0x1'1757   0x1e  Code  Lc  BswM_Lcfg.o [2]
BswM_ActionList_CC_AL_CN_CAN00_5e566ad9_RX_Disable
                           0x1'1691   0x2a  Code  Lc  BswM_Lcfg.o [2]
BswM_ActionList_CC_AL_CN_CAN00_5e566ad9_RX_EnableNoinit
                           0x1'16bb   0x2a  Code  Lc  BswM_Lcfg.o [2]
BswM_ActionList_CC_AL_CN_CAN00_5e566ad9_TX_Disable
                           0x1'16e5   0x2a  Code  Lc  BswM_Lcfg.o [2]
BswM_ActionList_CC_AL_CN_CAN00_5e566ad9_TX_EnableNoinit
                           0x1'170f   0x2a  Code  Lc  BswM_Lcfg.o [2]
BswM_ActionList_ESH_AL_DemInit
                           0x1'186b   0x14  Code  Lc  BswM_Lcfg.o [2]
BswM_ActionList_ESH_AL_ESH_PostRunToPrepCheck
                           0x1'18a3    0xc  Code  Lc  BswM_Lcfg.o [2]
BswM_ActionList_ESH_AL_ExitPostRun
                           0x1'18d7   0x18  Code  Lc  BswM_Lcfg.o [2]
BswM_ActionList_ESH_AL_ExitRun
                           0x1'17b7   0x18  Code  Lc  BswM_Lcfg.o [2]
BswM_ActionList_ESH_AL_PostRunToPrepShutdown
                           0x1'187f   0x24  Code  Lc  BswM_Lcfg.o [2]
BswM_ActionList_ESH_AL_PostRunToRun
                           0x1'18af   0x28  Code  Lc  BswM_Lcfg.o [2]
BswM_ActionList_ESH_AL_PrepShutdownToWaitForNvM
                           0x1'18ef   0x16  Code  Lc  BswM_Lcfg.o [2]
BswM_ActionList_ESH_AL_RunToPostRun
                           0x1'17cf   0x2a  Code  Lc  BswM_Lcfg.o [2]
BswM_ActionList_ESH_AL_WaitForNvMToShutdown
                           0x1'17f9    0xe  Code  Lc  BswM_Lcfg.o [2]
BswM_ActionList_ESH_AL_WaitForNvMWakeup
                           0x1'1821   0x1a  Code  Lc  BswM_Lcfg.o [2]
BswM_ActionList_ESH_AL_WakeupToPrep
                           0x1'1807   0x1a  Code  Lc  BswM_Lcfg.o [2]
BswM_ActionList_ESH_AL_WakeupToRun
                           0x1'183b   0x30  Code  Lc  BswM_Lcfg.o [2]
BswM_ActionList_INIT_AL_Initialize
                           0x1'1775   0x42  Code  Lc  BswM_Lcfg.o [2]
BswM_ActionLists           0x2'9098   0x50  Data  Gb  BswM_Lcfg.o [2]
BswM_Action_RuleHandler
                           0x1'1569   0x42  Code  Lc  BswM_Lcfg.o [2]
BswM_CanSMChannelState  0x1fff'bba0    0x1  Data  Gb  BswM_Lcfg.o [2]
BswM_CanSM_CurrentState
                             0x2577   0x4e  Code  Gb  BswM.o [5]
BswM_ComIPduGroupState  0x1fff'bb9e    0x1  Data  Lc  BswM_Lcfg.o [2]
BswM_ComMChannelState   0x1fff'bba1    0x1  Data  Gb  BswM_Lcfg.o [2]
BswM_ComM_CurrentMode        0x2535   0x42  Code  Gb  BswM.o [5]
BswM_ComRxIPduGroupDMState
                        0x1fff'bb9f    0x1  Data  Lc  BswM_Lcfg.o [2]
BswM_DecreaseTimer           0x224b   0x32  Code  Lc  BswM.o [5]
BswM_DeferredRules         0x2'90e8    0x8  Data  Gb  BswM_Lcfg.o [2]
BswM_Deinit                  0x24b1   0x26  Code  Gb  BswM.o [5]
BswM_ESH_OnEnterPostRun
                           0x1'2f6f    0x2  Code  Gb  BswM_Callout_Stubs.o [4]
BswM_ESH_OnEnterPrepShutdown
                           0x1'2f73    0x2  Code  Gb  BswM_Callout_Stubs.o [4]
BswM_ESH_OnEnterRun        0x1'2f77    0x2  Code  Gb  BswM_Callout_Stubs.o [4]
BswM_ESH_OnEnterShutdown
                           0x1'2f71    0x2  Code  Gb  BswM_Callout_Stubs.o [4]
BswM_ESH_OnEnterWaitForNvm
                           0x1'2f79    0x2  Code  Gb  BswM_Callout_Stubs.o [4]
BswM_ESH_OnEnterWakeup     0x1'2f75    0x2  Code  Gb  BswM_Callout_Stubs.o [4]
BswM_EcuM_CurrentWakeup
                             0x25c5   0x30  Code  Gb  BswM.o [5]
BswM_ExecuteActionLists
                             0x227d   0x4c  Code  Lc  BswM.o [5]
BswM_ExecuteDeferredRules
                             0x22c9   0x4e  Code  Lc  BswM.o [5]
BswM_ExecuteIpduGroupControl
                           0x1'14dd   0x8c  Code  Gb  BswM_Lcfg.o [2]
BswM_GenericMapping        0x2'90f0   0x18  Data  Gb  BswM_Lcfg.o [2]
BswM_GenericState       0x1fff'b714    0x8  Data  Gb  BswM_Lcfg.o [2]
BswM_ImmediateModeRequest
                             0x218f   0xbc  Code  Gb  BswM.o [5]
BswM_ImmediateUser         0x2'9108    0xc  Data  Gb  BswM_Lcfg.o [2]
BswM_Init                    0x2325  0x18c  Code  Gb  BswM.o [5]
BswM_InitMemory              0x2317    0xe  Code  Gb  BswM.o [5]
BswM_Init_Gen_NoPartitions
                           0x1'15f3   0x50  Code  Gb  BswM_Lcfg.o [2]
BswM_Initialized        0x1fff'bba2    0x1  Data  Gb  BswM_Lcfg.o [2]
BswM_MainFunction            0x25f5   0x6e  Code  Gb  BswM.o [5]
BswM_ModeNotificationFct
                           0x1'1643   0x1c  Code  Gb  BswM_Lcfg.o [2]
BswM_ModeRequestQueue   0x1fff'b71c    0x4  Data  Gb  BswM_Lcfg.o [2]
BswM_Mode_Notification_ESH_ModeNotification_BswM_MDGP_ESH_Mode
                        0x1fff'bb9d    0x1  Data  Lc  BswM_Lcfg.o [2]
BswM_PduGroupControlInvocation
                        0x1fff'bb97    0x1  Data  Lc  BswM_Lcfg.o [2]
BswM_ProcessQueuedRequests
                             0x20bb   0xd4  Code  Lc  BswM.o [5]
BswM_QueueSemaphore     0x1fff'bba3    0x1  Data  Gb  BswM_Lcfg.o [2]
BswM_QueueWritten       0x1fff'bba4    0x1  Data  Gb  BswM_Lcfg.o [2]
BswM_ReleaseQueue            0x207d   0x3e  Code  Lc  BswM.o [5]
BswM_RequestMode             0x24d7   0x5e  Code  Gb  BswM.o [5]
BswM_RuleStates         0x1fff'b720   0x10  Data  Gb  BswM_Lcfg.o [2]
BswM_Rule_CC_CN_CAN00_5e566ad9_RX
                           0x1'1905   0x36  Code  Lc  BswM_Lcfg.o [2]
BswM_Rule_CC_CN_CAN00_5e566ad9_RX_DM
                           0x1'1971   0x36  Code  Lc  BswM_Lcfg.o [2]
BswM_Rule_CC_CN_CAN00_5e566ad9_TX
                           0x1'193b   0x36  Code  Lc  BswM_Lcfg.o [2]
BswM_Rule_ESH_DemInit      0x1'1a8d   0x10  Code  Lc  BswM_Lcfg.o [2]
BswM_Rule_ESH_InitToWakeup
                           0x1'1a9d   0x10  Code  Lc  BswM_Lcfg.o [2]
BswM_Rule_ESH_PostRun      0x1'1af1   0x18  Code  Lc  BswM_Lcfg.o [2]
BswM_Rule_ESH_PostRunNested
                           0x1'1ac5   0x2c  Code  Lc  BswM_Lcfg.o [2]
BswM_Rule_ESH_PostRunToPrepNested
                           0x1'1aad   0x18  Code  Lc  BswM_Lcfg.o [2]
BswM_Rule_ESH_PrepToWait
                           0x1'1b09   0x18  Code  Lc  BswM_Lcfg.o [2]
BswM_Rule_ESH_RunToPostRun
                           0x1'19a7   0x36  Code  Lc  BswM_Lcfg.o [2]
BswM_Rule_ESH_RunToPostRunNested
                           0x1'19dd   0x10  Code  Lc  BswM_Lcfg.o [2]
BswM_Rule_ESH_WaitToShutdown
                           0x1'19ed   0x22  Code  Lc  BswM_Lcfg.o [2]
BswM_Rule_ESH_WaitToWakeup
                           0x1'1a41   0x22  Code  Lc  BswM_Lcfg.o [2]
BswM_Rule_ESH_WakeupToPrep
                           0x1'1a0f   0x32  Code  Lc  BswM_Lcfg.o [2]
BswM_Rule_ESH_WakeupToRun
                           0x1'1a63   0x2a  Code  Lc  BswM_Lcfg.o [2]
BswM_Rules                 0x2'9114   0x78  Data  Gb  BswM_Lcfg.o [2]
BswM_RulesInd              0x2'918c    0xc  Data  Gb  BswM_Lcfg.o [2]
BswM_RulesOfConfig         0x2'9198    0x4  Data  Gb  BswM_Lcfg.o [2]
BswM_SwcModeRequestUpdateFct
                           0x1'165f   0x32  Code  Gb  BswM_Lcfg.o [2]
BswM_Switch_ESH_ModeSwitch_BswM_MDGP_ESH_Mode
                        0x1fff'bb98    0x1  Data  Lc  BswM_Lcfg.o [2]
BswM_TimerState         0x1fff'bba5    0x1  Data  Gb  BswM_Lcfg.o [2]
BswM_TimerValue         0x1fff'b730    0x4  Data  Gb  BswM_Lcfg.o [2]
BswM_UpdateRuleStates      0x1'15ab   0x12  Code  Lc  BswM_Lcfg.o [2]
BswM_UpdateTimer           0x1'15bd   0x36  Code  Lc  BswM_Lcfg.o [2]
Buffer_PBSpiChannel_SBC_Read
                        0x1fff'bb68    0x8  Data  Lc  Spi_PBcfg.o [3]
BusFault_Handler           0x1'2f87         Code  Wk  startup_S32K148.o [20]
CAN0_Error_IRQHandler      0x1'35d1         Code  Wk  startup_S32K148.o [20]
CAN0_ORed_0_15_MB_IRQHandler
                           0x1'35d1         Code  Wk  startup_S32K148.o [20]
CAN0_ORed_16_31_MB_IRQHandler
                           0x1'35d1         Code  Wk  startup_S32K148.o [20]
CAN0_ORed_IRQHandler       0x1'35d1         Code  Wk  startup_S32K148.o [20]
CAN0_Wake_Up_IRQHandler
                           0x1'35d1         Code  Wk  startup_S32K148.o [20]
CAN1_Error_IRQHandler      0x1'35d1         Code  Wk  startup_S32K148.o [20]
CAN1_ORed_0_15_MB_IRQHandler
                           0x1'35d1         Code  Wk  startup_S32K148.o [20]
CAN1_ORed_16_31_MB_IRQHandler
                           0x1'35d1         Code  Wk  startup_S32K148.o [20]
CAN1_ORed_IRQHandler       0x1'35d1         Code  Wk  startup_S32K148.o [20]
CAN2_Error_IRQHandler      0x1'35d1         Code  Wk  startup_S32K148.o [20]
CAN2_ORed_0_15_MB_IRQHandler
                           0x1'35d1         Code  Wk  startup_S32K148.o [20]
CAN2_ORed_16_31_MB_IRQHandler
                           0x1'35d1         Code  Wk  startup_S32K148.o [20]
CAN2_ORed_IRQHandler       0x1'35d1         Code  Wk  startup_S32K148.o [20]
CMP0_IRQHandler            0x1'35d1         Code  Wk  startup_S32K148.o [20]
CSTACK$$Base            0x1fff'a800          --   Gb  - Linker created -
CSTACK$$Limit           0x1fff'b000          --   Gb  - Linker created -
CanBasicCanMsgReceived       0x142b   0xac  Code  Lc  Can.o [6]
CanBusOffInterrupt           0x137f    0x8  Code  Gb  Can.o [6]
CanHL_ErrorHandling          0x14d7   0x6a  Code  Lc  Can.o [6]
CanHL_GetTxHwToLogHandle
                              0xd29    0xc  Code  Lc  Can.o [6]
CanHL_GetTxLogToHwHandle
                              0xd35    0xc  Code  Lc  Can.o [6]
CanHL_InitBegin               0xd63   0xd8  Code  Lc  Can.o [6]
CanHL_InitEnd_InitMode        0xfd9   0x3a  Code  Lc  Can.o [6]
CanHL_InitEnd_StopMode       0x1013    0xa  Code  Lc  Can.o [6]
CanHL_InitPowerOn            0x1079    0x2  Code  Lc  Can.o [6]
CanHL_InitPowerOnChannelSpecific
                             0x107b    0x2  Code  Lc  Can.o [6]
CanHL_InitRxBasicCAN          0xe8b  0x14e  Code  Lc  Can.o [6]
CanHL_InitTxBasicCAN          0xe3b   0x50  Code  Lc  Can.o [6]
CanHL_RxBasicMsgReceivedBegin
                             0x107d   0xd2  Code  Lc  Can.o [6]
CanHL_RxBasicMsgReceivedEnd
                             0x1183    0x4  Code  Lc  Can.o [6]
CanHL_RxBasicMsgReceivedSearch
                             0x114f   0x34  Code  Lc  Can.o [6]
CanHL_RxMsgReceivedNotification
                             0x1187   0x16  Code  Lc  Can.o [6]
CanHL_SetOsValue16            0xd55    0xe  Code  Lc  Can.o [6]
CanHL_SetValue16              0xd41    0xa  Code  Lc  Can.o [6]
CanHL_SetValue32              0xd4b    0xa  Code  Lc  Can.o [6]
CanHL_SleepTransition         0xb61   0x32  Code  Lc  Can.o [6]
CanHL_StartProcessed          0xc8d   0x4e  Code  Lc  Can.o [6]
CanHL_StartTransition         0x9cd   0xa4  Code  Lc  Can.o [6]
CanHL_StopProcessed           0xcdb   0x4e  Code  Lc  Can.o [6]
CanHL_StopReinit             0x101d   0x5c  Code  Lc  Can.o [6]
CanHL_StopTransition          0xa71   0xc4  Code  Lc  Can.o [6]
CanHL_TxConfirmation         0x13b3   0x78  Code  Lc  Can.o [6]
CanHL_WakeupTransition        0xb35   0x2c  Code  Lc  Can.o [6]
CanHL_WritePrepare            0xb93   0x18  Code  Lc  Can.o [6]
CanHL_WriteStart              0xbab   0xe2  Code  Lc  Can.o [6]
CanIfState                 0x2'9234   0x2c  Data  Lc  CanIf.o [7]
CanIf_BusOffNotificationFctPtr
                           0x2'9260    0x4  Data  Gb  CanIf_Lcfg.o [2]
CanIf_CanIfCtrlId2MappedTxBuffersConfig
                           0x2'9caa    0x2  Data  Gb  CanIf_Lcfg.o [2]
CanIf_ClearPrioByCanIdTxPduAsQueued
                             0x2925   0x6c  Code  Lc  CanIf.o [7]
CanIf_ClearQueue             0x2991   0x7c  Code  Lc  CanIf.o [7]
CanIf_ControllerBusOff       0x30b7   0x54  Code  Gb  CanIf.o [7]
CanIf_ControllerModeIndication
                             0x32eb   0xa0  Code  Gb  CanIf.o [7]
CanIf_CtrlModeIndicationFctPtr
                           0x2'9264    0x4  Data  Gb  CanIf_Lcfg.o [2]
CanIf_CtrlStates        0x1fff'bb70    0x2  Data  Gb  CanIf_Lcfg.o [2]
CanIf_HlIndication           0x3035   0x82  Code  Lc  CanIf.o [7]
CanIf_HlIndicationSubULCall
                             0x2ff1   0x44  Code  Lc  CanIf.o [7]
CanIf_HlTxConfirmation       0x2cf1   0x2e  Code  Lc  CanIf.o [7]
CanIf_Init                   0x2a0d   0x16  Code  Gb  CanIf.o [7]
CanIf_InitMemory             0x32e3    0x8  Code  Gb  CanIf.o [7]
CanIf_MailBoxConfig        0x2'9268    0xc  Data  Gb  CanIf_Lcfg.o [2]
CanIf_MappedTxBuffersConfig
                           0x2'9cc4    0x1  Data  Gb  CanIf_Lcfg.o [2]
CanIf_RxIndicationAsr403
                             0x2f29   0xc8  Code  Gb  CanIf.o [7]
CanIf_RxIndicationFctList
                           0x2'9274   0x18  Data  Gb  CanIf_Lcfg.o [2]
CanIf_RxIndicationSubBasicCan
                             0x2efd   0x2c  Code  Lc  CanIf.o [7]
CanIf_RxIndicationSubLinearSearch
                             0x2dd5   0x40  Code  Lc  CanIf.o [7]
CanIf_RxIndicationSubRangeSearch
                             0x2e1f   0xde  Code  Lc  CanIf.o [7]
CanIf_RxIndicationSubReceptionPduMode
                             0x2e15    0xa  Code  Lc  CanIf.o [7]
CanIf_RxPduConfig          0x2'928c   0x18  Data  Gb  CanIf_Lcfg.o [2]
CanIf_SetControllerMode
                             0x2af7   0x4e  Code  Gb  CanIf.o [7]
CanIf_SetControllerModeSubSwitch
                             0x2a23   0xd4  Code  Lc  CanIf.o [7]
CanIf_SetPduMode             0x310b   0xac  Code  Gb  CanIf.o [7]
CanIf_SetPrioByCanIdTxPduAsQueued
                             0x28b9   0x6c  Code  Lc  CanIf.o [7]
CanIf_Transmit               0x2c43   0xae  Code  Gb  CanIf.o [7]
CanIf_TransmitSubHandleTxResBusy
                             0x2b6f   0x7e  Code  Lc  CanIf.o [7]
CanIf_TransmitSubWrite       0x2bed   0x56  Code  Lc  CanIf.o [7]
CanIf_TxBufferPrioByCanIdBase
                        0x1fff'bba8    0x1  Data  Gb  CanIf_Lcfg.o [2]
CanIf_TxBufferPrioByCanIdByteQueueConfig
                           0x2'92a4    0x4  Data  Gb  CanIf_Lcfg.o [2]
CanIf_TxBufferPrioByCanIdByteQueueMappedTxPdus
                           0x2'92a8    0x4  Data  Gb  CanIf_Lcfg.o [2]
CanIf_TxBufferPrioByCanIdQueuePdu
                             0x2b45   0x2a  Code  Lc  CanIf.o [7]
CanIf_TxConfirmation         0x2d1f   0xb6  Code  Gb  CanIf.o [7]
CanIf_TxConfirmationFctList
                           0x2'92ac    0xc  Data  Gb  CanIf_Lcfg.o [2]
CanIf_TxPduConfig          0x2'92b8   0x18  Data  Gb  CanIf_Lcfg.o [2]
CanIf_TxPduQueueIndex      0x2'92d0    0x4  Data  Gb  CanIf_Lcfg.o [2]
CanIf_TxQueue           0x1fff'b778   0x20  Data  Gb  CanIf_Lcfg.o [2]
CanIf_TxQueueTransmit        0x31b7   0xc0  Code  Lc  CanIf.o [7]
CanIf_TxQueueTreatment       0x3277   0x6c  Code  Lc  CanIf.o [7]
CanInit                       0x997    0xe  Code  Lc  Can.o [6]
CanLL_CanInterruptDisable
                             0x11a7   0x1c  Code  Lc  Can.o [6]
CanLL_CanInterruptRestore
                             0x11c3   0x1c  Code  Lc  Can.o [6]
CanLL_ComputeInterruptType
                             0x135b   0x24  Code  Lc  Can.o [6]
CanLL_ComputeMailboxInterrupt
                             0x1317   0x44  Code  Lc  Can.o [6]
CanLL_ExecuteSoftReset       0x127d   0x28  Code  Lc  Can.o [6]
CanLL_HandleBusOff           0x12a5   0x1e  Code  Lc  Can.o [6]
CanLL_HandleStartProcess
                             0x12c3   0x54  Code  Lc  Can.o [6]
CanLL_SetFlexCANToInitMode
                             0x11df   0x9e  Code  Lc  Can.o [6]
CanMailboxInterrupt          0x1387   0x2c  Code  Gb  Can.o [6]
CanResetBusOffEnd            0x119d    0xa  Code  Lc  Can.o [6]
CanSM_BusOffCheckToNoBusOff
                             0x7147    0xa  Code  Lc  CanSM.o [8]
CanSM_BusOffIndicated        0x730f   0x5a  Code  Lc  CanSM.o [8]
CanSM_ChannelVarRecord  0x1fff'b798   0x14  Data  Gb  CanSM_Lcfg.o [2]
CanSM_CheckModeIndication
                             0x7049   0x46  Code  Lc  CanSM.o [8]
CanSM_ControllerBusOff       0x7635   0x40  Code  Gb  CanSM.o [8]
CanSM_ControllerModeIndication
                             0x7675   0xa8  Code  Gb  CanSM.o [8]
CanSM_CtrlSleepIndicated
                             0x71c1   0x12  Code  Lc  CanSM.o [8]
CanSM_CtrlStartedIndicated
                             0x7151   0x50  Code  Lc  CanSM.o [8]
CanSM_CtrlStoppedIndicated
                             0x71a1   0x20  Code  Lc  CanSM.o [8]
CanSM_EvaluateComModeRequest
                             0x71d3   0x2c  Code  Lc  CanSM.o [8]
CanSM_EvaluateMaxModeRequests
                             0x7223   0x2c  Code  Lc  CanSM.o [8]
CanSM_FullComReached         0x7369   0x2e  Code  Lc  CanSM.o [8]
CanSM_FullComToRestartController
                             0x70b3   0x12  Code  Lc  CanSM.o [8]
CanSM_FullComToSilent        0x7397   0x34  Code  Lc  CanSM.o [8]
CanSM_HandleBusOffInSilent
                             0x71ff   0x24  Code  Lc  CanSM.o [8]
CanSM_HandleComModeRequest
                             0x7275   0x6a  Code  Lc  CanSM.o [8]
CanSM_Init                   0x74f3   0x2c  Code  Gb  CanSM.o [8]
CanSM_InitMemory             0x74c3    0xa  Code  Gb  CanSM.o [8]
CanSM_InitializeVariables
                             0x70d7   0x4c  Code  Lc  CanSM.o [8]
CanSM_InitiateShutDownSequence
                             0x70c5   0x12  Code  Lc  CanSM.o [8]
CanSM_IsInitialized     0x1fff'bba9    0x1  Data  Lc  CanSM.o [8]
CanSM_MainFunction           0x751f   0x88  Code  Gb  CanSM.o [8]
CanSM_MapControllerIdToLocalIndex
                             0x72f7   0x18  Code  Lc  CanSM.o [8]
CanSM_MapNetworkHandleToLocalIndex
                             0x72df   0x18  Code  Lc  CanSM.o [8]
CanSM_NetworkStatemachine
                             0x73e9   0xda  Code  Lc  CanSM.o [8]
CanSM_NoComReached           0x73cb   0x1e  Code  Lc  CanSM.o [8]
CanSM_PreInit                0x74cd   0x26  Code  Gb  CanSM.o [8]
CanSM_RequestComMode         0x75a7   0x8e  Code  Gb  CanSM.o [8]
CanSM_SetCanIfPduModeFullCom
                             0x7039   0x10  Code  Lc  CanSM.o [8]
CanSM_StartControllerToBusOffCheck
                             0x708f   0x24  Code  Lc  CanSM.o [8]
CanSM_TimerHandling          0x724f   0x26  Code  Lc  CanSM.o [8]
CanSM_UninitToNoCom          0x7123   0x24  Code  Lc  CanSM.o [8]
CanTp_CalcBS            0x1fff'bb72    0x2  Data  Gb  CanTp_Lcfg.o [2]
CanTp_CanIfRxIndication
                             0x8173   0xce  Code  Lc  CanTp.o [9]
CanTp_CanIfRxIndicationCF
                             0x7a99  0x110  Code  Lc  CanTp.o [9]
CanTp_CanIfRxIndicationFC
                             0x7ba9   0xbc  Code  Lc  CanTp.o [9]
CanTp_CanIfRxIndicationFF
                             0x7935  0x164  Code  Lc  CanTp.o [9]
CanTp_CanIfRxIndicationSF
                             0x7859   0xdc  Code  Lc  CanTp.o [9]
CanTp_CanIfTransmitFrame
                             0x836d   0x3e  Code  Lc  CanTp.o [9]
CanTp_CanIfTxConfirmation
                             0x8241   0xbc  Code  Lc  CanTp.o [9]
CanTp_CanIfTxConfirmationFC
                             0x82fd   0x70  Code  Lc  CanTp.o [9]
CanTp_Cfg_GetSduHdlByRxPduOnly
                             0x8019   0x42  Code  Lc  CanTp.o [9]
CanTp_Init                   0x88d1   0x1a  Code  Gb  CanTp.o [9]
CanTp_InitMemory             0x88eb    0xa  Code  Gb  CanTp.o [9]
CanTp_InitState         0x1fff'bbaa    0x1  Data  Lc  CanTp.o [9]
CanTp_MainFunction           0x88f5    0xc  Code  Gb  CanTp.o [9]
CanTp_MainFunctionRx         0x8901   0xfe  Code  Gb  CanTp.o [9]
CanTp_MainFunctionTx         0x89ff   0xda  Code  Gb  CanTp.o [9]
CanTp_ResetChannels          0x849b   0x7e  Code  Lc  CanTp.o [9]
CanTp_RxGetActiveChannelPtr
                             0x80fb   0x26  Code  Lc  CanTp.o [9]
CanTp_RxGetBuffer            0x8519   0x6e  Code  Lc  CanTp.o [9]
CanTp_RxGetBufferCF          0x7e17  0x14a  Code  Lc  CanTp.o [9]
CanTp_RxGetBufferFCWait
                             0x7f61   0xb8  Code  Lc  CanTp.o [9]
CanTp_RxGetBufferFF          0x7d43   0xd4  Code  Lc  CanTp.o [9]
CanTp_RxGetBufferSF          0x7cd1   0x72  Code  Lc  CanTp.o [9]
CanTp_RxGetBytesPerBlock
                             0x7ca3   0x2e  Code  Lc  CanTp.o [9]
CanTp_RxGetFreeChannelPtr
                             0x80cf   0x2c  Code  Lc  CanTp.o [9]
CanTp_RxIndication           0x8b51   0x6e  Code  Gb  CanTp.o [9]
CanTp_RxInit                 0x83b1   0xa6  Code  Lc  CanTp.o [9]
CanTp_RxInitState            0x805b   0x3a  Code  Lc  CanTp.o [9]
CanTp_RxPduMap             0x2'92d4    0x8  Data  Gb  CanTp_Lcfg.o [2]
CanTp_RxSduCfg             0x2'92dc   0x14  Data  Gb  CanTp_Lcfg.o [2]
CanTp_RxSduCfgInd          0x2'9cac    0x2  Data  Gb  CanTp_Lcfg.o [2]
CanTp_RxSduSnv2Hdl         0x2'9cae    0x2  Data  Gb  CanTp_Lcfg.o [2]
CanTp_RxState           0x1fff'b7ac   0x38  Data  Gb  CanTp_Lcfg.o [2]
CanTp_RxTransmitFrame        0x8619  0x160  Code  Lc  CanTp.o [9]
CanTp_Transmit               0x8ad9   0x78  Code  Gb  CanTp.o [9]
CanTp_TxConfirmation         0x8bc9   0xc8  Code  Gb  CanTp.o [9]
CanTp_TxGetActiveChannelPtr
                             0x814d   0x26  Code  Lc  CanTp.o [9]
CanTp_TxGetBuffer            0x858d   0x8c  Code  Lc  CanTp.o [9]
CanTp_TxGetFreeChannelPtr
                             0x8121   0x2c  Code  Lc  CanTp.o [9]
CanTp_TxGetStminTimerFromStminValue
                             0x7823   0x36  Code  Lc  CanTp.o [9]
CanTp_TxInit                 0x845d   0x3e  Code  Lc  CanTp.o [9]
CanTp_TxInitState            0x8095   0x3a  Code  Lc  CanTp.o [9]
CanTp_TxSemaphores      0x1fff'bb74    0x2  Data  Gb  CanTp_Lcfg.o [2]
CanTp_TxStartConnection
                             0x7c65   0x3e  Code  Lc  CanTp.o [9]
CanTp_TxState           0x1fff'b7e4   0x1c  Data  Gb  CanTp_Lcfg.o [2]
CanTp_TxTransmitFrame        0x877d  0x154  Code  Lc  CanTp.o [9]
CanTp_Util_AssertLessEqual
                             0x7743   0x1e  Code  Lc  CanTp.o [9]
CanTp_Util_CheckConfigValidity
                             0x7761   0xa2  Code  Lc  CanTp.o [9]
CanTp_Util_GetPaddingLength
                             0x7803   0x20  Code  Lc  CanTp.o [9]
CanTp_Util_MemCpy            0x7725   0x1e  Code  Lc  CanTp.o [9]
Can_ActiveSendObject    0x1fff'b734    0x4  Data  Gb  Can_Lcfg.o [2]
Can_CanIfChannelId         0x2'9ca0    0x2  Data  Gb  Can_Lcfg.o [2]
Can_ChangeBaudrate           0x154b   0x6c  Code  Gb  Can.o [6]
Can_CleanUpSendState          0x9a5   0x28  Code  Lc  Can.o [6]
Can_ConfigDataPtr          0x2'919c    0x4  Data  Gb  Can.o [6]
Can_ControllerConfig       0x2'91a0   0x34  Data  Gb  Can_Lcfg.o [2]
Can_ControllerData      0x1fff'b738   0x40  Data  Gb  Can_Lcfg.o [2]
Can_DisableControllerInterrupts
                             0x1801   0x54  Code  Gb  Can.o [6]
Can_EnableControllerInterrupts
                             0x1859   0x70  Code  Gb  Can.o [6]
Can_Init                     0x15b7   0x74  Code  Gb  Can.o [6]
Can_InitBasicCan           0x2'91d4   0x40  Data  Gb  Can_Lcfg.o [2]
Can_InitBasicCanIndex      0x2'9ca2    0x2  Data  Gb  Can_Lcfg.o [2]
Can_InitController           0x163d   0xb8  Code  Gb  Can.o [6]
Can_InitMemory               0x1541    0xa  Code  Gb  Can.o [6]
Can_InitObject             0x2'9214    0x8  Data  Gb  Can_Lcfg.o [2]
Can_InitObjectBaudrate     0x2'9ca4    0x2  Data  Gb  Can_Lcfg.o [2]
Can_InitObjectStartIndex
                           0x2'9ca6    0x2  Data  Gb  Can_Lcfg.o [2]
Can_Mailbox                0x2'921c   0x18  Data  Gb  Can_Lcfg.o [2]
Can_MainFunction_BusOff
                             0x1991    0x2  Code  Gb  Can.o [6]
Can_MainFunction_Mode        0x1995   0x58  Code  Gb  Can.o [6]
Can_MainFunction_Wakeup
                             0x1993    0x2  Code  Gb  Can.o [6]
Can_SetControllerMode        0x16f9  0x108  Code  Gb  Can.o [6]
Can_TxOffsetHwToLog        0x2'9ca8    0x2  Data  Gb  Can_Lcfg.o [2]
Can_Write                    0x18c9   0xc4  Code  Gb  Can.o [6]
CancelAlarm                0x1'd7ef   0x4a  Code  Gb  Os_Trap.o [17]
ClearEvent                 0x1'd597   0x4c  Code  Gb  Os_Trap.o [17]
Code_Default$$Base            0x628          --   Gb  - Linker created -
Code_Default$$Limit        0x1'35d4          --   Gb  - Linker created -
ComM_ActiveComMode      0x1fff'bbb2    0x1  Data  Lc  ComM.o [11]
ComM_BusComModeReq      0x1fff'bbb3    0x1  Data  Lc  ComM.o [11]
ComM_BusSM_ModeIndication
                             0x1f07   0x96  Code  Gb  ComM.o [11]
ComM_BusSmState         0x1fff'bbb0    0x1  Data  Lc  ComM.o [11]
ComM_CalculateHighestComMode
                             0x1a15   0x5e  Code  Lc  ComM.o [11]
ComM_ChannelIsRequestPending
                             0x1a99   0x2e  Code  Lc  ComM.o [11]
ComM_ChannelStateTransition
                             0x1da1   0x9e  Code  Lc  ComM.o [11]
ComM_ComAllowed         0x1fff'bbb1    0x1  Data  Lc  ComM.o [11]
ComM_CommunicationAllowed
                             0x1d19   0x38  Code  Gb  ComM.o [11]
ComM_DCM_ActiveDiagnostic
                             0x1e3f   0x3a  Code  Gb  ComM.o [11]
ComM_DCM_InactiveDiagnostic
                             0x1e79   0x3a  Code  Gb  ComM.o [11]
ComM_DcmRequestActive   0x1fff'bbb4    0x1  Data  Gb  ComM_Lcfg.o [2]
ComM_ECUGroupClassInit     0x2'9cc9    0x1  Data  Gb  ComM_Lcfg.o [2]
ComM_EcuM_WakeUpIndication
                             0x1eb3   0x54  Code  Gb  ComM.o [11]
ComM_GetState                0x1be3   0x6e  Code  Gb  ComM.o [11]
ComM_GetStatus               0x1c51   0x32  Code  Gb  ComM.o [11]
ComM_Inhibition         0x1fff'b81c    0x8  Data  Gb  ComM.o [11]
ComM_Init                    0x1b15   0xb4  Code  Gb  ComM.o [11]
ComM_InitCheckGeneratedData
                             0x1bc9   0x10  Code  Lc  ComM.o [11]
ComM_InitMemory              0x1bd9    0xa  Code  Gb  ComM.o [11]
ComM_InitStatus         0x1fff'bbaf    0x1  Data  Lc  ComM.o [11]
ComM_IsUserRequestingChannel
                             0x1a73   0x26  Code  Lc  ComM.o [11]
ComM_MainFunction            0x1d51   0x50  Code  Gb  ComM.o [11]
ComM_MainFunction_0          0x33cd    0xa  Code  Gb  ComM_Lcfg.o [2]
ComM_RequestBusSMMode        0x33d7   0x1e  Code  Gb  ComM_Lcfg.o [2]
ComM_RequestComMode          0x1c83   0x96  Code  Gb  ComM.o [11]
ComM_TF_Full_SiCom           0x1ae3    0x2  Code  Lc  ComM.o [11]
ComM_TF_NetReq_ReadyS        0x1aff    0x2  Code  Lc  ComM.o [11]
ComM_TF_NoCom_FullReadySleep
                             0x1ae1    0x2  Code  Lc  ComM.o [11]
ComM_TF_NoCom_NetReq         0x1ac7   0x1a  Code  Lc  ComM.o [11]
ComM_TF_No_Action            0x1b01    0x2  Code  Lc  ComM.o [11]
ComM_TF_No_Transition        0x1b03   0x12  Code  Lc  ComM.o [11]
ComM_TF_ReadyS_NetReq        0x1ae5    0x2  Code  Lc  ComM.o [11]
ComM_TF_SiCom_NoCom          0x1ae7   0x18  Code  Lc  ComM.o [11]
ComM_TransitionFctTable
                           0x2'9334   0x64  Data  Lc  ComM.o [11]
ComM_TransitionTable       0x2'9318   0x1c  Data  Lc  ComM.o [11]
ComM_UserReqFullCom     0x1fff'bbb5    0x1  Data  Gb  ComM_Lcfg.o [2]
Com_ActivateRxComIPdu        0x8cd9   0x1c  Code  Lc  Com.o [10]
Com_ActivateTxComIPdu        0x8cf5   0x1a  Code  Lc  Com.o [10]
Com_ClearIpduGroupVector
                             0x958d    0xc  Code  Gb  Com.o [10]
Com_ConstValueUInt8        0x2'9cc5    0x1  Data  Gb  Com_Lcfg.o [2]
Com_CurrentTxMode       0x1fff'bb76    0x2  Data  Gb  Com_Lcfg.o [2]
Com_CycleTimeCnt        0x1fff'bb78    0x2  Data  Gb  Com_Lcfg.o [2]
Com_CyclicSendRequest   0x1fff'bb7a    0x2  Data  Gb  Com_Lcfg.o [2]
Com_DeactivateRxComIPdu
                             0x8d91    0xa  Code  Lc  Com.o [10]
Com_DeactivateTxComIPdu
                             0x8d9b   0x18  Code  Lc  Com.o [10]
Com_HandleRxPduDeferred
                        0x1fff'bb7c    0x2  Data  Gb  Com_Lcfg.o [2]
Com_Init                     0x9465   0x5e  Code  Gb  Com.o [10]
Com_InitMemory               0x94c3    0xa  Code  Gb  Com.o [10]
Com_InitRx                   0x8e39   0x1e  Code  Lc  Com.o [10]
Com_InitTx                   0x8e1d   0x1c  Code  Lc  Com.o [10]
Com_Initialized         0x1fff'bbac    0x1  Data  Gb  Com_Lcfg.o [2]
Com_IpduGroupControl         0x94cd   0x6e  Code  Gb  Com.o [10]
Com_IpduGroupControl_EvaluateActiveState
                             0x8de3   0x3a  Code  Lc  Com.o [10]
Com_IpduGroupControl_SetRequestedActiveState
                             0x8db3   0x30  Code  Lc  Com.o [10]
Com_IpduGroupControl_UpdateRxComIPduState
                             0x8d0f   0x82  Code  Lc  Com.o [10]
Com_LMgt_DeactivateRxPdu
                             0x8ca9    0xc  Code  Lc  Com.o [10]
Com_LMgt_InitRxIpdu          0x8cb5    0xa  Code  Lc  Com.o [10]
Com_LMgt_InitTxIpdu          0x8cbf   0x1a  Code  Lc  Com.o [10]
Com_MainFunctionRx           0x9565   0x12  Code  Gb  Com.o [10]
Com_MainFunctionTx           0x9577   0x16  Code  Gb  Com.o [10]
Com_ReceptionDMControl       0x953b   0x2a  Code  Gb  Com.o [10]
Com_RxAccessInfo           0x2'92f0    0xc  Data  Gb  Com_Lcfg.o [2]
Com_RxDefPduBuffer      0x1fff'bbad    0x1  Data  Gb  Com_Lcfg.o [2]
Com_RxDeferredPduProcessing
                             0x8fc3   0x1e  Code  Lc  Com.o [10]
Com_RxDeferredPduProcessing_IterateOverAllRxPdus
                             0x8fe1   0x30  Code  Lc  Com.o [10]
Com_RxDeferredProcessingISRLockCounter
                        0x1fff'bb7e    0x2  Data  Gb  Com_Lcfg.o [2]
Com_RxIPduGroupISRLockCounter
                        0x1fff'bb80    0x2  Data  Gb  Com_Lcfg.o [2]
Com_RxIPduGroup_EnterExclusiveArea
                             0x8e57    0x8  Code  Lc  Com.o [10]
Com_RxIPduGroup_ExitExclusiveArea
                             0x8e5f   0x10  Code  Lc  Com.o [10]
Com_RxIPduGroup_ThresholdCheck
                             0x8e6f   0x1e  Code  Lc  Com.o [10]
Com_RxIndication             0x960d   0x58  Code  Gb  Com.o [10]
Com_RxIndication_ProcessPdu
                             0x9065   0x50  Code  Lc  Com.o [10]
Com_RxIndication_Processing
                             0x8f43   0x18  Code  Lc  Com.o [10]
Com_RxPduGrpActive      0x1fff'bbae    0x1  Data  Gb  Com_Lcfg.o [2]
Com_RxPduInfo              0x2'9cc6    0x1  Data  Gb  Com_Lcfg.o [2]
Com_RxProcessDeferredPDU
                             0x9011   0x54  Code  Lc  Com.o [10]
Com_RxProcessing_EnterExclusiveArea_Deferred
                             0x9147    0x8  Code  Lc  Com.o [10]
Com_RxProcessing_ExitExclusiveArea_Deferred
                             0x914f   0x10  Code  Lc  Com.o [10]
Com_RxProcessing_InitRxIpdu
                             0x8f5b   0x68  Code  Lc  Com.o [10]
Com_RxProcessing_IsDeferredProcessingRequested
                             0x917f   0x34  Code  Lc  Com.o [10]
Com_RxProcessing_RxPduSigEvent
                             0x90b5   0x3a  Code  Lc  Com.o [10]
Com_RxProcessing_ThresholdCheck_Deferred
                             0x915f   0x20  Code  Lc  Com.o [10]
Com_RxSigBufferUInt8    0x1fff'b808    0x4  Data  Gb  Com_Lcfg.o [2]
Com_RxSigInfo              0x2'92fc    0x4  Data  Gb  Com_Lcfg.o [2]
Com_RxSignalProcessing       0x90ef   0x2a  Code  Lc  Com.o [10]
Com_RxSignalProcessing_UINT8
                             0x9119   0x2e  Code  Lc  Com.o [10]
Com_SetIpduGroup             0x9599   0x6e  Code  Gb  Com.o [10]
Com_Signal_ReadSignalApplTypeSpecific
                             0x8edb   0x44  Code  Lc  Com.o [10]
Com_Signal_ReadSignal_UInt8
                             0x8ec3   0x18  Code  Lc  Com.o [10]
Com_Signal_SetRxSigBufferValue
                             0x8f1f   0x24  Code  Lc  Com.o [10]
Com_TransmitRequest     0x1fff'bb82    0x2  Data  Gb  Com_Lcfg.o [2]
Com_TxBuffer            0x1fff'b80c    0xc  Data  Gb  Com_Lcfg.o [2]
Com_TxBuffer_InitTxIpdu
                             0x91b3   0x2a  Code  Lc  Com.o [10]
Com_TxConfirmation           0x966d   0x3e  Code  Gb  Com.o [10]
Com_TxConfirmation_Process
                             0x91f1   0x20  Code  Lc  Com.o [10]
Com_TxCyclicProcessingISRLockCounter
                        0x1fff'bb84    0x2  Data  Gb  Com_Lcfg.o [2]
Com_TxIPduGroupISRLockCounter
                        0x1fff'bb86    0x2  Data  Gb  Com_Lcfg.o [2]
Com_TxIPduGroup_EnterExclusiveArea
                             0x8e8d    0x8  Code  Lc  Com.o [10]
Com_TxIPduGroup_ExitExclusiveArea
                             0x8e95   0x10  Code  Lc  Com.o [10]
Com_TxIPduGroup_ThresholdCheck
                             0x8ea5   0x1e  Code  Lc  Com.o [10]
Com_TxLLIf_InitTxIpdu        0x91dd   0x14  Code  Lc  Com.o [10]
Com_TxLLIf_Transmit          0x96b1   0x40  Code  Gb  Com.o [10]
Com_TxModeFalse            0x2'9cc7    0x1  Data  Gb  Com_Lcfg.o [2]
Com_TxModeHdlr_EnterExclusiveArea
                             0x92f3    0x8  Code  Lc  Com.o [10]
Com_TxModeHdlr_EnterExclusiveArea_CycleCounter
                             0x9297    0x8  Code  Lc  Com.o [10]
Com_TxModeHdlr_ExitExclusiveArea
                             0x92fb   0x10  Code  Lc  Com.o [10]
Com_TxModeHdlr_ExitExclusiveArea_CycleCounter
                             0x929f   0x10  Code  Lc  Com.o [10]
Com_TxModeHdlr_InitTxIpdu
                             0x9211   0x52  Code  Lc  Com.o [10]
Com_TxModeHdlr_InitTxMode
                             0x9359   0x84  Code  Lc  Com.o [10]
Com_TxModeHdlr_MainFunctionTx_CycleCounter
                             0x9263   0x34  Code  Lc  Com.o [10]
Com_TxModeHdlr_MainFunctionTx_ProcessTransmit
                             0x9329   0x30  Code  Lc  Com.o [10]
Com_TxModeHdlr_MainFunctionTx_Transmit
                             0x92cd   0x26  Code  Lc  Com.o [10]
Com_TxModeHdlr_SetTransmitRequestAndCycleCnt
                             0x93f5   0x70  Code  Lc  Com.o [10]
Com_TxModeHdlr_StopTxIpdus
                             0x93dd   0x18  Code  Lc  Com.o [10]
Com_TxModeHdlr_ThresholdCheck
                             0x930b   0x1e  Code  Lc  Com.o [10]
Com_TxModeHdlr_ThresholdCheck_CycleCounter
                             0x92af   0x1e  Code  Lc  Com.o [10]
Com_TxModeInfo             0x2'9300    0x4  Data  Gb  Com_Lcfg.o [2]
Com_TxModeTrue             0x2'9cc8    0x1  Data  Gb  Com_Lcfg.o [2]
Com_TxPduGrpActive      0x1fff'bb88    0x2  Data  Gb  Com_Lcfg.o [2]
Com_TxPduGrpInfo           0x2'9cb0    0x2  Data  Gb  Com_Lcfg.o [2]
Com_TxPduInfo              0x2'9304    0x8  Data  Gb  Com_Lcfg.o [2]
Com_TxPduInitValue         0x2'930c    0xc  Data  Gb  Com_Lcfg.o [2]
Com_TxProcessingISRLockCounter
                        0x1fff'bb8a    0x2  Data  Gb  Com_Lcfg.o [2]
Com_TxSduLength         0x1fff'b818    0x4  Data  Gb  Com_Lcfg.o [2]
Const_Default$$Base        0x2'9094          --   Gb  - Linker created -
Const_Default$$Limit       0x2'a0d8          --   Gb  - Linker created -
CtLedTask_InitRunnable     0x1'1b65    0xc  Code  Gb  CtLedTask.o [4]
DEFAULT_BSS_BLOCK$$Base
                        0x1fff'b700          --   Gb  - Linker created -
DEFAULT_BSS_BLOCK$$Limit
                        0x1fff'bbcc          --   Gb  - Linker created -
DEFAULT_CODE_BLOCK$$Base
                              0x628          --   Gb  - Linker created -
DEFAULT_CODE_BLOCK$$Limit
                           0x1'35d4          --   Gb  - Linker created -
DEFAULT_INTVEC_BLOCK$$Base
                           0x2'9cd8          --   Gb  - Linker created -
DEFAULT_INTVEC_BLOCK$$Limit
                           0x2'a0d8          --   Gb  - Linker created -
DEFAULT_RODATA_BLOCK$$Base
                           0x2'9098          --   Gb  - Linker created -
DEFAULT_RODATA_BLOCK$$Limit
                           0x2'9cd1          --   Gb  - Linker created -
DMA0_IRQHandler            0x1'35d1         Code  Wk  startup_S32K148.o [20]
DMA10_IRQHandler           0x1'35d1         Code  Wk  startup_S32K148.o [20]
DMA11_IRQHandler           0x1'35d1         Code  Wk  startup_S32K148.o [20]
DMA12_IRQHandler           0x1'35d1         Code  Wk  startup_S32K148.o [20]
DMA13_IRQHandler           0x1'35d1         Code  Wk  startup_S32K148.o [20]
DMA14_IRQHandler           0x1'35d1         Code  Wk  startup_S32K148.o [20]
DMA15_IRQHandler           0x1'35d1         Code  Wk  startup_S32K148.o [20]
DMA1_IRQHandler            0x1'35d1         Code  Wk  startup_S32K148.o [20]
DMA2_IRQHandler            0x1'35d1         Code  Wk  startup_S32K148.o [20]
DMA3_IRQHandler            0x1'35d1         Code  Wk  startup_S32K148.o [20]
DMA4_IRQHandler            0x1'35d1         Code  Wk  startup_S32K148.o [20]
DMA5_IRQHandler            0x1'35d1         Code  Wk  startup_S32K148.o [20]
DMA6_IRQHandler            0x1'35d1         Code  Wk  startup_S32K148.o [20]
DMA7_IRQHandler            0x1'35d1         Code  Wk  startup_S32K148.o [20]
DMA8_IRQHandler            0x1'35d1         Code  Wk  startup_S32K148.o [20]
DMA9_IRQHandler            0x1'35d1         Code  Wk  startup_S32K148.o [20]
DMA_Error_IRQHandler       0x1'35d1         Code  Wk  startup_S32K148.o [20]
Data_Default$$Base      0x1fff'b6fc          --   Gb  - Linker created -
Data_Default$$Limit     0x1fff'bbcc          --   Gb  - Linker created -
Data_Default_INIT$$Base
                        0x1fff'bbcc          --   Gb  - Linker created -
Data_Default_INIT$$Limit
                        0x1fff'bbcc          --   Gb  - Linker created -
Dcm_CfgDiagServiceInfo     0x2'94e4   0x78  Data  Gb  Dcm_Lcfg.o [2]
Dcm_CfgDiagServiceInfoGetEntryOrNull
                             0x40c3    0xc  Code  Lc  Dcm.o [12]
Dcm_CfgDiagSvcCancellers
                           0x2'9594    0x4  Data  Gb  Dcm_Lcfg.o [2]
Dcm_CfgDiagSvcIdExecPrecondTable
                           0x2'955c    0xc  Data  Gb  Dcm_Lcfg.o [2]
Dcm_CfgDiagSvcIdLookUpTable
                           0x2'9448    0xc  Data  Gb  Dcm_Lcfg.o [2]
Dcm_CfgDiagSvcInitializers
                           0x2'94dc    0x8  Data  Gb  Dcm_Lcfg.o [2]
Dcm_CfgDiagSvcPostProcessors
                           0x2'9568   0x20  Data  Gb  Dcm_Lcfg.o [2]
Dcm_CfgDiagSvcUpdaters     0x2'9588    0xc  Data  Gb  Dcm_Lcfg.o [2]
Dcm_CfgDidMgrDidInfo       0x2'94a4    0x8  Data  Gb  Dcm_Lcfg.o [2]
Dcm_CfgDidMgrDidLookUpTable
                           0x2'9464    0x4  Data  Gb  Dcm_Lcfg.o [2]
Dcm_CfgDidMgrDidOpClassInfo
                           0x2'94b4    0x4  Data  Gb  Dcm_Lcfg.o [2]
Dcm_CfgDidMgrDidOpClassInfoGetEntry
                             0x37c9    0x8  Code  Lc  Dcm.o [12]
Dcm_CfgDidMgrDidOpInfo     0x2'94ac    0x8  Data  Gb  Dcm_Lcfg.o [2]
Dcm_CfgDidMgrSignalOpClassInfo
                           0x2'94b8   0x24  Data  Gb  Dcm_Lcfg.o [2]
Dcm_CfgDidMgrSignalOpClassInfoGetEntryOrNull
                             0x37bd    0xc  Code  Lc  Dcm.o [12]
Dcm_CfgNetAllComMChannelMap
                           0x2'9ccd    0x1  Data  Gb  Dcm_Lcfg.o [2]
Dcm_CfgNetBufferInfo       0x2'9468    0x8  Data  Gb  Dcm_Lcfg.o [2]
Dcm_CfgNetBuffer_000    0x1fff'b928   0x34  Data  Lc  Dcm_Lcfg.o [2]
Dcm_CfgNetConnComMChannelMap
                           0x2'9ccc    0x1  Data  Gb  Dcm_Lcfg.o [2]
Dcm_CfgNetConnectionInfo
                           0x2'9474    0x8  Data  Gb  Dcm_Lcfg.o [2]
Dcm_CfgNetNetworkHandleLookUpTable
                           0x2'9cba    0x2  Data  Gb  Dcm_Lcfg.o [2]
Dcm_CfgNetProtocolInfo     0x2'947c    0xc  Data  Gb  Dcm_Lcfg.o [2]
Dcm_CfgNetRxPduInfo        0x2'9470    0x4  Data  Gb  Dcm_Lcfg.o [2]
Dcm_CfgNetTxPduInfo        0x2'9ccb    0x1  Data  Gb  Dcm_Lcfg.o [2]
Dcm_CfgStatePreconditions
                           0x2'9488    0x4  Data  Gb  Dcm_Lcfg.o [2]
Dcm_CfgStateSecurityInfo
                           0x2'94a0    0x4  Data  Gb  Dcm_Lcfg.o [2]
Dcm_CfgStateSessionInfo
                           0x2'948c   0x14  Data  Gb  Dcm_Lcfg.o [2]
Dcm_CfgSvc10SubFuncExecPrecondTable
                           0x2'95a4    0x4  Data  Gb  Dcm_Lcfg.o [2]
Dcm_CfgSvc10SubFuncInfo
                           0x2'9598    0xc  Data  Gb  Dcm_Lcfg.o [2]
Dcm_CfgSvc10SubFuncLookUpTable
                           0x2'9454    0x4  Data  Gb  Dcm_Lcfg.o [2]
Dcm_CfgSvc11SubFuncExecPrecondTable
                           0x2'9cce    0x1  Data  Gb  Dcm_Lcfg.o [2]
Dcm_CfgSvc11SubFuncInfo
                           0x2'95a8    0x4  Data  Gb  Dcm_Lcfg.o [2]
Dcm_CfgSvc11SubFuncInfoGetEntryOrNull
                             0x4a5d    0xa  Code  Lc  Dcm.o [12]
Dcm_CfgSvc11SubFuncLookUpTable
                           0x2'9cb6    0x2  Data  Gb  Dcm_Lcfg.o [2]
Dcm_CfgSvc19SubFuncExecPrecondTable
                           0x2'95c4    0x4  Data  Gb  Dcm_Lcfg.o [2]
Dcm_CfgSvc19SubFuncInfo
                           0x2'95ac   0x18  Data  Gb  Dcm_Lcfg.o [2]
Dcm_CfgSvc19SubFuncInfoGetEntryOrNull
                             0x4bcf    0xa  Code  Lc  Dcm.o [12]
Dcm_CfgSvc19SubFuncLookUpTable
                           0x2'9458    0x4  Data  Gb  Dcm_Lcfg.o [2]
Dcm_CfgSvc27SecLevelInfo
                           0x2'95d8    0xc  Data  Gb  Dcm_Lcfg.o [2]
Dcm_CfgSvc27SecLevelInfoGetEntryOrNull
                             0x5277    0xc  Code  Lc  Dcm.o [12]
Dcm_CfgSvc27SubFuncExecPrecondTable
                           0x2'9cbc    0x2  Data  Gb  Dcm_Lcfg.o [2]
Dcm_CfgSvc27SubFuncInfo
                           0x2'95c8   0x10  Data  Gb  Dcm_Lcfg.o [2]
Dcm_CfgSvc27SubFuncInfoGetEntryOrNull
                             0x526d    0xa  Code  Lc  Dcm.o [12]
Dcm_CfgSvc27SubFuncLookUpTable
                           0x2'945c    0x4  Data  Gb  Dcm_Lcfg.o [2]
Dcm_CfgSvc3ESubFuncExecPrecondTable
                           0x2'9ccf    0x1  Data  Gb  Dcm_Lcfg.o [2]
Dcm_CfgSvc3ESubFuncLookUpTable
                           0x2'9cb8    0x2  Data  Gb  Dcm_Lcfg.o [2]
Dcm_CfgSvc85SubFuncExecPrecondTable
                           0x2'9cbe    0x2  Data  Gb  Dcm_Lcfg.o [2]
Dcm_CfgSvc85SubFuncInfo
                           0x2'95e4   0x10  Data  Gb  Dcm_Lcfg.o [2]
Dcm_CfgSvc85SubFuncInfoGetEntryOrNull
                             0x55c3    0xa  Code  Lc  Dcm.o [12]
Dcm_CfgSvc85SubFuncLookUpTable
                           0x2'9460    0x4  Data  Gb  Dcm_Lcfg.o [2]
Dcm_ComM_FullComModeEntered
                             0x6735   0x32  Code  Gb  Dcm.o [12]
Dcm_ComM_NoComModeEntered
                             0x66d1   0x32  Code  Gb  Dcm.o [12]
Dcm_ComM_SilentComModeEntered
                             0x6703   0x32  Code  Gb  Dcm.o [12]
Dcm_Confirmation           0x1'2265    0x2  Code  Gb  Dcm_Callout_Stubs.o [4]
Dcm_CopyRxData               0x67d5   0x8e  Code  Gb  Dcm.o [12]
Dcm_CopyTxData               0x68ad   0xac  Code  Gb  Dcm.o [12]
Dcm_DebugInitState      0x1fff'bbb7    0x1  Data  Lc  Dcm.o [12]
Dcm_DemApiConvDemRsltGetNextFilteredItem
                             0x5d21   0x34  Code  Lc  Dcm.o [12]
Dcm_DemApiGetNrcForDemRetValue
                             0x5ced   0x34  Code  Lc  Dcm.o [12]
Dcm_DemApiNrcMapGetNumberOfFilteredDTC
                           0x2'93a0    0x4  Data  Lc  Dcm.o [12]
Dcm_DemApiNrcMapSelectDTC
                           0x2'9cca    0x1  Data  Lc  Dcm.o [12]
Dcm_DemApiNrcMapSetDTCFilter
                           0x2'939c    0x4  Data  Lc  Dcm.o [12]
Dcm_DiagAcceptNewRequest
                             0x3c7d   0x2e  Code  Lc  Dcm.o [12]
Dcm_DiagCommitData           0x3561    0xe  Code  Lc  Dcm.o [12]
Dcm_DiagConsumeReqData       0x34ed    0xe  Code  Lc  Dcm.o [12]
Dcm_DiagConsumeReqDataAsU16
                             0x350d   0x1e  Code  Lc  Dcm.o [12]
Dcm_DiagConsumeReqDataAsU24
                             0x352b   0x2a  Code  Lc  Dcm.o [12]
Dcm_DiagConsumeReqDataAsU8
                             0x34fb   0x12  Code  Lc  Dcm.o [12]
Dcm_DiagDataContextSetAvailLen
                             0x356f    0x4  Code  Lc  Dcm.o [12]
Dcm_DiagFblResDoGetProgCond
                             0x4699   0xa6  Code  Lc  Dcm.o [12]
Dcm_DiagFblResDoProcessTxConfirmation
                             0x48a9   0x42  Code  Lc  Dcm.o [12]
Dcm_DiagFblResDoResetFlags
                             0x485f   0x4a  Code  Lc  Dcm.o [12]
Dcm_DiagFblResDoWaitTxComm
                             0x4755  0x10a  Code  Lc  Dcm.o [12]
Dcm_DiagGetCancelFunc        0x4253    0xa  Code  Lc  Dcm.o [12]
Dcm_DiagGetDataContextBuffer
                             0x3573    0x8  Code  Lc  Dcm.o [12]
Dcm_DiagGetPostProcessResult
                             0x429f   0x22  Code  Lc  Dcm.o [12]
Dcm_DiagGetPostProcessorFunc
                             0x423f    0xa  Code  Lc  Dcm.o [12]
Dcm_DiagGetResDataAt         0x34e7    0x6  Code  Lc  Dcm.o [12]
Dcm_DiagGetUpdateFunc        0x4249    0xa  Code  Lc  Dcm.o [12]
Dcm_DiagHandleApplNrc        0x340f   0x1e  Code  Lc  Dcm.o [12]
Dcm_DiagHandleDispatching
                             0x4455   0x52  Code  Lc  Dcm.o [12]
Dcm_DiagHandleSuppressBit
                             0x4415   0x40  Code  Lc  Dcm.o [12]
Dcm_DiagInit                 0x425d   0x36  Code  Lc  Dcm.o [12]
Dcm_DiagInitDataContext
                             0x3555    0xc  Code  Lc  Dcm.o [12]
Dcm_DiagInitiateServiceProcessing
                             0x437b   0x92  Code  Lc  Dcm.o [12]
Dcm_DiagLookUpFilter         0x62ab   0x42  Code  Lc  Dcm.o [12]
Dcm_DiagNoSequenceChecker
                             0x62f5    0x6  Code  Lc  Dcm.o [12]
Dcm_DiagObjNotFoundNrcs
                           0x2'93a4    0x4  Data  Lc  Dcm.o [12]
Dcm_DiagOnFblResTxFinished
                             0x60df   0x2a  Code  Lc  Dcm.o [12]
Dcm_DiagOnTxFinished         0x3cab   0x30  Code  Lc  Dcm.o [12]
Dcm_DiagProvideDataAsU16
                             0x358b   0x20  Code  Lc  Dcm.o [12]
Dcm_DiagProvideDataAsU24
                             0x35ab   0x2a  Code  Lc  Dcm.o [12]
Dcm_DiagProvideDataAsU8
                             0x357b   0x10  Code  Lc  Dcm.o [12]
Dcm_DiagProvideResData       0x3455    0xe  Code  Lc  Dcm.o [12]
Dcm_DiagProvideResDataAsU16
                             0x347d   0x2e  Code  Lc  Dcm.o [12]
Dcm_DiagProvideResDataAsU24
                             0x34ab   0x3c  Code  Lc  Dcm.o [12]
Dcm_DiagProvideResDataAsU8
                             0x3463   0x1a  Code  Lc  Dcm.o [12]
Dcm_DiagPutStartUpFblResBuffer
                             0x4293    0xc  Code  Lc  Dcm.o [12]
Dcm_DiagRcrRpTxFinished
                             0x5fe3   0x2e  Code  Lc  Dcm.o [12]
Dcm_DiagRxIndication         0x6065   0x1e  Code  Lc  Dcm.o [12]
Dcm_DiagSetNewReqBaseToCurProgress
                             0x41f1   0x16  Code  Lc  Dcm.o [12]
Dcm_DiagSetNewResBaseToCurProgress
                             0x4219   0x26  Code  Lc  Dcm.o [12]
Dcm_DiagSetP2Timings         0x6011   0x54  Code  Lc  Dcm.o [12]
Dcm_DiagSetQueuedTranspObj
                             0x4207    0xc  Code  Lc  Dcm.o [12]
Dcm_DiagSetReqDataAsU8       0x3433    0xe  Code  Lc  Dcm.o [12]
Dcm_DiagSetReqDataAsU8At
                             0x342d    0x6  Code  Lc  Dcm.o [12]
Dcm_DiagSetResDataAsU8At
                             0x3441    0x6  Code  Lc  Dcm.o [12]
Dcm_DiagSvcWithOnlySubFuncReqLengthGetter
                             0x62f1    0x4  Code  Lc  Dcm.o [12]
Dcm_DiagSvcWithSubFuncStateCheck
                             0x62fb   0x36  Code  Lc  Dcm.o [12]
Dcm_DiagSwitchProcessingContext
                             0x4375    0x6  Code  Lc  Dcm.o [12]
Dcm_DiagTaskFblRes           0x61fd   0x2e  Code  Lc  Dcm.o [12]
Dcm_DiagTaskRx               0x61ab   0x38  Code  Lc  Dcm.o [12]
Dcm_DiagTaskTx               0x6287   0x24  Code  Lc  Dcm.o [12]
Dcm_DiagTaskWorker           0x622b   0x5c  Code  Lc  Dcm.o [12]
Dcm_DiagTxFinalization       0x6089   0x56  Code  Lc  Dcm.o [12]
Dcm_DiagTxPostponeFinalPagedResponse
                             0x48eb   0x1c  Code  Lc  Dcm.o [12]
Dcm_DiagTxStartFinalResponse
                             0x490d   0x9a  Code  Lc  Dcm.o [12]
Dcm_DiagTxStartRcrRpResponse
                             0x49a7   0x48  Code  Lc  Dcm.o [12]
Dcm_DiagUpdateResLength
                             0x3447    0xe  Code  Lc  Dcm.o [12]
Dcm_DiagValidateAndDispatchService
                             0x44a7   0xde  Code  Lc  Dcm.o [12]
Dcm_DiagVerifyServiceWithSubFunction
                             0x633d   0x92  Code  Lc  Dcm.o [12]
Dcm_DiagWorkerDoPostProcessing
                             0x42c1   0x74  Code  Lc  Dcm.o [12]
Dcm_DiagWorkerDoRepeat       0x4617   0x82  Code  Lc  Dcm.o [12]
Dcm_DiagWorkerProcessNewRequest
                             0x4585   0x58  Code  Lc  Dcm.o [12]
Dcm_DiagWorkerProcessRcrRpTxEnd
                             0x45dd   0x3a  Code  Lc  Dcm.o [12]
Dcm_DiagWorkerSetDefSessionExtern
                             0x4335   0x40  Code  Lc  Dcm.o [12]
Dcm_DidMgrConcreteDidLookUp
                             0x3ba3   0x50  Code  Lc  Dcm.o [12]
Dcm_DidMgrDidHasLock         0x5d55   0x2c  Code  Lc  Dcm.o [12]
Dcm_DidMgrDidIsFree          0x5d81   0x2c  Code  Lc  Dcm.o [12]
Dcm_DidMgrDidLock            0x5dad   0x46  Code  Lc  Dcm.o [12]
Dcm_DidMgrDidRelease         0x5df3   0x38  Code  Lc  Dcm.o [12]
Dcm_DidMgrFilterDidLookUp
                             0x3b75   0x2e  Code  Lc  Dcm.o [12]
Dcm_DidMgrGetDidInfo         0x6b3d   0x22  Code  Gb  Dcm.o [12]
Dcm_DidMgrGetSignalLength
                             0x37d1   0x1e  Code  Lc  Dcm.o [12]
Dcm_DidMgrInit               0x3799   0x24  Code  Lc  Dcm.o [12]
Dcm_DidMgrInitOpClassInfo
                             0x5e63   0x38  Code  Lc  Dcm.o [12]
Dcm_DidMgrInitOpInfo         0x5e2b   0x38  Code  Lc  Dcm.o [12]
Dcm_DidMgrInitOpTypeHandler
                             0x5e9b   0x2a  Code  Lc  Dcm.o [12]
Dcm_DidMgrReadCheckCond
                             0x5f3d   0x4c  Code  Lc  Dcm.o [12]
Dcm_DidMgrReadCheckCondSignal
                             0x3b07   0x6e  Code  Lc  Dcm.o [12]
Dcm_DidMgrReadDid            0x5f89   0x5a  Code  Lc  Dcm.o [12]
Dcm_DidMgrReadLength         0x5edd   0x5c  Code  Lc  Dcm.o [12]
Dcm_DidMgrReadLengthSignal
                             0x3a9f   0x68  Code  Lc  Dcm.o [12]
Dcm_DidMgrReadMultiSignal
                             0x3bf3   0x8a  Code  Lc  Dcm.o [12]
Dcm_DidMgrReadSignal         0x39ed   0xb2  Code  Lc  Dcm.o [12]
Dcm_DidMgrReadSignalAsync
                             0x3905   0x58  Code  Lc  Dcm.o [12]
Dcm_DidMgrReadSignalGap
                             0x39cf   0x1e  Code  Lc  Dcm.o [12]
Dcm_DidMgrReadSignalSync
                             0x395d   0x44  Code  Lc  Dcm.o [12]
Dcm_DidMgrReadSignalWrapper
                             0x39a1   0x2e  Code  Lc  Dcm.o [12]
Dcm_DidMgrWrite              0x38af   0x56  Code  Lc  Dcm.o [12]
Dcm_DidMgrWriteSignal        0x37ef   0xc0  Code  Lc  Dcm.o [12]
Dcm_GetProgConditions      0x1'226b    0x4  Code  Gb  Dcm_Callout_Stubs.o [4]
Dcm_Init                     0x69cf   0x2c  Code  Gb  Dcm.o [12]
Dcm_InitMemory               0x69c5    0xa  Code  Gb  Dcm.o [12]
Dcm_InstanceContext     0x1fff'b828   0xc0  Data  Lc  Dcm.o [12]
Dcm_MainFunction             0x69fb   0x30  Code  Gb  Dcm.o [12]
Dcm_ModeInit                 0x40cf   0x12  Code  Lc  Dcm.o [12]
Dcm_ModeSwitchAckEcuReset
                             0x40f9    0xe  Code  Lc  Dcm.o [12]
Dcm_ModeSwitchAckResultInterpreter
                             0x40e1   0x18  Code  Lc  Dcm.o [12]
Dcm_ModeSwitchDtcSetting
                             0x5b73   0x16  Code  Lc  Dcm.o [12]
Dcm_ModeSwitchEcuReset       0x4107    0xc  Code  Lc  Dcm.o [12]
Dcm_NetAllocateOrGetTranspObjectOrNull
                             0x5801   0x4e  Code  Lc  Dcm.o [12]
Dcm_NetBufferInit            0x3d6d   0x18  Code  Lc  Dcm.o [12]
Dcm_NetComMInit              0x3d51   0x1c  Code  Lc  Dcm.o [12]
Dcm_NetCommonInit            0x3d39   0x18  Code  Lc  Dcm.o [12]
Dcm_NetComposeAddNegResponse
                             0x3de7   0x22  Code  Lc  Dcm.o [12]
Dcm_NetConnectionInit        0x3d85   0x16  Code  Lc  Dcm.o [12]
Dcm_NetCopyLinearTxData
                             0x4011   0x84  Code  Lc  Dcm.o [12]
Dcm_NetCopyRxData            0x3f4b   0x8a  Code  Lc  Dcm.o [12]
Dcm_NetCopyTxData            0x4095   0x20  Code  Lc  Dcm.o [12]
Dcm_NetGetBufferContext
                             0x3d07    0x8  Code  Lc  Dcm.o [12]
Dcm_NetGetBufferInfo         0x3d2f    0xa  Code  Lc  Dcm.o [12]
Dcm_NetGetComMContext        0x3cfb    0xc  Code  Lc  Dcm.o [12]
Dcm_NetGetConnIdByTesterAddress
                             0x58a1   0x2c  Code  Lc  Dcm.o [12]
Dcm_NetGetTranspObjOfConnectionOrNull
                             0x584f   0x24  Code  Lc  Dcm.o [12]
Dcm_NetGetTransportObject
                             0x3d0f    0xe  Code  Lc  Dcm.o [12]
Dcm_NetInit                  0x3dcb   0x1c  Code  Lc  Dcm.o [12]
Dcm_NetIsPduInfoValid        0x3f2d   0x1e  Code  Lc  Dcm.o [12]
Dcm_NetIsRxPduIdValid        0x3cdb   0x10  Code  Lc  Dcm.o [12]
Dcm_NetIsTxPduIdValid        0x3ceb   0x10  Code  Lc  Dcm.o [12]
Dcm_NetLockConnectionOrNull
                             0x3e8d   0x52  Code  Lc  Dcm.o [12]
Dcm_NetPeriodicMsgInit       0x3dc9    0x2  Code  Lc  Dcm.o [12]
Dcm_NetPutToConn2TObjMap
                             0x3d1d    0xc  Code  Lc  Dcm.o [12]
Dcm_NetRegisterActiveConnection
                             0x3e09   0x28  Code  Lc  Dcm.o [12]
Dcm_NetRegisterComMActivity
                             0x56d1   0x58  Code  Lc  Dcm.o [12]
Dcm_NetSetComModeEntered
                             0x58d7   0x26  Code  Lc  Dcm.o [12]
Dcm_NetStartOfReception
                             0x5909   0xd2  Code  Lc  Dcm.o [12]
Dcm_NetTaskTx                0x56af   0x22  Code  Lc  Dcm.o [12]
Dcm_NetTpRxIndication        0x3fd5   0x3c  Code  Lc  Dcm.o [12]
Dcm_NetTpRxIndicationNotOk
                             0x3edf   0x18  Code  Lc  Dcm.o [12]
Dcm_NetTpRxIndicationOk
                             0x3ef7   0x36  Code  Lc  Dcm.o [12]
Dcm_NetTransmitUsdtResponse
                             0x3e31   0x5c  Code  Lc  Dcm.o [12]
Dcm_NetTranspObjInit         0x3d9b   0x2e  Code  Lc  Dcm.o [12]
Dcm_NetTranspObjRelease
                             0x5881   0x20  Code  Lc  Dcm.o [12]
Dcm_NetUnRegisterActiveConnection
                             0x57b5   0x40  Code  Lc  Dcm.o [12]
Dcm_NetUnRegisterAllComMActivity
                             0x577b   0x36  Code  Lc  Dcm.o [12]
Dcm_NetUnRegisterComMActivity
                             0x572d   0x4e  Code  Lc  Dcm.o [12]
Dcm_NetUsdtTxConfirmation
                             0x58cd    0xa  Code  Lc  Dcm.o [12]
Dcm_NetWriteAddBufferU8At
                             0x3d29    0x6  Code  Lc  Dcm.o [12]
Dcm_OnTimeoutFblRes          0x6109    0xe  Code  Lc  Dcm.o [12]
Dcm_OnTimeoutP2              0x6117    0xe  Code  Lc  Dcm.o [12]
Dcm_OnTimeoutS3              0x6125   0x20  Code  Lc  Dcm.o [12]
Dcm_OnTimeoutSecurityAccess_0
                             0x65bb   0x36  Code  Lc  Dcm.o [12]
Dcm_PagedBufferCancel        0x5a0d   0x54  Code  Lc  Dcm.o [12]
Dcm_PagedBufferCopyData
                             0x370f   0x8a  Code  Lc  Dcm.o [12]
Dcm_PagedBufferDataPadding
                             0x6b87   0x26  Code  Gb  Dcm.o [12]
Dcm_PagedBufferDefragmentPage
                             0x35df   0x34  Code  Lc  Dcm.o [12]
Dcm_PagedBufferExecute       0x59db   0x2c  Code  Lc  Dcm.o [12]
Dcm_PagedBufferInit          0x35d5    0xa  Code  Lc  Dcm.o [12]
Dcm_PagedBufferStart         0x5add   0x62  Code  Lc  Dcm.o [12]
Dcm_PagedBufferTask          0x5a69   0x74  Code  Lc  Dcm.o [12]
Dcm_PagedBufferUpdatePage
                             0x3613   0xfc  Code  Lc  Dcm.o [12]
Dcm_ProcessingDone           0x6145   0x54  Code  Lc  Dcm.o [12]
Dcm_RepeaterDeadEnd          0x6bad    0x4  Code  Gb  Dcm.o [12]
Dcm_RepeaterExecute          0x5b3f   0x34  Code  Lc  Dcm.o [12]
Dcm_RepeaterNextStep         0x40b5    0xe  Code  Lc  Dcm.o [12]
Dcm_RepeaterSetCallee        0x6a4f   0x12  Code  Lc  Dcm.o [12]
Dcm_Service10FastPostProcessor
                             0x6bd5   0x18  Code  Gb  Dcm.o [12]
Dcm_Service10PostProcessor
                             0x6bed   0x30  Code  Gb  Dcm.o [12]
Dcm_Service10Processor       0x6bb1   0x24  Code  Gb  Dcm.o [12]
Dcm_Service11FastPostProcessor
                             0x6c71   0x12  Code  Gb  Dcm.o [12]
Dcm_Service11PostProcessor
                             0x6c61   0x10  Code  Gb  Dcm.o [12]
Dcm_Service11Processor       0x6c25   0x3c  Code  Gb  Dcm.o [12]
Dcm_Service11_01Processor
                             0x6c83    0xc  Code  Gb  Dcm.o [12]
Dcm_Service14Processor       0x6c8f   0x48  Code  Gb  Dcm.o [12]
Dcm_Service19PostProcessor
                             0x6d69    0xc  Code  Gb  Dcm.o [12]
Dcm_Service19Processor       0x6cd7   0x92  Code  Gb  Dcm.o [12]
Dcm_Service19Updater         0x6d75    0xe  Code  Gb  Dcm.o [12]
Dcm_Service19UtiCopyData
                             0x4f29   0x2a  Code  Lc  Dcm.o [12]
Dcm_Service19_01Processor
                             0x6d89   0x26  Code  Gb  Dcm.o [12]
Dcm_Service19_02Processor
                             0x6daf   0x14  Code  Gb  Dcm.o [12]
Dcm_Service19_06Processor
                             0x6dc3    0xc  Code  Gb  Dcm.o [12]
Dcm_Service22Processor       0x6dd5   0x50  Code  Gb  Dcm.o [12]
Dcm_Service27CheckAttemptsExceededRepeater
                             0x5487   0x50  Code  Lc  Dcm.o [12]
Dcm_Service27Init            0x6b5f   0x28  Code  Gb  Dcm.o [12]
Dcm_Service27KeyProcessor
                             0x6f5d    0xe  Code  Gb  Dcm.o [12]
Dcm_Service27KeyRepeater
                             0x540d   0x7a  Code  Lc  Dcm.o [12]
Dcm_Service27PostProcessor
                             0x6e85   0x4e  Code  Gb  Dcm.o [12]
Dcm_Service27Processor       0x6e2d   0x54  Code  Gb  Dcm.o [12]
Dcm_Service27SeedProcessor
                             0x6edd   0x76  Code  Gb  Dcm.o [12]
Dcm_Service27SeedRepeater
                             0x537d   0x90  Code  Lc  Dcm.o [12]
Dcm_Service2EProcessor       0x6f6b   0x3a  Code  Gb  Dcm.o [12]
Dcm_Service3EProcessor       0x6fa5   0x1c  Code  Gb  Dcm.o [12]
Dcm_Service85PostProcessor
                             0x6ff5   0x18  Code  Gb  Dcm.o [12]
Dcm_Service85Processor       0x6fc5   0x30  Code  Gb  Dcm.o [12]
Dcm_ServiceNoCancel        0x1'358f    0x2  Code  Lc  Dcm_Lcfg.o [2]
Dcm_ServiceNoPostProcessor
                           0x1'3589    0x2  Code  Lc  Dcm_Lcfg.o [2]
Dcm_ServiceNoUpdater       0x1'358b    0x4  Code  Lc  Dcm_Lcfg.o [2]
Dcm_SetNegResponse           0x6199   0x12  Code  Lc  Dcm.o [12]
Dcm_SetProgConditions      0x1'2267    0x4  Code  Gb  Dcm_Callout_Stubs.o [4]
Dcm_SingletonContext    0x1fff'b8e8   0x40  Data  Lc  Dcm.o [12]
Dcm_StartOfReception         0x6767   0x6e  Code  Gb  Dcm.o [12]
Dcm_StateCheck               0x5b8d   0x40  Code  Lc  Dcm.o [12]
Dcm_StateInit                0x4113   0x1a  Code  Lc  Dcm.o [12]
Dcm_StateNotifyServiceProcessors
                             0x412d    0xa  Code  Lc  Dcm.o [12]
Dcm_StateSessionNrcs       0x2'9398    0x4  Data  Lc  Dcm.o [12]
Dcm_StateSetSecurity         0x5c0f   0x16  Code  Lc  Dcm.o [12]
Dcm_StateSetSession          0x5bcd   0x42  Code  Lc  Dcm.o [12]
Dcm_Sv19UtiStartReporting
                             0x4cc5    0xe  Code  Lc  Dcm.o [12]
Dcm_Svc10Handler             0x49f5   0x68  Code  Lc  Dcm.o [12]
Dcm_Svc11Handler             0x4a67   0x3c  Code  Lc  Dcm.o [12]
Dcm_Svc11SubFuncHandler
                             0x4aa9   0x20  Code  Lc  Dcm.o [12]
Dcm_Svc11_EcuRst_WaitForAck
                             0x4ac9   0x24  Code  Lc  Dcm.o [12]
Dcm_Svc11_ProcessEcuReset
                             0x63d1   0x22  Code  Lc  Dcm.o [12]
Dcm_Svc14Handler             0x4aed   0x2a  Code  Lc  Dcm.o [12]
Dcm_Svc14NrcMapClearDTC
                           0x2'93a8    0xc  Data  Lc  Dcm.o [12]
Dcm_Svc14_XX_RepeaterProxy
                             0x4b17   0x32  Code  Lc  Dcm.o [12]
Dcm_Svc14_XX_RepeaterProxyCheckSelectionResult
                             0x4b87   0x48  Code  Lc  Dcm.o [12]
Dcm_Svc14_XX_RepeaterProxySelectDTC
                             0x4b4d   0x3a  Code  Lc  Dcm.o [12]
Dcm_Svc19DemChainDtcCount
                           0x2'9cb2    0x2  Data  Lc  Dcm.o [12]
Dcm_Svc19DemChainReadDtcByStatus
                           0x2'9cb4    0x2  Data  Lc  Dcm.o [12]
Dcm_Svc19DemChainReadExtRecords
                           0x2'9440    0x8  Data  Lc  Dcm.o [12]
Dcm_Svc19DemDtcFilterInfo
                           0x2'9424   0x1c  Data  Lc  Dcm.o [12]
Dcm_Svc19ExtDataRecords
                           0x2'93b4    0x4  Data  Lc  Dcm.o [12]
Dcm_Svc19Handler             0x4bd9   0x44  Code  Lc  Dcm.o [12]
Dcm_Svc19NrcMapAnyAbleRecordUpdate
                           0x2'93bc    0x8  Data  Lc  Dcm.o [12]
Dcm_Svc19NrcMapGetExtendedDataRecordByDTC
                           0x2'93d4    0x8  Data  Lc  Dcm.o [12]
Dcm_Svc19NrcMapGetSizeOfExtendedDataRecordByDTC
                           0x2'93cc    0x8  Data  Lc  Dcm.o [12]
Dcm_Svc19NrcMapGetStatusOfDTC
                           0x2'93c4    0x8  Data  Lc  Dcm.o [12]
Dcm_Svc19NrcMapStdReturnType
                           0x2'93b8    0x4  Data  Lc  Dcm.o [12]
Dcm_Svc19ReqLengthGetter
                             0x63f3    0xc  Code  Lc  Dcm.o [12]
Dcm_Svc19SubFuncHandler
                             0x4c1d   0x20  Code  Lc  Dcm.o [12]
Dcm_Svc19UtiChainNext        0x640f   0x14  Code  Lc  Dcm.o [12]
Dcm_Svc19UtiChainStart       0x63ff   0x10  Code  Lc  Dcm.o [12]
Dcm_Svc19UtiCpyDemGetExtRecord
                             0x4e81   0x98  Code  Lc  Dcm.o [12]
Dcm_Svc19UtiCpyDemGetNxtFltrdDtc
                             0x4e3b   0x46  Code  Lc  Dcm.o [12]
Dcm_Svc19UtiDemDisableRecordUpdate
                             0x4cd3   0x38  Code  Lc  Dcm.o [12]
Dcm_Svc19UtiDemGetNumFltrdDtc
                             0x4dd5   0x3c  Code  Lc  Dcm.o [12]
Dcm_Svc19UtiDemGetNxtFltrdDtc
                             0x4e1d   0x10  Code  Lc  Dcm.o [12]
Dcm_Svc19UtiDemGetSizeOfExtRecord
                             0x4d7d   0x58  Code  Lc  Dcm.o [12]
Dcm_Svc19UtiDemGetStatusOfDtc
                             0x4d0b   0x5a  Code  Lc  Dcm.o [12]
Dcm_Svc19UtiDemSelectDTC
                             0x4c3d   0x34  Code  Lc  Dcm.o [12]
Dcm_Svc19UtiDemSelectExtRecord
                             0x4d69   0x14  Code  Lc  Dcm.o [12]
Dcm_Svc19UtiDemSetDTCFilter
                             0x4c71   0x54  Code  Lc  Dcm.o [12]
Dcm_Svc19UtiPutNumFilteredDtc
                             0x4e2d    0xe  Code  Lc  Dcm.o [12]
Dcm_Svc19UtiReportDtcByStatusMaskData
                             0x6423   0xb0  Code  Lc  Dcm.o [12]
Dcm_Svc19UtiReportExtDataRecordByDtcNum
                             0x6571   0x4a  Code  Lc  Dcm.o [12]
Dcm_Svc19UtiReportNumDtcByStatusMaskData
                             0x64d3   0x96  Code  Lc  Dcm.o [12]
Dcm_Svc22CheckCondition
                             0x510d   0x5c  Code  Lc  Dcm.o [12]
Dcm_Svc22DidLookUp           0x504f   0xbe  Code  Lc  Dcm.o [12]
Dcm_Svc22GetDidInfoContext
                             0x4f53    0xc  Code  Lc  Dcm.o [12]
Dcm_Svc22GetLength           0x5171   0xbe  Code  Lc  Dcm.o [12]
Dcm_Svc22Handler             0x4f5f   0x3c  Code  Lc  Dcm.o [12]
Dcm_Svc22ReadData            0x522f   0x3e  Code  Lc  Dcm.o [12]
Dcm_Svc22ReadDid             0x4f9b   0x30  Code  Lc  Dcm.o [12]
Dcm_Svc22UtiReadData         0x4fcb   0x84  Code  Lc  Dcm.o [12]
Dcm_Svc27CounterInc          0x5291   0x1c  Code  Lc  Dcm.o [12]
Dcm_Svc27CounterSet          0x5283    0xe  Code  Lc  Dcm.o [12]
Dcm_Svc27Handler             0x52dd   0x72  Code  Lc  Dcm.o [12]
Dcm_Svc27ReqLengthGetter
                             0x65f1    0xc  Code  Lc  Dcm.o [12]
Dcm_Svc27SubFuncHandler
                             0x535d   0x20  Code  Lc  Dcm.o [12]
Dcm_Svc27SubFuncSequenceChecker
                             0x65fd   0x26  Code  Lc  Dcm.o [12]
Dcm_Svc27TimerSet            0x52ad   0x10  Code  Lc  Dcm.o [12]
Dcm_Svc27TimerStart          0x52bd   0x1c  Code  Lc  Dcm.o [12]
Dcm_Svc2ECheckAccess         0x557d   0x1e  Code  Lc  Dcm.o [12]
Dcm_Svc2EHandler             0x54d7   0xa6  Code  Lc  Dcm.o [12]
Dcm_Svc2EWriteData           0x559b   0x28  Code  Lc  Dcm.o [12]
Dcm_Svc85EnableDtcSetting
                             0x6629   0x52  Code  Lc  Dcm.o [12]
Dcm_Svc85Handler             0x55d5   0x90  Code  Lc  Dcm.o [12]
Dcm_Svc85ReqLengthGetter
                             0x667b    0x4  Code  Lc  Dcm.o [12]
Dcm_Svc85_XX_RepeaterProxy
                             0x667f   0x3e  Code  Lc  Dcm.o [12]
Dcm_TmrGetTimerInfoOrNull
                             0x41cf    0xa  Code  Lc  Dcm.o [12]
Dcm_TmrInit                  0x41e5    0xc  Code  Lc  Dcm.o [12]
Dcm_TmrResumeTimer           0x6b09   0x34  Code  Gb  Dcm.o [12]
Dcm_TmrSetTimer              0x41d9    0xc  Code  Lc  Dcm.o [12]
Dcm_TmrStartTimer            0x6aaf   0x36  Code  Gb  Dcm.o [12]
Dcm_TmrStopTimer             0x6ae5   0x24  Code  Gb  Dcm.o [12]
Dcm_TmrTaskTimer             0x5c57   0x92  Code  Lc  Dcm.o [12]
Dcm_TmrTimerInfo           0x2'9414   0x10  Data  Lc  Dcm.o [12]
Dcm_TpRxIndication           0x6863   0x4a  Code  Gb  Dcm.o [12]
Dcm_TpTxConfirmation         0x6961   0x64  Code  Gb  Dcm.o [12]
Dcm_TskClrEvent              0x6a93   0x1c  Code  Gb  Dcm.o [12]
Dcm_TskExecuteActiveTask
                             0x4181   0x4e  Code  Lc  Dcm.o [12]
Dcm_TskGetSchedulerContextOrNull
                             0x414b    0xa  Code  Lc  Dcm.o [12]
Dcm_TskGetTaskContextOrNull
                             0x4141    0xa  Code  Lc  Dcm.o [12]
Dcm_TskGetTaskInfoOrNull
                             0x4137    0xa  Code  Lc  Dcm.o [12]
Dcm_TskInit                  0x4155   0x2c  Code  Lc  Dcm.o [12]
Dcm_TskScheduler             0x5c25   0x32  Code  Lc  Dcm.o [12]
Dcm_TskSetEvent              0x6a61   0x32  Code  Gb  Dcm.o [12]
Dcm_TskTaskInfo            0x2'93dc   0x38  Data  Lc  Dcm.o [12]
Dcm_UtiLookUpUint16          0x566d   0x42  Code  Lc  Dcm.o [12]
Dcm_UtiLookUpUint8           0x6a2b   0x24  Code  Gb  Dcm.o [12]
Dcm_UtiMemCopySafe           0x33f5   0x1a  Code  Lc  Dcm.o [12]
Dcm_VarMgrLookUpFilter       0x63cf    0x2  Code  Lc  Dcm.o [12]
DebugMon_Handler           0x1'3563         Code  Wk  startup_S32K148.o [20]
DefaultISR                 0x1'35d1         Code  Wk  startup_S32K148.o [20]
Dem_Cfg_AdminData       0x1fff'b970    0xc  Data  Gb  Dem_Lcfg.o [2]
Dem_Cfg_ClearDTCTable   0x1fff'bb92    0x2  Data  Gb  Dem_Lcfg.o [2]
Dem_Cfg_CombinedGroupGetEvent
                             0xa445   0x12  Code  Lc  Dem.o [13]
Dem_Cfg_CombinedGroupIterGet
                             0xa1af    0x4  Code  Lc  Dem.o [13]
Dem_Cfg_CombinedGroupIterInit
                             0xa1b3    0x2  Code  Lc  Dem.o [13]
Dem_Cfg_ComplexIterClear
                             0xa1a5    0xa  Code  Lc  Dem.o [13]
Dem_Cfg_CycleIsAutomaticEnd
                             0xa1b5    0x6  Code  Lc  Dem.o [13]
Dem_Cfg_DTCSelectorTable
                        0x1fff'b97c   0x10  Data  Gb  Dem_Lcfg.o [2]
Dem_Cfg_DataCallbackType
                             0xa1bb    0xc  Code  Lc  Dem.o [13]
Dem_Cfg_DataCbkRead          0xa1c7    0xe  Code  Lc  Dem.o [13]
Dem_Cfg_DataCollectionTable
                           0x2'96ac   0x10  Data  Gb  Dem_Lcfg.o [2]
Dem_Cfg_DataElementTable
                           0x2'96bc   0x18  Data  Gb  Dem_Lcfg.o [2]
Dem_Cfg_DataIsStoredInNV
                             0xa1d5   0x1a  Code  Lc  Dem.o [13]
Dem_Cfg_DataSize             0xa1ef    0xe  Code  Lc  Dem.o [13]
Dem_Cfg_DebounceTable      0x2'96d4    0xc  Data  Gb  Dem_Lcfg.o [2]
Dem_Cfg_DidDataIterExists
                             0xa1fd   0x12  Code  Lc  Dem.o [13]
Dem_Cfg_DidDataIterGet       0xa20f    0xa  Code  Lc  Dem.o [13]
Dem_Cfg_DidDataIterInit
                             0xa219   0x26  Code  Lc  Dem.o [13]
Dem_Cfg_DidDataIterNext
                             0xa23f    0x8  Code  Lc  Dem.o [13]
Dem_Cfg_DidNumber            0xa247    0x6  Code  Lc  Dem.o [13]
Dem_Cfg_DidSize              0xa24d   0x10  Code  Lc  Dem.o [13]
Dem_Cfg_DtcTable           0x2'96e0   0x10  Data  Gb  Dem_Lcfg.o [2]
Dem_Cfg_ERecDid              0xa25d    0x4  Code  Lc  Dem.o [13]
Dem_Cfg_ERecType             0xa261   0x10  Code  Lc  Dem.o [13]
Dem_Cfg_ERecUpdate           0xa271   0x14  Code  Lc  Dem.o [13]
Dem_Cfg_EnableConditionGroupCounter
                        0x1fff'bbbc    0x1  Data  Gb  Dem_Lcfg.o [2]
Dem_Cfg_EnableConditionGroupState
                        0x1fff'bbbd    0x1  Data  Gb  Dem_Lcfg.o [2]
Dem_Cfg_EnableConditionState
                        0x1fff'bbbe    0x1  Data  Gb  Dem_Lcfg.o [2]
Dem_Cfg_EventAgingCycle
                             0xa285    0x4  Code  Lc  Dem.o [13]
Dem_Cfg_EventAgingTarget
                             0xa289    0x4  Code  Lc  Dem.o [13]
Dem_Cfg_EventAvailableByDefault
                             0xa28d    0x4  Code  Lc  Dem.o [13]
Dem_Cfg_EventAvailableByVariant
                             0xa291    0x4  Code  Lc  Dem.o [13]
Dem_Cfg_EventCbkData         0xa295    0x4  Code  Lc  Dem.o [13]
Dem_Cfg_EventCbkGetFDC       0xa299    0x4  Code  Lc  Dem.o [13]
Dem_Cfg_EventCbkInitFuncIterExists
                             0xa29d    0x4  Code  Lc  Dem.o [13]
Dem_Cfg_EventCbkInitFuncIterGet
                             0xa2a1    0x4  Code  Lc  Dem.o [13]
Dem_Cfg_EventCbkInitFuncIterInit
                             0xa2a5    0x2  Code  Lc  Dem.o [13]
Dem_Cfg_EventCbkInitFuncIterNext
                             0xa2a7    0x2  Code  Lc  Dem.o [13]
Dem_Cfg_EventCbkInitMonitor
                             0xa2a9    0x4  Code  Lc  Dem.o [13]
Dem_Cfg_EventCbkStatusIterExists
                             0xa2ad    0x4  Code  Lc  Dem.o [13]
Dem_Cfg_EventCbkStatusIterGet
                             0xa2b1    0x4  Code  Lc  Dem.o [13]
Dem_Cfg_EventCbkStatusIterInit
                             0xa2b5    0x2  Code  Lc  Dem.o [13]
Dem_Cfg_EventCbkStatusIterNext
                             0xa2b7    0x2  Code  Lc  Dem.o [13]
Dem_Cfg_EventCombinedGroup
                             0xa2b9    0x4  Code  Lc  Dem.o [13]
Dem_Cfg_EventDebounceContinuous
                             0xa2c1    0x6  Code  Lc  Dem.o [13]
Dem_Cfg_EventDebounceReset
                             0xa2c7    0x4  Code  Lc  Dem.o [13]
Dem_Cfg_EventDebounceType
                             0xa2cb    0x8  Code  Lc  Dem.o [13]
Dem_Cfg_EventDestination
                             0xa2d3    0x4  Code  Lc  Dem.o [13]
Dem_Cfg_EventFailedTarget
                             0xa2d7    0xc  Code  Lc  Dem.o [13]
Dem_Cfg_EventFunctionalUnit
                             0xa2e3    0x8  Code  Lc  Dem.o [13]
Dem_Cfg_EventGroupMask       0xa42b   0x1a  Code  Lc  Dem.o [13]
Dem_Cfg_EventInternalStatus
                        0x1fff'bb94    0x2  Data  Gb  Dem_Lcfg.o [2]
Dem_Cfg_EventIsCombined
                             0xa2bd    0x4  Code  Lc  Dem.o [13]
Dem_Cfg_EventJumpDownValue
                             0xa2eb    0x6  Code  Lc  Dem.o [13]
Dem_Cfg_EventJumpUpValue
                             0xa2f1    0x6  Code  Lc  Dem.o [13]
Dem_Cfg_EventLatchTestFailed
                             0xa2f7    0x4  Code  Lc  Dem.o [13]
Dem_Cfg_EventObdRelated
                             0xa3cf    0x6  Code  Lc  Dem.o [13]
Dem_Cfg_EventOperationCycle
                             0xa2fb    0x4  Code  Lc  Dem.o [13]
Dem_Cfg_EventPassedTarget
                             0xa2ff    0xc  Code  Lc  Dem.o [13]
Dem_Cfg_EventPrefailedStep
                             0xa30b    0x6  Code  Lc  Dem.o [13]
Dem_Cfg_EventPrepassedStep
                             0xa311    0xc  Code  Lc  Dem.o [13]
Dem_Cfg_EventPrestorageIndex
                             0xa31d    0x6  Code  Lc  Dem.o [13]
Dem_Cfg_EventPriority        0xa323    0x4  Code  Lc  Dem.o [13]
Dem_Cfg_EventSatelliteEventId
                             0xa327    0x6  Code  Lc  Dem.o [13]
Dem_Cfg_EventSatelliteId
                             0xa32d    0x4  Code  Lc  Dem.o [13]
Dem_Cfg_EventSeverity        0xa331    0x4  Code  Lc  Dem.o [13]
Dem_Cfg_EventSpecialIndicator
                             0xa335    0x4  Code  Lc  Dem.o [13]
Dem_Cfg_EventStorageTarget
                             0xa339    0x6  Code  Lc  Dem.o [13]
Dem_Cfg_EventSupportAging
                             0xa33f    0x4  Code  Lc  Dem.o [13]
Dem_Cfg_EventSupportImmediateNv
                             0xa343    0x4  Code  Lc  Dem.o [13]
Dem_Cfg_EventSupportJumpDown
                             0xa347    0x6  Code  Lc  Dem.o [13]
Dem_Cfg_EventSupportJumpUp
                             0xa34d   0x18  Code  Lc  Dem.o [13]
Dem_Cfg_EventTripTarget
                             0xa365    0x4  Code  Lc  Dem.o [13]
Dem_Cfg_EventUdsDtc          0xa369    0x8  Code  Lc  Dem.o [13]
Dem_Cfg_ExtendedDataTable
                           0x2'96f0    0x8  Data  Gb  Dem_Lcfg.o [2]
Dem_Cfg_FilterInfoTable
                        0x1fff'b98c    0xc  Data  Gb  Dem_Lcfg.o [2]
Dem_Cfg_FindEventFromUdsDtc
                             0xa3d5   0x56  Code  Lc  Dem.o [13]
Dem_Cfg_FreezeFrameIteratorTable
                        0x1fff'b998   0x10  Data  Gb  Dem_Lcfg.o [2]
Dem_Cfg_GetMasterEvent       0xa457   0x28  Code  Lc  Dem.o [13]
Dem_Cfg_GlobalCbkControlDtcSetting
                             0xa371    0x4  Code  Lc  Dem.o [13]
Dem_Cfg_GlobalCbkData        0xa375    0x4  Code  Lc  Dem.o [13]
Dem_Cfg_GlobalCbkDtcIterExists
                             0xa379    0x4  Code  Lc  Dem.o [13]
Dem_Cfg_GlobalCbkDtcIterGet
                             0xa37d    0x4  Code  Lc  Dem.o [13]
Dem_Cfg_GlobalCbkDtcIterInit
                             0xa381    0x2  Code  Lc  Dem.o [13]
Dem_Cfg_GlobalCbkDtcIterNext
                             0xa383    0x2  Code  Lc  Dem.o [13]
Dem_Cfg_GlobalCbkStatus
                             0xa385    0x4  Code  Lc  Dem.o [13]
Dem_Cfg_GlobalConfigurationId
                             0xa389    0x6  Code  Lc  Dem.o [13]
Dem_Cfg_GlobalCycleCount
                             0xa38f    0x4  Code  Lc  Dem.o [13]
Dem_Cfg_GlobalDtcFormat
                             0xa393    0x4  Code  Lc  Dem.o [13]
Dem_Cfg_GlobalERecMaxRawSize
                             0xa397    0x4  Code  Lc  Dem.o [13]
Dem_Cfg_GlobalEventCount
                             0xa39b    0x4  Code  Lc  Dem.o [13]
Dem_Cfg_GlobalIndicatorCount
                             0xa3a3    0x4  Code  Lc  Dem.o [13]
Dem_Cfg_GlobalJ1939NodeCount
                             0xa3a7    0x4  Code  Lc  Dem.o [13]
Dem_Cfg_GlobalNvBlockCount
                             0xa3ab    0x4  Code  Lc  Dem.o [13]
Dem_Cfg_GlobalPrimaryFirst
                             0xa3af    0x4  Code  Lc  Dem.o [13]
Dem_Cfg_GlobalPrimaryLast
                             0xa3b3    0x4  Code  Lc  Dem.o [13]
Dem_Cfg_GlobalPrimaryMaxCount
                             0xa3b7    0x4  Code  Lc  Dem.o [13]
Dem_Cfg_GlobalSatelliteCount
                             0xa39f    0x4  Code  Lc  Dem.o [13]
Dem_Cfg_GlobalSecondaryMaxCount
                             0xa3bb    0x4  Code  Lc  Dem.o [13]
Dem_Cfg_GlobalSeverityMask
                             0xa3bf    0x4  Code  Lc  Dem.o [13]
Dem_Cfg_GlobalStatusMask
                             0xa3c3    0x4  Code  Lc  Dem.o [13]
Dem_Cfg_GlobalTriggerOnMonitorStatusFPtr
                             0xac07    0x4  Code  Lc  Dem.o [13]
Dem_Cfg_MemoryBlockIdToMemoryEntryId
                           0x2'96f8    0xc  Data  Gb  Dem_Lcfg.o [2]
Dem_Cfg_MemoryCommitNumber
                        0x1fff'b9a8    0xc  Data  Gb  Dem_Lcfg.o [2]
Dem_Cfg_MemoryEntry        0x2'9704   0x24  Data  Gb  Dem_Lcfg.o [2]
Dem_Cfg_MemoryEntryInit
                           0x2'9728   0x14  Data  Gb  Dem_Lcfg.o [2]
Dem_Cfg_MemoryPrimaryIndex
                             0xa3c7    0x4  Code  Lc  Dem.o [13]
Dem_Cfg_MemoryStatus    0x1fff'b9b4    0xc  Data  Gb  Dem_Lcfg.o [2]
Dem_Cfg_PrimaryChronology
                        0x1fff'b9c0    0x8  Data  Gb  Dem_Lcfg.o [2]
Dem_Cfg_PrimaryEntry_0  0x1fff'b9c8   0x14  Data  Gb  Dem_Lcfg.o [2]
Dem_Cfg_PrimaryEntry_1  0x1fff'b9dc   0x14  Data  Gb  Dem_Lcfg.o [2]
Dem_Cfg_PrimaryEntry_2  0x1fff'b9f0   0x14  Data  Gb  Dem_Lcfg.o [2]
Dem_Cfg_PrimaryEntry_3  0x1fff'ba04   0x14  Data  Gb  Dem_Lcfg.o [2]
Dem_Cfg_PrimaryEntry_4  0x1fff'ba18   0x14  Data  Gb  Dem_Lcfg.o [2]
Dem_Cfg_PrimaryEntry_5  0x1fff'ba2c   0x14  Data  Gb  Dem_Lcfg.o [2]
Dem_Cfg_PrimaryEntry_6  0x1fff'ba40   0x14  Data  Gb  Dem_Lcfg.o [2]
Dem_Cfg_PrimaryEntry_7  0x1fff'ba54   0x14  Data  Gb  Dem_Lcfg.o [2]
Dem_Cfg_ReadoutBuffer   0x1fff'ba68   0x3c  Data  Gb  Dem_Lcfg.o [2]
Dem_Cfg_ReportedEventsOfFilter
                        0x1fff'baa4    0x4  Data  Gb  Dem_Lcfg.o [2]
Dem_Cfg_SatelliteInfo0  0x1fff'baa8    0xc  Data  Gb  Dem_Lcfg.o [2]
Dem_Cfg_SpecialIndicatorCount
                             0xa3cb    0x4  Code  Lc  Dem.o [13]
Dem_Cfg_StatusData      0x1fff'bab4    0xc  Data  Gb  Dem_Lcfg.o [2]
Dem_ClearDTC               0x1'0913   0x74  Code  Gb  Dem.o [13]
Dem_ClearDTC_CallEndNotifications
                             0xee5f   0x2c  Code  Lc  Dem.o [13]
Dem_ClearDTC_CallStartNotifications
                             0xee3d   0x22  Code  Lc  Dem.o [13]
Dem_ClearDTC_GetClearData
                             0xedf1   0x14  Code  Lc  Dem.o [13]
Dem_ClearDTC_GetClearSelector
                             0xee2d   0x10  Code  Lc  Dem.o [13]
Dem_ClearDTC_GetClearStatus
                             0xedc5   0x10  Code  Lc  Dem.o [13]
Dem_ClearDTC_Init            0xf005   0x1c  Code  Lc  Dem.o [13]
Dem_ClearDTC_NotifyClearResult
                             0xf095   0x72  Code  Lc  Dem.o [13]
Dem_ClearDTC_ResetClearStatus
                             0xf06d   0x28  Code  Lc  Dem.o [13]
Dem_ClearDTC_SetClearData
                             0xeddd   0x14  Code  Lc  Dem.o [13]
Dem_ClearDTC_SetClearStatus
                             0xee0d   0x20  Code  Lc  Dem.o [13]
Dem_ClearDTC_StartClear
                             0xf021   0x4c  Code  Lc  Dem.o [13]
Dem_ClearDTC_StartClearAllDTCs
                             0xef6b   0x9a  Code  Lc  Dem.o [13]
Dem_ClearDTC_StartClearEvent
                             0xeecb   0x5a  Code  Lc  Dem.o [13]
Dem_ClearDTC_StartClearGroup
                             0xef25   0x46  Code  Lc  Dem.o [13]
Dem_ClearDTC_StartClearOperation
                             0xee8b   0x40  Code  Lc  Dem.o [13]
Dem_ClearDTC_TestClearObdAllDTCsAllowed
                             0xedd9    0x4  Code  Lc  Dem.o [13]
Dem_ClearDTC_TestClearWwhObdAllDTCsAllowed
                             0xedd5    0x4  Code  Lc  Dem.o [13]
Dem_ClearTask_ClearRequest
                        0x1fff'b968    0x8  Data  Lc  Dem.o [13]
Dem_ClearTask_ClearState
                        0x1fff'bbba    0x1  Data  Lc  Dem.o [13]
Dem_ClearTask_ClearWriteErrors
                        0x1fff'bbbb    0x1  Data  Lc  Dem.o [13]
Dem_ClearTask_GetClearClient
                             0xebf7    0x8  Code  Lc  Dem.o [13]
Dem_ClearTask_GetClearEvent
                             0xec0f    0x8  Code  Lc  Dem.o [13]
Dem_ClearTask_GetClearGroup
                             0xec07    0x8  Code  Lc  Dem.o [13]
Dem_ClearTask_GetClearMemoryId
                             0xebff    0x8  Code  Lc  Dem.o [13]
Dem_ClearTask_GetClearState
                             0xec21    0x8  Code  Lc  Dem.o [13]
Dem_ClearTask_Init           0xed3d    0xa  Code  Lc  Dem.o [13]
Dem_ClearTask_MainFunction
                             0xed47   0x3a  Code  Lc  Dem.o [13]
Dem_ClearTask_ProcessClearDtc
                             0xeccf   0x6e  Code  Lc  Dem.o [13]
Dem_ClearTask_ProcessClearDtcGroup
                             0xec6f   0x60  Code  Lc  Dem.o [13]
Dem_ClearTask_ProcessClearSingleDtc
                             0xec5f   0x10  Code  Lc  Dem.o [13]
Dem_ClearTask_ResetClearWriteErrors
                             0xec17    0xa  Code  Lc  Dem.o [13]
Dem_ClearTask_SetClearState
                             0xec29   0x36  Code  Lc  Dem.o [13]
Dem_ClearTask_TryNewClear
                             0xed81   0x3e  Code  Lc  Dem.o [13]
Dem_ClientAccess_ClearDTC
                             0xfbe3   0x7a  Code  Lc  Dem.o [13]
Dem_ClientAccess_DisableDTCRecordUpdate
                             0xfaef   0x8c  Code  Lc  Dem.o [13]
Dem_ClientAccess_EnableDTCRecordUpdate
                             0xfb7b   0x34  Code  Lc  Dem.o [13]
Dem_ClientAccess_FillDTCReadoutBufferData
                             0xfbaf   0x34  Code  Lc  Dem.o [13]
Dem_ClientAccess_FilterNumberMemory
                             0xfc5d   0x1e  Code  Lc  Dem.o [13]
Dem_ClientAccess_GetNextFilteredDTC
                             0xf9ad   0x22  Code  Lc  Dem.o [13]
Dem_ClientAccess_GetReadoutBuffer
                             0xfa8b    0xa  Code  Lc  Dem.o [13]
Dem_ClientAccess_GetSelectedEventId
                             0xf8f1   0x1e  Code  Lc  Dem.o [13]
Dem_ClientAccess_GetSelectedMemoryId
                             0xf8d3   0x1e  Code  Lc  Dem.o [13]
Dem_ClientAccess_GetSelectionResult
                             0xf8b5   0x1e  Code  Lc  Dem.o [13]
Dem_ClientAccess_GlobalClientCount
                             0xf83d    0x4  Code  Lc  Dem.o [13]
Dem_ClientAccess_Init        0xf9ef   0x86  Code  Lc  Dem.o [13]
Dem_ClientAccess_MemoryIdFromOrigin
                             0xf819    0x8  Code  Lc  Dem.o [13]
Dem_ClientAccess_MemoryIdMapping
                           0x2'96a4    0x8  Data  Lc  Dem.o [13]
Dem_ClientAccess_SelectDTC
                             0xf857   0x5e  Code  Lc  Dem.o [13]
Dem_ClientAccess_SetDTCFilter
                             0xf943   0x6a  Code  Lc  Dem.o [13]
Dem_ClientAccess_TestDTCFilterSet
                             0xf9cf   0x20  Code  Lc  Dem.o [13]
Dem_ClientAccess_TestDTCRecordUpdateDisabled
                             0xfab3   0x1e  Code  Lc  Dem.o [13]
Dem_ClientAccess_TestDTCRecordUpdateRequested
                             0xfa95   0x1e  Code  Lc  Dem.o [13]
Dem_ClientAccess_TestExtendedRecordSelected
                             0xfad1   0x1e  Code  Lc  Dem.o [13]
Dem_ClientAccess_TestFilterValid
                             0xf92d   0x16  Code  Lc  Dem.o [13]
Dem_ClientAccess_TestReadoutBufferValid
                             0xfa75   0x16  Code  Lc  Dem.o [13]
Dem_ClientAccess_TestSelectDTCLocked
                             0xf90f   0x1e  Code  Lc  Dem.o [13]
Dem_ClientAccess_TestSelectorValid
                             0xf841   0x16  Code  Lc  Dem.o [13]
Dem_ClientData_GetClearDTCStatus
                             0xe16f   0x10  Code  Lc  Dem.o [13]
Dem_ClientData_GetDTCSelector
                             0xe12f   0x10  Code  Lc  Dem.o [13]
Dem_ClientData_GetFilterId
                             0xe13f   0x10  Code  Lc  Dem.o [13]
Dem_ClientData_GetFreezeFrameIteratorId
                             0xe14f   0x10  Code  Lc  Dem.o [13]
Dem_ClientData_GetReadoutBufferId
                             0xe15f   0x10  Code  Lc  Dem.o [13]
Dem_Com_DefaultSyncCompareAndSwap
                             0xa805   0x24  Code  Lc  Dem.o [13]
Dem_Com_GetBitfieldBitIndex
                             0xa7fd    0x8  Code  Lc  Dem.o [13]
Dem_Com_GetBitfieldWordIndex
                             0xa7f5    0x8  Code  Lc  Dem.o [13]
Dem_Com_SetBitInBitfield
                             0xa8d1   0x2c  Code  Lc  Dem.o [13]
Dem_Com_SyncCompareAndSwap
                             0xa829    0x8  Code  Lc  Dem.o [13]
Dem_Com_SyncResetBitInBitfield
                             0xa899   0x38  Code  Lc  Dem.o [13]
Dem_Com_SyncSetBitInBitfield
                             0xa863   0x36  Code  Lc  Dem.o [13]
Dem_Com_TestBitInBitfield
                             0xa831   0x32  Code  Lc  Dem.o [13]
Dem_DTCInternalStatus_CombinedGroupGetInternalStatus
                             0xac27    0x4  Code  Lc  Dem.o [13]
Dem_DTCInternalStatus_GetStoredStatus
                             0xac2b    0x6  Code  Lc  Dem.o [13]
Dem_DTCInternalStatus_ResetFdcToc
                             0xac43    0x4  Code  Lc  Dem.o [13]
Dem_DTCInternalStatus_SetStoredStatus
                             0xac31    0xe  Code  Lc  Dem.o [13]
Dem_DTCInternalStatus_TestDtcSuppressed
                             0xac3f    0x4  Code  Lc  Dem.o [13]
Dem_DTCReadoutBuffer_CheckAndSetState
                             0xe973   0xca  Code  Lc  Dem.o [13]
Dem_DTCReadoutBuffer_ExtendedDataRecord_Init
                             0xe80b   0x4a  Code  Lc  Dem.o [13]
Dem_DTCReadoutBuffer_FillData
                             0xea3d   0xf0  Code  Lc  Dem.o [13]
Dem_DTCReadoutBuffer_FreeBuffer
                             0xeb2d   0x4a  Code  Lc  Dem.o [13]
Dem_DTCReadoutBuffer_GetEventId
                             0xeb77   0x16  Code  Lc  Dem.o [13]
Dem_DTCReadoutBuffer_GetExtendedDataEventId
                             0xe6ed   0x14  Code  Lc  Dem.o [13]
Dem_DTCReadoutBuffer_GetExtendedDataExtendedEntryIndex
                             0xe715   0x14  Code  Lc  Dem.o [13]
Dem_DTCReadoutBuffer_GetExtendedDataMemoryEntryId
                             0xe701   0x14  Code  Lc  Dem.o [13]
Dem_DTCReadoutBuffer_GetExtendedDataNumber
                             0xe7bf   0x14  Code  Lc  Dem.o [13]
Dem_DTCReadoutBuffer_GetExtendedEntryIterator
                             0xe729   0x16  Code  Lc  Dem.o [13]
Dem_DTCReadoutBuffer_GetExtendedIterator
                             0xe891   0x1c  Code  Lc  Dem.o [13]
Dem_DTCReadoutBuffer_GetMemoryEntryId
                             0xe7d3    0x6  Code  Lc  Dem.o [13]
Dem_DTCReadoutBuffer_GetReadoutBufferEntry
                             0xe7f5   0x16  Code  Lc  Dem.o [13]
Dem_DTCReadoutBuffer_GetState
                             0xe8e7   0x16  Code  Lc  Dem.o [13]
Dem_DTCReadoutBuffer_IncExtendedEntryIndex
                             0xe77b   0x44  Code  Lc  Dem.o [13]
Dem_DTCReadoutBuffer_Init
                             0xe8fd   0x76  Code  Lc  Dem.o [13]
Dem_DTCReadoutBuffer_SelectExtendedDataRecord
                             0xeb8d   0x6a  Code  Lc  Dem.o [13]
Dem_DTCReadoutBuffer_SetExtendedEntryIterator
                             0xe73f   0x3c  Code  Lc  Dem.o [13]
Dem_DTCReadoutBuffer_SetExtendedIterator
                             0xe8ad   0x3a  Code  Lc  Dem.o [13]
Dem_DTCReadoutBuffer_SetReadoutBufferEntry
                             0xe7d9   0x1c  Code  Lc  Dem.o [13]
Dem_DTCReadoutBuffer_SnapshotRecord_Init
                             0xe855   0x3c  Code  Lc  Dem.o [13]
Dem_DTCReadoutBuffer_TestDataRequested
                             0xe68d   0x16  Code  Lc  Dem.o [13]
Dem_DTCReadoutBuffer_TestExtendedRecordSelected
                             0xe6d9   0x14  Code  Lc  Dem.o [13]
Dem_DTCReadoutBuffer_TestResultReady
                             0xe6a3   0x20  Code  Lc  Dem.o [13]
Dem_DTCReadoutBuffer_TestStoredDataAvailable
                             0xe6c3   0x16  Code  Lc  Dem.o [13]
Dem_DTCSelector_FindGroupMaskFromUdsDtc
                             0xe45f    0x6  Code  Lc  Dem.o [13]
Dem_DTCSelector_GetEventId
                             0xe3d9   0x2e  Code  Lc  Dem.o [13]
Dem_DTCSelector_GetGroupId
                             0xe37d   0x2e  Code  Lc  Dem.o [13]
Dem_DTCSelector_GetGroupMask
                             0xe3ab   0x2e  Code  Lc  Dem.o [13]
Dem_DTCSelector_GetMemoryId
                             0xe407   0x2e  Code  Lc  Dem.o [13]
Dem_DTCSelector_GetSelectionArguments
                             0xe449   0x16  Code  Lc  Dem.o [13]
Dem_DTCSelector_GetSelectionData
                             0xe201   0x14  Code  Lc  Dem.o [13]
Dem_DTCSelector_GetSelectionResult
                             0xe435   0x14  Code  Lc  Dem.o [13]
Dem_DTCSelector_InitDefault
                             0xe501   0x16  Code  Lc  Dem.o [13]
Dem_DTCSelector_InitEventId
                             0xe2d5   0x5c  Code  Lc  Dem.o [13]
Dem_DTCSelector_InitGroupId
                             0xe21d   0x5c  Code  Lc  Dem.o [13]
Dem_DTCSelector_InitGroupMask
                             0xe279   0x5c  Code  Lc  Dem.o [13]
Dem_DTCSelector_InitInvalid
                             0xe331   0x4c  Code  Lc  Dem.o [13]
Dem_DTCSelector_LockSelectDTC
                             0xe5f1   0x3e  Code  Lc  Dem.o [13]
Dem_DTCSelector_ReleaseSelectDTC
                             0xe62f   0x3e  Code  Lc  Dem.o [13]
Dem_DTCSelector_SelectDTC
                             0xe517   0xda  Code  Lc  Dem.o [13]
Dem_DTCSelector_SetSelectionData
                             0xe1e7   0x1a  Code  Lc  Dem.o [13]
Dem_DTCSelector_TestForAllDtc
                             0xe465   0x44  Code  Lc  Dem.o [13]
Dem_DTCSelector_TestForGroupDtc
                             0xe4b5   0x14  Code  Lc  Dem.o [13]
Dem_DTCSelector_TestForSingleDtc
                             0xe4c9   0x26  Code  Lc  Dem.o [13]
Dem_DTCSelector_TestForSupportedMemoryId
                             0xe4ef   0x12  Code  Lc  Dem.o [13]
Dem_DTCSelector_TestSelectDTCLocked
                             0xe66d   0x20  Code  Lc  Dem.o [13]
Dem_DTC_Aged                 0xbddd   0xb6  Code  Lc  Dem.o [13]
Dem_DTC_AgingCycle           0xbda1   0x3c  Code  Lc  Dem.o [13]
Dem_DTC_AgingStartMultiTarget
                             0xbaf3   0xbe  Code  Lc  Dem.o [13]
Dem_DTC_AgingStartZeroTarget
                             0xba91   0x62  Code  Lc  Dem.o [13]
Dem_DTC_ApplyCombinedStatus
                             0xbd83    0x4  Code  Lc  Dem.o [13]
Dem_DTC_ApplyExternalOnlyStatus
                             0xbd87   0x1a  Code  Lc  Dem.o [13]
Dem_DTC_ApplyUserControlledWIR
                             0xba87    0x4  Code  Lc  Dem.o [13]
Dem_DTC_CalculateDTCStatus
                             0xbd5d    0xe  Code  Lc  Dem.o [13]
Dem_DTC_CalculateFailedEffects
                             0xbf21    0x4  Code  Lc  Dem.o [13]
Dem_DTC_CalculateFailedEffects_OnStorage
                             0xbf25    0x4  Code  Lc  Dem.o [13]
Dem_DTC_Cleared              0xbe93   0x26  Code  Lc  Dem.o [13]
Dem_DTC_Cleared_Internal
                             0xbbb1   0x7c  Code  Lc  Dem.o [13]
Dem_DTC_Displaced            0xbeb9   0x48  Code  Lc  Dem.o [13]
Dem_DTC_ForEachCombinedEvent
                             0xbc2d   0x26  Code  Lc  Dem.o [13]
Dem_DTC_GetDTCStatus         0xbd6b    0xc  Code  Lc  Dem.o [13]
Dem_DTC_GetFaultDetectionCounter
                             0xbd77    0xc  Code  Lc  Dem.o [13]
Dem_DTC_GetInternalStatus
                             0xba51    0xc  Code  Lc  Dem.o [13]
Dem_DTC_Init                 0xc07f    0x2  Code  Lc  Dem.o [13]
Dem_DTC_InitDTCContext       0xbf01   0x20  Code  Lc  Dem.o [13]
Dem_DTC_InitQualification
                             0xc07d    0x2  Code  Lc  Dem.o [13]
Dem_DTC_OpCycle              0xc069   0x14  Code  Lc  Dem.o [13]
Dem_DTC_Passed_ProcessDTCEffects
                             0xbf5f   0x32  Code  Lc  Dem.o [13]
Dem_DTC_PreInit              0xc081    0x2  Code  Lc  Dem.o [13]
Dem_DTC_ProcessFailedEffects
                             0xbf29   0x36  Code  Lc  Dem.o [13]
Dem_DTC_ProcessStorage       0xbf91   0xd8  Code  Lc  Dem.o [13]
Dem_DTC_ResetFdcToc          0xbd39   0x24  Code  Lc  Dem.o [13]
Dem_DTC_SetInternalStatus
                             0xba5d    0xc  Code  Lc  Dem.o [13]
Dem_DTC_TestDtcAvailable
                             0xbc71   0x2c  Code  Lc  Dem.o [13]
Dem_DTC_TestDtcAvailableInVariant
                             0xbc9d   0x2c  Code  Lc  Dem.o [13]
Dem_DTC_TestDtcMayAge        0xba8b    0x6  Code  Lc  Dem.o [13]
Dem_DTC_TestDtcSuppressed
                             0xbcfb   0x3e  Code  Lc  Dem.o [13]
Dem_DTC_TestDtcSuppression
                             0xbcc9   0x32  Code  Lc  Dem.o [13]
Dem_DTC_TestGroupAvailable
                             0xba69    0x6  Code  Lc  Dem.o [13]
Dem_DTC_TestGroupAvailableInVariant
                             0xba6f   0x12  Code  Lc  Dem.o [13]
Dem_DTC_TestGroupSuppression
                             0xba81    0x6  Code  Lc  Dem.o [13]
Dem_DTC_TestStoredStatus
                             0xbc53   0x1e  Code  Lc  Dem.o [13]
Dem_DataReportIF_CopyDid
                             0xfcd3   0x56  Code  Lc  Dem.o [13]
Dem_DataReportIF_CopyExtendedDataRecord
                             0xfd3d   0x6e  Code  Lc  Dem.o [13]
Dem_DataReportIF_CopyStoredDataElement
                             0xfca7   0x2c  Code  Lc  Dem.o [13]
Dem_DataReportIF_CopyStoredUserData
                             0xfc7b   0x2c  Code  Lc  Dem.o [13]
Dem_DataReportIF_InitCopyDidInfo
                             0xfd29   0x14  Code  Lc  Dem.o [13]
Dem_DataStorageIF_CollectERec
                             0xab13   0x1c  Code  Lc  Dem.o [13]
Dem_Data_ERecAllDataElementsStored
                             0xb5e9    0x6  Code  Lc  Dem.o [13]
Dem_Data_IncrementWriteIndexDestinationBuffer
                             0xb5ff    0xe  Code  Lc  Dem.o [13]
Dem_Data_InitDestinationBuffer
                             0xb5ef    0xa  Code  Lc  Dem.o [13]
Dem_Data_ResetWriteIndexDestinationBuffer
                             0xb5f9    0x6  Code  Lc  Dem.o [13]
Dem_Data_WriteDestinationBuffer
                             0xb60d   0x2c  Code  Lc  Dem.o [13]
Dem_Data_WriteDestinationBufferUint16
                             0xb657   0x2e  Code  Lc  Dem.o [13]
Dem_Data_WriteDestinationBufferUint16_Intel
                             0xb685   0x2c  Code  Lc  Dem.o [13]
Dem_Data_WriteDestinationBufferUint32
                             0xb6b1   0x48  Code  Lc  Dem.o [13]
Dem_Data_WriteDestinationBufferUint32_Intel
                             0xb6f9   0x46  Code  Lc  Dem.o [13]
Dem_Data_WriteDestinationBufferUint8
                             0xb639   0x1e  Code  Lc  Dem.o [13]
Dem_Dcm_ERec_CalculateSize
                             0xfebf   0x90  Code  Lc  Dem.o [13]
Dem_Dcm_ERec_CopyNextRecord
                             0xfdd9   0xe6  Code  Lc  Dem.o [13]
Dem_Dcm_ERec_GetSize       0x1'001b  0x154  Code  Lc  Dem.o [13]
Dem_Dcm_ERec_ReadNextRecord
                             0xff67   0xb4  Code  Lc  Dem.o [13]
Dem_Dcm_ERec_SelectRecord
                             0xff51   0x16  Code  Lc  Dem.o [13]
Dem_Dcm_ERec_TestRecordMatch
                             0xfdab   0x2e  Code  Lc  Dem.o [13]
Dem_Dcm_GetStatusOfSelectedDTC
                           0x1'016f   0x6c  Code  Lc  Dem.o [13]
Dem_Dcm_Init                 0xff4f    0x2  Code  Lc  Dem.o [13]
Dem_DebounceBaseCore_ResetDebounceValueMax
                             0xb94b    0x8  Code  Lc  Dem.o [13]
Dem_DebounceBaseSat_GetDebounceValueMax
                             0xb96b    0x4  Code  Lc  Dem.o [13]
Dem_DebounceBaseSat_ResetDebounceValueMax
                             0xb941    0xa  Code  Lc  Dem.o [13]
Dem_DebounceBaseSat_SetDebounceValueMax
                             0xb96f    0x2  Code  Lc  Dem.o [13]
Dem_DebounceBase_Freeze
                             0xb937    0xa  Code  Lc  Dem.o [13]
Dem_DebounceBase_GetDebouncingResult
                             0xb953    0xa  Code  Lc  Dem.o [13]
Dem_DebounceBase_GetEventId
                             0xb8ef    0x4  Code  Lc  Dem.o [13]
Dem_DebounceBase_GetFaultDetectionCounter
                             0xb923    0xa  Code  Lc  Dem.o [13]
Dem_DebounceBase_GetMonitorTrigger
                             0xb8f3    0x4  Code  Lc  Dem.o [13]
Dem_DebounceBase_InfoInitDefault
                             0xb95d    0xe  Code  Lc  Dem.o [13]
Dem_DebounceBase_Reset       0xb92d    0xa  Code  Lc  Dem.o [13]
Dem_DebounceBase_SetDebouncingChanged
                             0xb8fb    0xa  Code  Lc  Dem.o [13]
Dem_DebounceBase_SetFdcThresholdExceeded
                             0xb919    0xa  Code  Lc  Dem.o [13]
Dem_DebounceBase_SetMaximumFdcExceeded
                             0xb90f    0xa  Code  Lc  Dem.o [13]
Dem_DebounceBase_SetMonitorTrigger
                             0xb8f7    0x4  Code  Lc  Dem.o [13]
Dem_DebounceBase_SetRequestFdcProcessing
                             0xb905    0xa  Code  Lc  Dem.o [13]
Dem_DebounceCounterBasedSat_ResetDebounceValueMax
                             0xd307   0x10  Code  Lc  Dem.o [13]
Dem_DebounceCounterBasedSat_UpdateDebounceValueMax
                             0xd2e7   0x20  Code  Lc  Dem.o [13]
Dem_DebounceCounterBased_Base2CounterBased
                             0xcf51    0x2  Code  Lc  Dem.o [13]
Dem_DebounceCounterBased_Calculate
                             0xd10f   0xfc  Code  Lc  Dem.o [13]
Dem_DebounceCounterBased_CalculateFailed
                             0xd0b5   0x30  Code  Lc  Dem.o [13]
Dem_DebounceCounterBased_CalculateFaultDetectionCounter
                             0xd3e3   0x82  Code  Lc  Dem.o [13]
Dem_DebounceCounterBased_CalculatePassed
                             0xd001   0x30  Code  Lc  Dem.o [13]
Dem_DebounceCounterBased_CalculatePrefailed
                             0xd031   0x84  Code  Lc  Dem.o [13]
Dem_DebounceCounterBased_CalculatePrepassed
                             0xcf7d   0x84  Code  Lc  Dem.o [13]
Dem_DebounceCounterBased_CheckDebounceInfoPtr
                             0xcf4b    0x6  Code  Lc  Dem.o [13]
Dem_DebounceCounterBased_ConstBase2CounterBased
                             0xcf53    0x2  Code  Lc  Dem.o [13]
Dem_DebounceCounterBased_Freeze
                             0xd20b    0x2  Code  Lc  Dem.o [13]
Dem_DebounceCounterBased_FunctionTable
                           0x2'9604   0x28  Data  Lc  Dem.o [13]
Dem_DebounceCounterBased_GetDebouncingResult
                             0xd361   0x14  Code  Lc  Dem.o [13]
Dem_DebounceCounterBased_GetDebouncingState
                             0xd217   0xd0  Code  Lc  Dem.o [13]
Dem_DebounceCounterBased_GetFaultDetectionCounter
                             0xd317   0x26  Code  Lc  Dem.o [13]
Dem_DebounceCounterBased_GetMaxFaultDetectionCounter
                             0xd33d   0x24  Code  Lc  Dem.o [13]
Dem_DebounceCounterBased_GetNewDebounceValue
                             0xcf55    0xe  Code  Lc  Dem.o [13]
Dem_DebounceCounterBased_InfoInit
                             0xd0e5   0x2a  Code  Lc  Dem.o [13]
Dem_DebounceCounterBased_Reset
                             0xd20d    0xa  Code  Lc  Dem.o [13]
Dem_DebounceCounterBased_RestoreDebounceValue
                             0xd375   0x6e  Code  Lc  Dem.o [13]
Dem_DebounceCounterBased_SetNewDebounceValue
                             0xcf63   0x1a  Code  Lc  Dem.o [13]
Dem_DebounceMonitorInternalSat_ResetDebounceValueMax
                             0xdc0d   0x10  Code  Lc  Dem.o [13]
Dem_DebounceMonitorInternalSat_UpdateDebounceValueMax
                             0xdbe9   0x24  Code  Lc  Dem.o [13]
Dem_DebounceMonitorInternal_Base2MonitorInternal
                             0xd9f9    0x2  Code  Lc  Dem.o [13]
Dem_DebounceMonitorInternal_Calculate
                             0xda49   0xc6  Code  Lc  Dem.o [13]
Dem_DebounceMonitorInternal_CheckDebounceInfoPtr
                             0xd9f3    0x6  Code  Lc  Dem.o [13]
Dem_DebounceMonitorInternal_ConstBase2MonitorInternal
                             0xd9fb    0x2  Code  Lc  Dem.o [13]
Dem_DebounceMonitorInternal_Freeze
                             0xdb0f    0x2  Code  Lc  Dem.o [13]
Dem_DebounceMonitorInternal_FunctionTable
                           0x2'9654   0x28  Data  Lc  Dem.o [13]
Dem_DebounceMonitorInternal_GetDebouncingResult
                             0xdc6b   0x16  Code  Lc  Dem.o [13]
Dem_DebounceMonitorInternal_GetDebouncingState
                             0xdb1b   0xce  Code  Lc  Dem.o [13]
Dem_DebounceMonitorInternal_GetFaultDetectionCounter
                             0xdc1d   0x3a  Code  Lc  Dem.o [13]
Dem_DebounceMonitorInternal_GetMaxFaultDetectionCounter
                             0xdc57   0x14  Code  Lc  Dem.o [13]
Dem_DebounceMonitorInternal_GetNewMonitorStatus
                             0xd9fd    0xc  Code  Lc  Dem.o [13]
Dem_DebounceMonitorInternal_InfoInit
                             0xda23   0x26  Code  Lc  Dem.o [13]
Dem_DebounceMonitorInternal_Reset
                             0xdb11    0xa  Code  Lc  Dem.o [13]
Dem_DebounceMonitorInternal_RestoreDebounceValue
                             0xdc81   0x10  Code  Lc  Dem.o [13]
Dem_DebounceMonitorInternal_SetNewMonitorStatus
                             0xda09   0x1a  Code  Lc  Dem.o [13]
Dem_DebounceSat_PreInit
                             0xdd21    0x2  Code  Lc  Dem.o [13]
Dem_DebounceTimeBasedSat_ResetDebounceValueMax
                             0xd925   0x1e  Code  Lc  Dem.o [13]
Dem_DebounceTimeBasedSat_UpdateDebounceValueMax
                             0xd8ef   0x36  Code  Lc  Dem.o [13]
Dem_DebounceTimeBased_Base2TimeBased
                             0xd46b    0x2  Code  Lc  Dem.o [13]
Dem_DebounceTimeBased_Calculate
                             0xd6f7   0xa2  Code  Lc  Dem.o [13]
Dem_DebounceTimeBased_CalculateFailed
                             0xd66b   0x5a  Code  Lc  Dem.o [13]
Dem_DebounceTimeBased_CalculateFaultDetectionCounter
                             0xd4df   0x9c  Code  Lc  Dem.o [13]
Dem_DebounceTimeBased_CalculatePassed
                             0xd643   0x28  Code  Lc  Dem.o [13]
Dem_DebounceTimeBased_CalculatePrefailed
                             0xd5db   0x68  Code  Lc  Dem.o [13]
Dem_DebounceTimeBased_CalculatePrepassed
                             0xd57b   0x60  Code  Lc  Dem.o [13]
Dem_DebounceTimeBased_CheckDebounceInfoPtr
                             0xd465    0x6  Code  Lc  Dem.o [13]
Dem_DebounceTimeBased_ConstBase2TimeBased
                             0xd46d    0x2  Code  Lc  Dem.o [13]
Dem_DebounceTimeBased_EventFailedTime
                             0xd46f    0x6  Code  Lc  Dem.o [13]
Dem_DebounceTimeBased_EventPassedTime
                             0xd475    0x6  Code  Lc  Dem.o [13]
Dem_DebounceTimeBased_Freeze
                             0xd799   0x80  Code  Lc  Dem.o [13]
Dem_DebounceTimeBased_FunctionTable
                           0x2'962c   0x28  Data  Lc  Dem.o [13]
Dem_DebounceTimeBased_GetDebouncingResult
                             0xd9b9   0x2a  Code  Lc  Dem.o [13]
Dem_DebounceTimeBased_GetDebouncingState
                             0xd82f   0xc0  Code  Lc  Dem.o [13]
Dem_DebounceTimeBased_GetFaultDetectionCounter
                             0xd943   0x32  Code  Lc  Dem.o [13]
Dem_DebounceTimeBased_GetMaxFaultDetectionCounter
                             0xd975   0x44  Code  Lc  Dem.o [13]
Dem_DebounceTimeBased_GetNewTimerState
                             0xd487    0xc  Code  Lc  Dem.o [13]
Dem_DebounceTimeBased_GetNewTimerValue
                             0xd4b9    0xc  Code  Lc  Dem.o [13]
Dem_DebounceTimeBased_GetOldTimerState
                             0xd47b    0xc  Code  Lc  Dem.o [13]
Dem_DebounceTimeBased_GetOldTimerValue
                             0xd4ad    0xc  Code  Lc  Dem.o [13]
Dem_DebounceTimeBased_InfoInit
                             0xd6c5   0x32  Code  Lc  Dem.o [13]
Dem_DebounceTimeBased_Reset
                             0xd819   0x16  Code  Lc  Dem.o [13]
Dem_DebounceTimeBased_RestoreDebounceValue
                             0xd9e3   0x10  Code  Lc  Dem.o [13]
Dem_DebounceTimeBased_SetNewTimerState
                             0xd493   0x1a  Code  Lc  Dem.o [13]
Dem_DebounceTimeBased_SetNewTimerValue
                             0xd4c5   0x1a  Code  Lc  Dem.o [13]
Dem_Debounce_DebounceInfoInit
                             0xdcc5   0x56  Code  Lc  Dem.o [13]
Dem_Debounce_FreezeDebouncing
                             0xdca7   0x16  Code  Lc  Dem.o [13]
Dem_Debounce_GetFaultDetectionCounter
                             0xdcbd    0x8  Code  Lc  Dem.o [13]
Dem_Debounce_InvalidCalculate
                             0xdd23    0xe  Code  Lc  Dem.o [13]
Dem_Debounce_InvalidFunctionTable
                           0x2'967c   0x28  Data  Lc  Dem.o [13]
Dem_Debounce_InvalidGetDebouncingResult
                             0xdd57   0x10  Code  Lc  Dem.o [13]
Dem_Debounce_InvalidGetDebouncingState
                             0xdd49    0xe  Code  Lc  Dem.o [13]
Dem_Debounce_InvalidGetFDC
                             0xdd67    0xe  Code  Lc  Dem.o [13]
Dem_Debounce_InvalidRestoreDebounceValue
                             0xdd75   0x10  Code  Lc  Dem.o [13]
Dem_Debounce_InvalidUpdateMax
                             0xdd3d    0xc  Code  Lc  Dem.o [13]
Dem_Debounce_InvalidVoid
                             0xdd31    0xc  Code  Lc  Dem.o [13]
Dem_Debounce_ResetDebouncing
                             0xdc91   0x16  Code  Lc  Dem.o [13]
Dem_DebouncingState_GetInitValue
                             0xb971    0x4  Code  Lc  Dem.o [13]
Dem_DebouncingState_SetDtrUpdate
                             0xb995    0x8  Code  Lc  Dem.o [13]
Dem_DebouncingState_SetFinallyDefective
                             0xb97d    0x8  Code  Lc  Dem.o [13]
Dem_DebouncingState_SetTemporarilyDefective
                             0xb975    0x8  Code  Lc  Dem.o [13]
Dem_DebouncingState_SetTemporarilyHealed
                             0xb985    0x8  Code  Lc  Dem.o [13]
Dem_DebouncingState_SetTestComplete
                             0xb98d    0x8  Code  Lc  Dem.o [13]
Dem_DisableDTCRecordUpdate
                           0x1'0d99   0x62  Code  Gb  Dem.o [13]
Dem_DisableDTCSetting      0x1'0ff3   0x4a  Code  Gb  Dem.o [13]
Dem_DtrIF_EventAvailabilityChanged
                             0xba27    0xa  Code  Lc  Dem.o [13]
Dem_DtrIF_Init               0xb9ff    0xc  Code  Lc  Dem.o [13]
Dem_DtrIF_MainFunction       0xba17    0x8  Code  Lc  Dem.o [13]
Dem_DtrIF_PreInit            0xba0b    0xc  Code  Lc  Dem.o [13]
Dem_DtrIF_ResetDtrsOfEvent
                             0xba31   0x18  Code  Lc  Dem.o [13]
Dem_DtrIF_Shutdown           0xba1f    0x8  Code  Lc  Dem.o [13]
Dem_DtrIF_UpdateMidVisibility
                             0xba49    0x8  Code  Lc  Dem.o [13]
Dem_Dtr_EventAvailabilityChanged
                             0xb9f3    0x2  Code  Lc  Dem.o [13]
Dem_Dtr_Init                 0xb9b5    0x8  Code  Lc  Dem.o [13]
Dem_Dtr_MainFunction         0xb9bf   0x16  Code  Lc  Dem.o [13]
Dem_Dtr_PreInit              0xb9bd    0x2  Code  Lc  Dem.o [13]
Dem_Dtr_ResetDtrsOfEvent
                             0xb9f5    0x2  Code  Lc  Dem.o [13]
Dem_Dtr_ResetDtrsWithoutEvent
                             0xb9f7    0x2  Code  Lc  Dem.o [13]
Dem_Dtr_ResetWriteOnShutdown
                             0xb9a3    0x2  Code  Lc  Dem.o [13]
Dem_Dtr_Shutdown             0xb9d5   0x1e  Code  Lc  Dem.o [13]
Dem_Dtr_TestWriteOnShutdown
                             0xb99d    0x6  Code  Lc  Dem.o [13]
Dem_EnableCondition_GetEnableConditionActive
                             0xadfb    0xa  Code  Lc  Dem.o [13]
Dem_EnableCondition_GetEnableConditionGroupCounter
                             0xae13    0xa  Code  Lc  Dem.o [13]
Dem_EnableCondition_GetEnableConditionGroupState
                             0xae09    0xa  Code  Lc  Dem.o [13]
Dem_EnableCondition_GetEnableConditionInitValue
                             0xadf7    0x4  Code  Lc  Dem.o [13]
Dem_EnableCondition_GetEventEnableConditionGroup
                             0xae05    0x4  Code  Lc  Dem.o [13]
Dem_EnableCondition_GetGlobalEnableConditionCount
                             0xadef    0x4  Code  Lc  Dem.o [13]
Dem_EnableCondition_GetGlobalEnableConditionGroupCount
                             0xadf3    0x4  Code  Lc  Dem.o [13]
Dem_EnableCondition_GroupIterExists
                             0xaecf   0x12  Code  Lc  Dem.o [13]
Dem_EnableCondition_GroupIterGet
                             0xaee1    0x4  Code  Lc  Dem.o [13]
Dem_EnableCondition_GroupIterInit
                             0xaee5    0xa  Code  Lc  Dem.o [13]
Dem_EnableCondition_GroupIterNext
                             0xaeef    0x8  Code  Lc  Dem.o [13]
Dem_EnableCondition_Init
                             0xb0e1   0xa4  Code  Lc  Dem.o [13]
Dem_EnableCondition_MainFunction
                             0xb009   0xd8  Code  Lc  Dem.o [13]
Dem_EnableCondition_PreInit
                             0xb185   0x2e  Code  Lc  Dem.o [13]
Dem_EnableCondition_ProcessQueueEventEnableConditions
                             0xae61   0x6e  Code  Lc  Dem.o [13]
Dem_EnableCondition_ResetEnableConditionFulfilled
                             0xaf7b   0x8e  Code  Lc  Dem.o [13]
Dem_EnableCondition_SetEnableConditionActive
                             0xae1d    0xa  Code  Lc  Dem.o [13]
Dem_EnableCondition_SetEnableConditionFulfilled
                             0xaef7   0x84  Code  Lc  Dem.o [13]
Dem_EnableCondition_SetEnableConditionGroupCounter
                             0xae39    0xa  Code  Lc  Dem.o [13]
Dem_EnableCondition_SetEnableConditionGroupState
                             0xae27    0xa  Code  Lc  Dem.o [13]
Dem_EnableCondition_TestEventEnableConditionsFulfilled
                             0xb1b3   0x14  Code  Lc  Dem.o [13]
Dem_EnableDTCRecordUpdate
                           0x1'0dfb   0x52  Code  Gb  Dem.o [13]
Dem_EnableDTCSetting       0x1'103d   0x4a  Code  Gb  Dem.o [13]
Dem_Error_ReportError        0xa191   0x14  Code  Lc  Dem.o [13]
Dem_Esm_EventCreateMemory
                             0xb50f   0x74  Code  Lc  Dem.o [13]
Dem_Esm_PostOnClear_AllDtc
                             0xaaa1   0x32  Code  Lc  Dem.o [13]
Dem_Esm_PostOnClear_Always
                             0xaad3   0x12  Code  Lc  Dem.o [13]
Dem_EventInternalStatus_ResetSimilarConditions
                             0x9bf1    0x4  Code  Lc  Dem.o [13]
Dem_EventInternalStatus_SetEventDisconnected
                             0x9be9    0x4  Code  Lc  Dem.o [13]
Dem_EventInternalStatus_TestAvailableInVariant
                             0x9bed    0x4  Code  Lc  Dem.o [13]
Dem_EventInternalStatus_TestEventDisconnected
                             0x9be5    0x4  Code  Lc  Dem.o [13]
Dem_EventQueueCore_Init
                             0xcf15    0xa  Code  Lc  Dem.o [13]
Dem_EventQueueCore_MainFunction
                             0xcf1f   0x2c  Code  Lc  Dem.o [13]
Dem_EventQueueCore_ProcessQueuedEventActions
                             0xcdb7   0xe8  Code  Lc  Dem.o [13]
Dem_EventQueue_GetQueueAction
                             0xcdb1    0x6  Code  Lc  Dem.o [13]
Dem_EventQueue_GetQueueStatus
                             0xcd8b    0x8  Code  Lc  Dem.o [13]
Dem_EventQueue_ProcessEventQueuedEventActions
                             0xce9f    0xc  Code  Lc  Dem.o [13]
Dem_EventQueue_ProcessSatelliteQueuedEventActions
                             0xceaf   0x66  Code  Lc  Dem.o [13]
Dem_EventQueue_ProcessSatelliteSimilarCondition
                             0xceab    0x4  Code  Lc  Dem.o [13]
Dem_EventQueue_ResetQueueStatus
                             0xcd81    0xa  Code  Lc  Dem.o [13]
Dem_EventQueue_TestFdcMaxSLCStatus
                             0xcd9d    0xa  Code  Lc  Dem.o [13]
Dem_EventQueue_TestFdcProcessingStatus
                             0xcda7    0x4  Code  Lc  Dem.o [13]
Dem_EventQueue_TestFdcTripStatus
                             0xcd93    0xa  Code  Lc  Dem.o [13]
Dem_EventQueue_TestResetTestFailedRequested
                             0xcdab    0x6  Code  Lc  Dem.o [13]
Dem_Event_Aged               0xcafd   0xae  Code  Lc  Dem.o [13]
Dem_Event_CalculateFailedEffects
                             0xc5df   0x32  Code  Lc  Dem.o [13]
Dem_Event_CalculateFailedEffects_OnStorage
                             0xc649   0x36  Code  Lc  Dem.o [13]
Dem_Event_CalculateStatusOnFailed
                             0xc5a9   0x36  Code  Lc  Dem.o [13]
Dem_Event_CalculateStatusOnFailed_OnStorage
                             0xc611   0x38  Code  Lc  Dem.o [13]
Dem_Event_CalculateStatusOnPassed
                             0xc68f   0x1e  Code  Lc  Dem.o [13]
Dem_Event_Cleared            0xcbab   0x9e  Code  Lc  Dem.o [13]
Dem_Event_Displaced          0xcc49   0x6e  Code  Lc  Dem.o [13]
Dem_Event_Failed             0xc8bf  0x116  Code  Lc  Dem.o [13]
Dem_Event_GetExtendedStatus
                             0xc3d9    0x4  Code  Lc  Dem.o [13]
Dem_Event_GetExternalUDSStatus
                             0xc419    0x6  Code  Lc  Dem.o [13]
Dem_Event_GetInternalStatus
                             0xc3c9    0x8  Code  Lc  Dem.o [13]
Dem_Event_GetUDSStatus       0xc3df    0xa  Code  Lc  Dem.o [13]
Dem_Event_Healed             0xc895   0x2a  Code  Lc  Dem.o [13]
Dem_Event_Init               0xccfd   0x42  Code  Lc  Dem.o [13]
Dem_Event_InitAvailableNV
                             0xc6d9    0x2  Code  Lc  Dem.o [13]
Dem_Event_InitEventContext
                             0xc57d   0x2c  Code  Lc  Dem.o [13]
Dem_Event_InitEventInternalStatus
                             0xc6dd    0x2  Code  Lc  Dem.o [13]
Dem_Event_InitEventStatus
                             0xc70d   0xc0  Code  Lc  Dem.o [13]
Dem_Event_InitNvData         0xcce3   0x1a  Code  Lc  Dem.o [13]
Dem_Event_InitQualification
                             0xc6db    0x2  Code  Lc  Dem.o [13]
Dem_Event_InitStatus_AgingEvent
                             0xc6f1    0x6  Code  Lc  Dem.o [13]
Dem_Event_InitStatus_ResetStoredOnlyBits
                             0xc6df   0x12  Code  Lc  Dem.o [13]
Dem_Event_InitStatus_UpdateIndicators
                             0xc6f7   0x16  Code  Lc  Dem.o [13]
Dem_Event_MainFunction       0xcd7f    0x2  Code  Lc  Dem.o [13]
Dem_Event_OpCycle            0xc9d5   0x8c  Code  Lc  Dem.o [13]
Dem_Event_OpCycleEnd         0xc555   0x28  Code  Lc  Dem.o [13]
Dem_Event_OpCycleEnd_Healing
                             0xc4ed   0x68  Code  Lc  Dem.o [13]
Dem_Event_OpCycleStart       0xc45f   0x68  Code  Lc  Dem.o [13]
Dem_Event_Passed             0xc7db   0xba  Code  Lc  Dem.o [13]
Dem_Event_Passed_CalcEventEffects
                             0xc6ad   0x2a  Code  Lc  Dem.o [13]
Dem_Event_PreInit            0xcd3f   0x40  Code  Lc  Dem.o [13]
Dem_Event_ProcessFailedEffects
                             0xc67f   0x10  Code  Lc  Dem.o [13]
Dem_Event_ProcessFdc         0xc7d9    0x2  Code  Lc  Dem.o [13]
Dem_Event_ProcessHealing
                             0xc4c7   0x26  Code  Lc  Dem.o [13]
Dem_Event_ProcessPassedEffects
                             0xc6d7    0x2  Code  Lc  Dem.o [13]
Dem_Event_ResetTestFailed
                             0xca61   0x9c  Code  Lc  Dem.o [13]
Dem_Event_SetExtendedStatus
                             0xc3dd    0x2  Code  Lc  Dem.o [13]
Dem_Event_SetInternalStatus
                             0xc3d1    0x8  Code  Lc  Dem.o [13]
Dem_Event_SetUDSStatus       0xc3e9    0xa  Code  Lc  Dem.o [13]
Dem_Event_TestConfirmed
                             0xc425   0x3a  Code  Lc  Dem.o [13]
Dem_Event_TestEventAvailable
                             0xc7d3    0x6  Code  Lc  Dem.o [13]
Dem_Event_TestEventMayAge
                             0xc7cd    0x6  Code  Lc  Dem.o [13]
Dem_Event_TestLatchedTestFailed
                             0xccb7   0x2c  Code  Lc  Dem.o [13]
Dem_Event_TestSimilarConditions
                             0xc41f    0x6  Code  Lc  Dem.o [13]
Dem_Event_TestValidHandle
                             0xc3a9   0x20  Code  Lc  Dem.o [13]
Dem_ExtDataElementIF_CollectCSDataWithEventId
                             0x9d41   0x56  Code  Lc  Dem.o [13]
Dem_ExtDataElementIF_CollectDataElement
                             0x9fb9   0xfe  Code  Lc  Dem.o [13]
Dem_ExtDataElementIF_CollectSRData_Boolean
                             0x9d97   0x28  Code  Lc  Dem.o [13]
Dem_ExtDataElementIF_CollectSRData_Sint16
                             0x9e15   0x2e  Code  Lc  Dem.o [13]
Dem_ExtDataElementIF_CollectSRData_Sint16_Intel
                             0x9e43   0x2e  Code  Lc  Dem.o [13]
Dem_ExtDataElementIF_CollectSRData_Sint32
                             0x9ec5   0x26  Code  Lc  Dem.o [13]
Dem_ExtDataElementIF_CollectSRData_Sint32_Intel
                             0x9eeb   0x26  Code  Lc  Dem.o [13]
Dem_ExtDataElementIF_CollectSRData_Sint8
                             0x9dbf   0x2e  Code  Lc  Dem.o [13]
Dem_ExtDataElementIF_CollectSRData_Sint8_N
                             0x9f5d   0x4a  Code  Lc  Dem.o [13]
Dem_ExtDataElementIF_CollectSRData_Uint16
                             0x9e71   0x2a  Code  Lc  Dem.o [13]
Dem_ExtDataElementIF_CollectSRData_Uint16_Intel
                             0x9e9b   0x2a  Code  Lc  Dem.o [13]
Dem_ExtDataElementIF_CollectSRData_Uint32
                             0x9f11   0x26  Code  Lc  Dem.o [13]
Dem_ExtDataElementIF_CollectSRData_Uint32_Intel
                             0x9f37   0x26  Code  Lc  Dem.o [13]
Dem_ExtDataElementIF_CollectSRData_Uint8
                             0x9ded   0x28  Code  Lc  Dem.o [13]
Dem_ExtDataElementIF_CollectStoredDid
                             0xa0b7   0x40  Code  Lc  Dem.o [13]
Dem_ExtDataElementIF_CollectUserData
                             0x9cf7   0x4a  Code  Lc  Dem.o [13]
Dem_ExtDataElementIF_InitCollectDidInfo
                             0x9fa7   0x12  Code  Lc  Dem.o [13]
Dem_ExtendedEntry_IterExists
                             0xb1ed   0x12  Code  Lc  Dem.o [13]
Dem_ExtendedEntry_IterGet
                             0xb1ff    0xa  Code  Lc  Dem.o [13]
Dem_ExtendedEntry_IterInit
                             0xb1c7    0xe  Code  Lc  Dem.o [13]
Dem_ExtendedEntry_IterNext
                             0xb1e5    0x8  Code  Lc  Dem.o [13]
Dem_ExtendedEntry_IteratorGetExtendedRecordDataConstPtr
                             0xb209    0xc  Code  Lc  Dem.o [13]
Dem_ExtendedEntry_IteratorIsExtendedRecordStored
                             0xb215   0x26  Code  Lc  Dem.o [13]
Dem_ExtendedEntry_IteratorUpdateExtendedEntry
                             0xb23b   0x2c  Code  Lc  Dem.o [13]
Dem_FilterData_CountMatchesInEventMemory
                             0xf659   0x44  Code  Lc  Dem.o [13]
Dem_FilterData_CountMatchesInPermanentMemory
                             0xf653    0x6  Code  Lc  Dem.o [13]
Dem_FilterData_CountMatchingDTCs
                             0xf7ed   0x2c  Code  Lc  Dem.o [13]
Dem_FilterData_FilterForEventMatch
                             0xf443   0xc6  Code  Lc  Dem.o [13]
Dem_FilterData_FilterMemoryByEvent
                             0xf509   0x84  Code  Lc  Dem.o [13]
Dem_FilterData_FilterMemoryChrono
                             0xf58d   0xc6  Code  Lc  Dem.o [13]
Dem_FilterData_GetChronoIndex
                             0xf1b7   0x12  Code  Lc  Dem.o [13]
Dem_FilterData_GetDTCFilterFunction
                             0xf223   0x1e  Code  Lc  Dem.o [13]
Dem_FilterData_GetDTCFilteringStrategy
                             0xf211   0x12  Code  Lc  Dem.o [13]
Dem_FilterData_GetEventId
                             0xf1a5   0x12  Code  Lc  Dem.o [13]
Dem_FilterData_GetFDC        0xf1db   0x12  Code  Lc  Dem.o [13]
Dem_FilterData_GetFilterData
                             0xf17d   0x16  Code  Lc  Dem.o [13]
Dem_FilterData_GetMemoryId
                             0xf1ed   0x12  Code  Lc  Dem.o [13]
Dem_FilterData_GetNextFilteredDTC
                             0xf74d   0xa0  Code  Lc  Dem.o [13]
Dem_FilterData_GetSeverityMask
                             0xf1ff   0x12  Code  Lc  Dem.o [13]
Dem_FilterData_GetState
                             0xf193   0x12  Code  Lc  Dem.o [13]
Dem_FilterData_GetStatusMask
                             0xf1c9   0x12  Code  Lc  Dem.o [13]
Dem_FilterData_InitDTCFilter
                             0xf319   0x6c  Code  Lc  Dem.o [13]
Dem_FilterData_InitDefault
                             0xf69d   0x48  Code  Lc  Dem.o [13]
Dem_FilterData_InitFilterFlagsAndMasks
                             0xf385   0xbe  Code  Lc  Dem.o [13]
Dem_FilterData_ResetFilterEmissionRelevant
                             0xf2bb    0x6  Code  Lc  Dem.o [13]
Dem_FilterData_ResetReportedEvents
                             0xf2c1   0x1e  Code  Lc  Dem.o [13]
Dem_FilterData_ResetUseFdc
                             0xf29f    0x6  Code  Lc  Dem.o [13]
Dem_FilterData_ResetUseSeverity
                             0xf2ad    0x6  Code  Lc  Dem.o [13]
Dem_FilterData_ResetUseStatusMask
                             0xf291    0x6  Code  Lc  Dem.o [13]
Dem_FilterData_SetDTCFilter
                             0xf6e5   0x68  Code  Lc  Dem.o [13]
Dem_FilterData_SetEventReported
                             0xf2df   0x18  Code  Lc  Dem.o [13]
Dem_FilterData_SetFDC        0xf265   0x24  Code  Lc  Dem.o [13]
Dem_FilterData_SetFilterData
                             0xf165   0x18  Code  Lc  Dem.o [13]
Dem_FilterData_SetFilterEmissionRelevant
                             0xf2b3    0x8  Code  Lc  Dem.o [13]
Dem_FilterData_SetState
                             0xf241   0x24  Code  Lc  Dem.o [13]
Dem_FilterData_SetUseFdc
                             0xf297    0x8  Code  Lc  Dem.o [13]
Dem_FilterData_SetUseSeverity
                             0xf2a5    0x8  Code  Lc  Dem.o [13]
Dem_FilterData_SetUseStatusMask
                             0xf289    0x8  Code  Lc  Dem.o [13]
Dem_FilterData_TestEventReported
                             0xf2f7   0x1c  Code  Lc  Dem.o [13]
Dem_FilterData_TestFilterSet
                             0xf107   0x1a  Code  Lc  Dem.o [13]
Dem_FilterData_TestUseFdc
                             0xf135   0x18  Code  Lc  Dem.o [13]
Dem_FilterData_TestUseSeverity
                             0xf14d   0x18  Code  Lc  Dem.o [13]
Dem_FilterData_TestUseStatusMask
                             0xf121   0x14  Code  Lc  Dem.o [13]
Dem_FreezeFrameIterator_GetFreezeFrameFilterData
                             0xe199   0x14  Code  Lc  Dem.o [13]
Dem_FreezeFrameIterator_InitDefault
                             0xe1ad   0x3a  Code  Lc  Dem.o [13]
Dem_FreezeFrameIterator_SetFreezeFrameFilterData
                             0xe17f   0x1a  Code  Lc  Dem.o [13]
Dem_GetDTCSelectionResult
                           0x1'08a5   0x6e  Code  Gb  Dem.o [13]
Dem_GetDTCStatusAvailabilityMask
                           0x1'0d07   0x4e  Code  Gb  Dem.o [13]
Dem_GetFaultDetectionCounter
                           0x1'0987   0x96  Code  Gb  Dem.o [13]
Dem_GetNextExtendedDataRecord
                           0x1'0eab   0xb4  Code  Gb  Dem.o [13]
Dem_GetNextFilteredDTC     0x1'0bff   0x86  Code  Gb  Dem.o [13]
Dem_GetNumberOfFilteredDTC
                           0x1'0b9b   0x64  Code  Gb  Dem.o [13]
Dem_GetSizeOfExtendedDataRecordSelection
                           0x1'0f5f   0x94  Code  Gb  Dem.o [13]
Dem_GetStatusOfDTC         0x1'0c85   0x82  Code  Gb  Dem.o [13]
Dem_GetTranslationType     0x1'0d55   0x44  Code  Gb  Dem.o [13]
Dem_Indicator_GetEventCountBlinking
                             0xa6b9    0x4  Code  Lc  Dem.o [13]
Dem_Indicator_GetEventCountContinuous
                             0xa6b3    0x4  Code  Lc  Dem.o [13]
Dem_Indicator_IndicatorDisable
                             0xa72b   0x2c  Code  Lc  Dem.o [13]
Dem_Indicator_IndicatorEnable
                             0xa757   0x2c  Code  Lc  Dem.o [13]
Dem_Indicator_Init           0xa7af   0x46  Code  Lc  Dem.o [13]
Dem_Indicator_InitSpecialIndicator
                             0xa783    0x2  Code  Lc  Dem.o [13]
Dem_Indicator_InitUserIndicator
                             0xa785   0x24  Code  Lc  Dem.o [13]
Dem_Indicator_InitWwhObdStatistics
                             0xa7a9    0x2  Code  Lc  Dem.o [13]
Dem_Indicator_SetEventCountBlinking
                             0xa6bd    0x2  Code  Lc  Dem.o [13]
Dem_Indicator_SetEventCountContinuous
                             0xa6b7    0x2  Code  Lc  Dem.o [13]
Dem_Indicator_SetGlobalIndicatorState
                             0xa6b1    0x2  Code  Lc  Dem.o [13]
Dem_Indicator_SpecialIndicatorDisable
                             0xa71f    0xc  Code  Lc  Dem.o [13]
Dem_Indicator_SpecialIndicatorEnable
                             0xa711    0xc  Code  Lc  Dem.o [13]
Dem_Indicator_TestHasIndicator
                             0xa6a9    0x8  Code  Lc  Dem.o [13]
Dem_Indicator_UpdateGlobalSpecialIndicatorStates
                             0xa7ab    0x2  Code  Lc  Dem.o [13]
Dem_Indicator_UpdateGlobalUserIndicatorForEvent
                             0xa7ad    0x2  Code  Lc  Dem.o [13]
Dem_Indicator_UpdateGlobalUserIndicatorStates
                             0xa6bf   0x50  Code  Lc  Dem.o [13]
Dem_Indicator_UserIndicatorDisable
                             0xa71d    0x2  Code  Lc  Dem.o [13]
Dem_Indicator_UserIndicatorEnable
                             0xa70f    0x2  Code  Lc  Dem.o [13]
Dem_Init                   0x1'0739   0x44  Code  Gb  Dem.o [13]
Dem_InitMemory             0x1'057d   0x26  Code  Gb  Dem.o [13]
Dem_InitState_CoreInitializationStatus
                        0x1fff'bbb8    0x1  Data  Lc  Dem.o [13]
Dem_InitState_SetInitState
                             0xa0f7    0x8  Code  Lc  Dem.o [13]
Dem_InitState_TestAllSatellitesAtLeastInState
                             0xa145   0x32  Code  Lc  Dem.o [13]
Dem_InitState_TestMasterAtLeastInState
                             0xa115   0x16  Code  Lc  Dem.o [13]
Dem_InitState_TestMasterInState
                             0xa0ff   0x16  Code  Lc  Dem.o [13]
Dem_InitState_TestSatelliteAtLeastInState
                             0xa177   0x1a  Code  Lc  Dem.o [13]
Dem_InitState_TestSatelliteInState
                             0xa12b   0x1a  Code  Lc  Dem.o [13]
Dem_MasterInit             0x1'06bd   0x7c  Code  Gb  Dem.o [13]
Dem_MasterMainFunction     0x1'07b1    0xc  Code  Gb  Dem.o [13]
Dem_MasterMainFunctionTimer
                           0x1'0515   0x34  Code  Gb  Dem.o [13]
Dem_MasterMainFunctionWorker
                           0x1'0549   0x34  Code  Gb  Dem.o [13]
Dem_MasterPreInit          0x1'05e5   0x64  Code  Gb  Dem.o [13]
Dem_MemAccess_Displace_CheckInvalidEntry
                             0xb29b   0x22  Code  Lc  Dem.o [13]
Dem_MemAccess_Displace_CheckPassiveState
                             0xb301   0x30  Code  Lc  Dem.o [13]
Dem_MemAccess_Displace_CheckPriority
                             0xb2bd   0x44  Code  Lc  Dem.o [13]
Dem_MemAccess_Displace_GetNextCandidate
                             0xb267   0x2e  Code  Lc  Dem.o [13]
Dem_MemAccess_Displace_UpdateBestMatch
                             0xb295    0x6  Code  Lc  Dem.o [13]
Dem_MemAccess_MemoryAllocateIndex
                             0xb3ab   0xf0  Code  Lc  Dem.o [13]
Dem_MemAccess_MemoryFindIndex
                             0xb58f   0x5a  Code  Lc  Dem.o [13]
Dem_MemAccess_MemoryFindIndex_Checked
                             0xb583    0xc  Code  Lc  Dem.o [13]
Dem_MemAccess_MemoryFreeIndex
                             0xb49b   0x74  Code  Lc  Dem.o [13]
Dem_MemAccess_SelectDisplacedIndex
                             0xb331   0x7a  Code  Lc  Dem.o [13]
Dem_MemState_CurrentTimestamp
                        0x1fff'b95c    0x4  Data  Lc  Dem.o [13]
Dem_MemState_GetCurrentTimestamp
                             0xa4af    0x8  Code  Lc  Dem.o [13]
Dem_MemState_GetFirstInvalidEventBlockIndex
                             0xa50b   0x1a  Code  Lc  Dem.o [13]
Dem_MemState_GetFirstValidEventBlockIndex
                             0xa503    0x8  Code  Lc  Dem.o [13]
Dem_MemState_GetMemoryEntryId
                             0xa47f    0xc  Code  Lc  Dem.o [13]
Dem_MemState_GetMemoryOverflow
                             0xa4bf    0x8  Code  Lc  Dem.o [13]
Dem_MemState_InitNumAllocatedMemoryEntry
                             0xa48b   0x1c  Code  Lc  Dem.o [13]
Dem_MemState_MemoryGetChronology
                             0xa4cb    0x8  Code  Lc  Dem.o [13]
Dem_MemState_MemoryGetCurrentSize
                             0xa4ef    0x6  Code  Lc  Dem.o [13]
Dem_MemState_MemoryGetFirstEvent
                             0xa4fb    0x4  Code  Lc  Dem.o [13]
Dem_MemState_MemoryGetId
                             0xa4c7    0x4  Code  Lc  Dem.o [13]
Dem_MemState_MemoryGetLastEvent
                             0xa4ff    0x4  Code  Lc  Dem.o [13]
Dem_MemState_MemoryGetMaxSize
                             0xa4eb    0x4  Code  Lc  Dem.o [13]
Dem_MemState_MemoryInfoInit
                             0xa537    0x6  Code  Lc  Dem.o [13]
Dem_MemState_MemoryIter_Begin
                             0xa4db    0x4  Code  Lc  Dem.o [13]
Dem_MemState_MemoryIter_End
                             0xa4df    0xc  Code  Lc  Dem.o [13]
Dem_MemState_MemorySetChronology
                             0xa4d3    0x8  Code  Lc  Dem.o [13]
Dem_MemState_MemorySetCurrentSize
                             0xa4f5    0x6  Code  Lc  Dem.o [13]
Dem_MemState_MemoryUpdateFinish
                             0xa561   0x18  Code  Lc  Dem.o [13]
Dem_MemState_MemoryUpdateIndex
                             0xa5cb   0x80  Code  Lc  Dem.o [13]
Dem_MemState_MemoryUpdateInit
                             0xa53d    0xc  Code  Lc  Dem.o [13]
Dem_MemState_MemoryUpdateStart
                             0xa549   0x18  Code  Lc  Dem.o [13]
Dem_MemState_PrimaryCurrentCount
                        0x1fff'bbb9    0x1  Data  Gb  Dem.o [13]
Dem_MemState_PrimaryInfo
                           0x2'95f4   0x10  Data  Lc  Dem.o [13]
Dem_MemState_ResetOverflow
                             0xa5a5   0x26  Code  Lc  Dem.o [13]
Dem_MemState_SetCommitFinished
                             0xa52d    0xa  Code  Lc  Dem.o [13]
Dem_MemState_SetCommitStarted
                             0xa525    0x8  Code  Lc  Dem.o [13]
Dem_MemState_SetCurrentTimestamp
                             0xa4a7    0x8  Code  Lc  Dem.o [13]
Dem_MemState_SetMemoryOverflow
                             0xa4b7    0x8  Code  Lc  Dem.o [13]
Dem_MemState_SetOverflow
                             0xa581   0x24  Code  Lc  Dem.o [13]
Dem_MemState_SortEntryIntoChronologicalList
                             0xa64b   0x5e  Code  Lc  Dem.o [13]
Dem_MemStorageManager_UpdateEventEntry
                             0xb899   0x56  Code  Lc  Dem.o [13]
Dem_MemStorageManager_UpdateEventEntryOnTestFailed
                             0xb7e5   0x50  Code  Lc  Dem.o [13]
Dem_MemStorageManager_UpdateEventEntryOnTestFailedThisCycle
                             0xb835   0x38  Code  Lc  Dem.o [13]
Dem_MemStorageManager_UpdateEventMemoryStatistics
                             0xb86d   0x2c  Code  Lc  Dem.o [13]
Dem_MemStorageManager_UpdateEventUserERecs
                             0xb73f   0xa6  Code  Lc  Dem.o [13]
Dem_MemoryEntry_CopyEntry
                             0x9ca9   0x20  Code  Lc  Dem.o [13]
Dem_MemoryEntry_GetAgingCounter
                             0x9c29    0xe  Code  Lc  Dem.o [13]
Dem_MemoryEntry_GetEntry
                             0x9c89    0xc  Code  Lc  Dem.o [13]
Dem_MemoryEntry_GetEventId
                             0x9bf5    0xc  Code  Lc  Dem.o [13]
Dem_MemoryEntry_GetExtendedHeader
                             0x9c45    0xe  Code  Lc  Dem.o [13]
Dem_MemoryEntry_GetExtendedRecordDataConstPtr
                             0x9c75   0x14  Code  Lc  Dem.o [13]
Dem_MemoryEntry_GetExtendedRecordDataPtr
                             0x9c61   0x14  Code  Lc  Dem.o [13]
Dem_MemoryEntry_GetTimestamp
                             0x9c0f    0xc  Code  Lc  Dem.o [13]
Dem_MemoryEntry_IncrementConsecutiveFailedCycleCounter
                             0x9cd5    0x6  Code  Lc  Dem.o [13]
Dem_MemoryEntry_IncrementFailedCycleCounter
                             0x9ccf    0x6  Code  Lc  Dem.o [13]
Dem_MemoryEntry_IncrementOccurrenceCounter
                             0x9cc9    0x6  Code  Lc  Dem.o [13]
Dem_MemoryEntry_Init         0x9c95   0x14  Code  Lc  Dem.o [13]
Dem_MemoryEntry_InitializeEntry
                             0x9cdb   0x1c  Code  Lc  Dem.o [13]
Dem_MemoryEntry_SetAgingCounter
                             0x9c37    0xe  Code  Lc  Dem.o [13]
Dem_MemoryEntry_SetEventId
                             0x9c01    0xe  Code  Lc  Dem.o [13]
Dem_MemoryEntry_SetExtendedHeader
                             0x9c53    0xe  Code  Lc  Dem.o [13]
Dem_MemoryEntry_SetTimestamp
                             0x9c1b    0xe  Code  Lc  Dem.o [13]
Dem_MemoryRestoration_FixCorruptMemoryEntry
                           0x1'024d   0x7a  Code  Lc  Dem.o [13]
Dem_MemoryRestoration_FixDoubleAllocation
                           0x1'02c7   0x9e  Code  Lc  Dem.o [13]
Dem_MemoryRestoration_RestoreEventStatus
                           0x1'0365   0x36  Code  Lc  Dem.o [13]
Dem_MemoryRestoration_RestoreStatusBits_OnFailedStorage
                           0x1'0215   0x38  Code  Lc  Dem.o [13]
Dem_MemoryRestoration_RestoreStoredStatusFromEntry
                           0x1'01db   0x3a  Code  Lc  Dem.o [13]
Dem_Memory_Init            0x1'044f   0xbc  Code  Lc  Dem.o [13]
Dem_Memory_Init_RestoreMemory
                           0x1'039b   0xb4  Code  Lc  Dem.o [13]
Dem_MidLookup_Init           0xb9f9    0x2  Code  Lc  Dem.o [13]
Dem_MidLookup_PreInit        0xb9fb    0x2  Code  Lc  Dem.o [13]
Dem_MidLookup_UpdateMidVisibility
                             0xb9fd    0x2  Code  Lc  Dem.o [13]
Dem_Monitor_GetMonitorStatus
                             0xabff    0x8  Code  Lc  Dem.o [13]
Dem_Monitor_ResetMonitorStatus
                             0xabf5    0xa  Code  Lc  Dem.o [13]
Dem_Monitor_ResetTNCTOC
                             0xac0b   0x1c  Code  Lc  Dem.o [13]
Dem_Monitor_SetMonitorStatusTNCTOC
                             0xabed    0x8  Code  Lc  Dem.o [13]
Dem_Notifications_ClearDTCEnd
                             0xadd3    0x2  Code  Lc  Dem.o [13]
Dem_Notifications_ClearDTCStart
                             0xadd1    0x2  Code  Lc  Dem.o [13]
Dem_Notifications_ControlDtcSettingChanged
                             0xadd5   0x1a  Code  Lc  Dem.o [13]
Dem_Notifications_DtcStatusChanged
                             0xacc5   0x82  Code  Lc  Dem.o [13]
Dem_Notifications_EventDataChanged
                             0xac4f   0x30  Code  Lc  Dem.o [13]
Dem_Notifications_EventStatusChanged
                             0xad47   0x66  Code  Lc  Dem.o [13]
Dem_Notifications_InitMonitorForEvent
                             0xac7f   0x1a  Code  Lc  Dem.o [13]
Dem_Notifications_InitMonitorForFunction
                             0xac99   0x2c  Code  Lc  Dem.o [13]
Dem_Notifications_J1939DtcStatusChanged
                             0xac4d    0x2  Code  Lc  Dem.o [13]
Dem_Notifications_MonitorStatusChanged
                             0xadad   0x24  Code  Lc  Dem.o [13]
Dem_NvM_InitAdminData      0x1'0a1d   0x56  Code  Gb  Dem.o [13]
Dem_NvM_InitStatusData     0x1'0a79   0x5a  Code  Gb  Dem.o [13]
Dem_Nvm_GetSingleBlockId
                             0xaae5    0x6  Code  Lc  Dem.o [13]
Dem_Nvm_Init                 0xab0f    0x2  Code  Lc  Dem.o [13]
Dem_Nvm_MainFunction         0xab11    0x2  Code  Lc  Dem.o [13]
Dem_Nvm_SetAllBlocksDirty
                             0xaaef   0x10  Code  Lc  Dem.o [13]
Dem_Nvm_SetEventMemoryBlockState
                             0xaaed    0x2  Code  Lc  Dem.o [13]
Dem_Nvm_SetSingleBlockState
                             0xaaeb    0x2  Code  Lc  Dem.o [13]
Dem_Nvm_SetStatusBlockChanged
                             0xab0d    0x2  Code  Lc  Dem.o [13]
Dem_OperationCycle_AddCycleCount
                             0xc0f3   0x1a  Code  Lc  Dem.o [13]
Dem_OperationCycle_CurrentCycleState
                        0x1fff'bb8c    0x2  Data  Lc  Dem.o [13]
Dem_OperationCycle_CycleFlag
                        0x1fff'bb90    0x2  Data  Lc  Dem.o [13]
Dem_OperationCycle_CycleUpdate
                             0xc2ff   0x44  Code  Lc  Dem.o [13]
Dem_OperationCycle_CycleUpdateEnd
                             0xc2bb   0x30  Code  Lc  Dem.o [13]
Dem_OperationCycle_CycleUpdateReadiness
                             0xc285   0x36  Code  Lc  Dem.o [13]
Dem_OperationCycle_CycleUpdateStored
                             0xc18b   0x64  Code  Lc  Dem.o [13]
Dem_OperationCycle_GetCurrentCycleStatus
                             0xc0b1   0x1a  Code  Lc  Dem.o [13]
Dem_OperationCycle_GetCycleCounter
                             0xc095    0xe  Code  Lc  Dem.o [13]
Dem_OperationCycle_Init
                             0xc357    0xa  Code  Lc  Dem.o [13]
Dem_OperationCycle_MainFunction
                             0xc2ef   0x10  Code  Lc  Dem.o [13]
Dem_OperationCycle_ObdCycleUpdate
                             0xc2eb    0x2  Code  Lc  Dem.o [13]
Dem_OperationCycle_PendingCycleState
                        0x1fff'bb8e    0x2  Data  Lc  Dem.o [13]
Dem_OperationCycle_PreInit
                             0xc343   0x14  Code  Lc  Dem.o [13]
Dem_OperationCycle_ProcessCycles
                             0xc10d   0x7e  Code  Lc  Dem.o [13]
Dem_OperationCycle_SetCycleCounter
                             0xc0a3    0xe  Code  Lc  Dem.o [13]
Dem_OperationCycle_SetCycleStatus
                             0xc0cb   0x28  Code  Lc  Dem.o [13]
Dem_OperationCycle_Shutdown
                             0xc361   0x48  Code  Lc  Dem.o [13]
Dem_OperationCycle_UpdateCycleStatesInNvBlock
                             0xc2ed    0x2  Code  Lc  Dem.o [13]
Dem_OperationCycle_UpdateProcessEvent
                             0xc221   0x64  Code  Lc  Dem.o [13]
Dem_OperationCycle_UpdateTestEventAffected
                             0xc1ef   0x32  Code  Lc  Dem.o [13]
Dem_PreInit                0x1'0649   0x32  Code  Gb  Dem.o [13]
Dem_Prestore_EventPrestorageClear
                             0xab31    0x4  Code  Lc  Dem.o [13]
Dem_Prestore_MainFunction
                             0xab35   0x2c  Code  Lc  Dem.o [13]
Dem_Prestore_ProcessSatelliteQueueActions
                             0xab2f    0x2  Code  Lc  Dem.o [13]
Dem_Queue_CalculatePid01
                             0xc08f    0x2  Code  Lc  Dem.o [13]
Dem_Queue_Init               0xc089    0x2  Code  Lc  Dem.o [13]
Dem_Queue_PreInit            0xc087    0x2  Code  Lc  Dem.o [13]
Dem_Queue_ProcessEngineRuntime
                             0xc091    0x2  Code  Lc  Dem.o [13]
Dem_Queue_ProcessIumpr       0xc08b    0x2  Code  Lc  Dem.o [13]
Dem_Queue_ProcessOdometer
                             0xc08d    0x2  Code  Lc  Dem.o [13]
Dem_Queue_ProcessTimeSeries
                             0xc093    0x2  Code  Lc  Dem.o [13]
Dem_SatelliteCore_ClearEvent
                             0xdf6b   0x88  Code  Lc  Dem.o [13]
Dem_SatelliteCore_ConsumeEventQueueStatus
                             0xe033   0x32  Code  Lc  Dem.o [13]
Dem_SatelliteCore_FreezeDebounceStatus
                             0xde79    0xc  Code  Lc  Dem.o [13]
Dem_SatelliteCore_MemoryInit
                             0xe065   0x12  Code  Lc  Dem.o [13]
Dem_SatelliteCore_ResetDebounceStatus
                             0xded7    0xc  Code  Lc  Dem.o [13]
Dem_SatelliteCore_RestartEvent
                             0xdee3   0x88  Code  Lc  Dem.o [13]
Dem_SatelliteCore_SyncSetSatelliteData
                             0xddf1    0xc  Code  Lc  Dem.o [13]
Dem_SatelliteCore_SyncSetSatelliteInfo
                             0xddab    0xa  Code  Lc  Dem.o [13]
Dem_SatelliteCore_TestAndClearEventQueueUpdated
                             0xdff3   0x2c  Code  Lc  Dem.o [13]
Dem_SatelliteCore_TestAndClearPrestoreQueueUpdated
                             0xe01f    0x4  Code  Lc  Dem.o [13]
Dem_SatelliteData_GetDebounceData
                             0xab9b    0xa  Code  Lc  Dem.o [13]
Dem_SatelliteData_GetDebounceStatus
                             0xab7f    0xe  Code  Lc  Dem.o [13]
Dem_SatelliteData_GetInitValue
                             0xabe1    0xc  Code  Lc  Dem.o [13]
Dem_SatelliteData_GetMonitorStatus
                             0xabbb    0xe  Code  Lc  Dem.o [13]
Dem_SatelliteData_GetQueueStatus
                             0xabd7    0xa  Code  Lc  Dem.o [13]
Dem_SatelliteData_ResetSimilarConditionStatus
                             0xab61    0x2  Code  Lc  Dem.o [13]
Dem_SatelliteData_SetDebounceData
                             0xab8d    0xe  Code  Lc  Dem.o [13]
Dem_SatelliteData_SetDebounceStatus
                             0xab63   0x1c  Code  Lc  Dem.o [13]
Dem_SatelliteData_SetMonitorStatus
                             0xaba5   0x16  Code  Lc  Dem.o [13]
Dem_SatelliteData_SetQueueStatus
                             0xabc9    0xe  Code  Lc  Dem.o [13]
Dem_SatelliteInfo_GetEventQueueUpdated
                             0x9b3b    0xe  Code  Lc  Dem.o [13]
Dem_SatelliteInfo_GetInitStatus
                             0x9b1b    0xa  Code  Lc  Dem.o [13]
Dem_SatelliteInfo_ResetEventQueueUpdated
                             0x9b25   0x16  Code  Lc  Dem.o [13]
Dem_SatelliteInfo_SetInitStatus
                             0x9b0d    0xe  Code  Lc  Dem.o [13]
Dem_SatelliteInit          0x1'067b   0x42  Code  Gb  Dem.o [13]
Dem_SatelliteMainFunction
                           0x1'07bd   0x46  Code  Gb  Dem.o [13]
Dem_SatellitePreInit       0x1'05a3   0x42  Code  Gb  Dem.o [13]
Dem_SatelliteSat_FreezeDebounceStatus
                             0xde29   0x50  Code  Lc  Dem.o [13]
Dem_SatelliteSat_Init        0xe0d3    0xc  Code  Lc  Dem.o [13]
Dem_SatelliteSat_MainFunction
                             0xde85    0x2  Code  Lc  Dem.o [13]
Dem_SatelliteSat_PreInit
                             0xe077   0x5c  Code  Lc  Dem.o [13]
Dem_SatelliteSat_ResetDebounceStatus
                             0xde87   0x50  Code  Lc  Dem.o [13]
Dem_SatelliteSat_SetInitState
                             0xddfd   0x2c  Code  Lc  Dem.o [13]
Dem_SatelliteSat_SetSatelliteData
                             0xddc1    0xc  Code  Lc  Dem.o [13]
Dem_SatelliteSat_SetSatelliteExtendedData
                             0xddcd    0x2  Code  Lc  Dem.o [13]
Dem_SatelliteSat_SetSatelliteInfo
                             0xdd95    0x8  Code  Lc  Dem.o [13]
Dem_SatelliteSat_SyncSetSatelliteData
                             0xddcf   0x1a  Code  Lc  Dem.o [13]
Dem_SatelliteSat_SyncSetSatelliteInfo
                             0xdd9d    0xe  Code  Lc  Dem.o [13]
Dem_Satellite_GetCurrentSatelliteId
                             0xe129    0x6  Code  Lc  Dem.o [13]
Dem_Satellite_GetEventId
                             0xdd85    0x8  Code  Lc  Dem.o [13]
Dem_Satellite_GetFaultDetectionCounter
                             0xe0df   0x3c  Code  Lc  Dem.o [13]
Dem_Satellite_GetInitState
                             0xe11b    0xe  Code  Lc  Dem.o [13]
Dem_Satellite_GetSatelliteData
                             0xddb5    0xc  Code  Lc  Dem.o [13]
Dem_Satellite_GetSatelliteInfo
                             0xdd8d    0x8  Code  Lc  Dem.o [13]
Dem_Satellite_PeekEventQueueStatus
                             0xe023   0x10  Code  Lc  Dem.o [13]
Dem_Scheduler_CallTask       0xa91b   0x88  Code  Lc  Dem.o [13]
Dem_Scheduler_DisableTask
                             0xaa09   0x14  Code  Lc  Dem.o [13]
Dem_Scheduler_EnableTask
                             0xa9e1   0x14  Code  Lc  Dem.o [13]
Dem_Scheduler_EnableTaskOnce
                             0xa9f5   0x14  Code  Lc  Dem.o [13]
Dem_Scheduler_GetAndClearScheduledTasks
                             0xa8fd   0x1e  Code  Lc  Dem.o [13]
Dem_Scheduler_Init           0xa9a3   0x12  Code  Lc  Dem.o [13]
Dem_Scheduler_MainFunction
                             0xa9b5   0x2c  Code  Lc  Dem.o [13]
Dem_Scheduler_ScheduledMultipleInvocationTasks
                        0x1fff'b960    0x4  Data  Lc  Dem.o [13]
Dem_Scheduler_ScheduledSingleInvocationTasks
                        0x1fff'b964    0x4  Data  Lc  Dem.o [13]
Dem_SelectDTC              0x1'0803   0xa2  Code  Gb  Dem.o [13]
Dem_SelectExtendedDataRecord
                           0x1'0e4d   0x5e  Code  Gb  Dem.o [13]
Dem_SetDTCFilter           0x1'0ad3   0xc8  Code  Gb  Dem.o [13]
Dem_Shutdown               0x1'077d   0x34  Code  Gb  Dem.o [13]
Dem_Statistics_GetFirstConfirmedEvent
                             0xaa2d    0x8  Code  Lc  Dem.o [13]
Dem_Statistics_GetFirstFailedEvent
                             0xaa1d    0x8  Code  Lc  Dem.o [13]
Dem_Statistics_SetFirstConfirmedEvent
                             0xaa35    0x8  Code  Lc  Dem.o [13]
Dem_Statistics_SetFirstFailedEvent
                             0xaa25    0x8  Code  Lc  Dem.o [13]
Dem_Statistics_SetMostRecentConfirmedEvent
                             0xaa45    0x8  Code  Lc  Dem.o [13]
Dem_Statistics_SetMostRecentFailedEvent
                             0xaa3d    0x8  Code  Lc  Dem.o [13]
Dem_Statistics_UpdateGlobalFailureStatistics
                             0xaa4d   0x54  Code  Lc  Dem.o [13]
Dem_StorageCondition_PreInit
                             0xac47    0x2  Code  Lc  Dem.o [13]
Dem_StorageCondition_TestEventStorageConditionsFulfilled
                             0xac49    0x4  Code  Lc  Dem.o [13]
Dem_Timer_Init               0xc083    0x2  Code  Lc  Dem.o [13]
Dem_Timer_MainFunction       0xc085    0x2  Code  Lc  Dem.o [13]
Dem_UDSStatus_IsNvRelevantStatusChange
                             0x9bdf    0x6  Code  Lc  Dem.o [13]
Dem_UDSStatus_Reset_CDTC
                             0x9b9f    0x6  Code  Lc  Dem.o [13]
Dem_UDSStatus_Reset_PDTC
                             0x9b87    0x6  Code  Lc  Dem.o [13]
Dem_UDSStatus_Reset_TF       0x9b57    0x6  Code  Lc  Dem.o [13]
Dem_UDSStatus_Reset_TFTOC
                             0x9b6f    0x6  Code  Lc  Dem.o [13]
Dem_UDSStatus_Reset_TNCSLC
                             0x9ba5    0x6  Code  Lc  Dem.o [13]
Dem_UDSStatus_Reset_TNCTOC
                             0x9bc5    0x6  Code  Lc  Dem.o [13]
Dem_UDSStatus_Reset_WIR
                             0x9bd9    0x6  Code  Lc  Dem.o [13]
Dem_UDSStatus_Set_CDTC       0x9b97    0x8  Code  Lc  Dem.o [13]
Dem_UDSStatus_Set_PDTC       0x9b7f    0x8  Code  Lc  Dem.o [13]
Dem_UDSStatus_Set_TF         0x9b4f    0x8  Code  Lc  Dem.o [13]
Dem_UDSStatus_Set_TFSLC
                             0x9bab    0x8  Code  Lc  Dem.o [13]
Dem_UDSStatus_Set_TFTOC
                             0x9b67    0x8  Code  Lc  Dem.o [13]
Dem_UDSStatus_Set_TNCTOC
                             0x9bbd    0x8  Code  Lc  Dem.o [13]
Dem_UDSStatus_Set_WIR        0x9bd1    0x8  Code  Lc  Dem.o [13]
Dem_UDSStatus_Test_CDTC
                             0x9b8d    0xa  Code  Lc  Dem.o [13]
Dem_UDSStatus_Test_PDTC
                             0x9b75    0xa  Code  Lc  Dem.o [13]
Dem_UDSStatus_Test_TF        0x9b49    0x6  Code  Lc  Dem.o [13]
Dem_UDSStatus_Test_TFTOC
                             0x9b5d    0xa  Code  Lc  Dem.o [13]
Dem_UDSStatus_Test_TNCTOC
                             0x9bb3    0xa  Code  Lc  Dem.o [13]
Dem_UDSStatus_Test_WIR       0x9bcb    0x6  Code  Lc  Dem.o [13]
Det_EndlessLoop              0x2055    0x2  Code  Lc  Det.o [14]
Det_Init                     0x2057    0x8  Code  Gb  Det.o [14]
Det_InitMemory               0x205f    0x8  Code  Gb  Det.o [14]
Det_ReportError              0x2067   0x12  Code  Gb  Det.o [14]
Dio_Gpio_WriteChannel      0x1'3375   0x3a  Code  Gb  Dio_Gpio.o [21]
Dio_WriteChannel           0x1'2f7b    0xc  Code  Gb  Dio.o [21]
ENET_ERR_IRQHandler        0x1'35d1         Code  Wk  startup_S32K148.o [20]
ENET_RX_IRQHandler         0x1'35d1         Code  Wk  startup_S32K148.o [20]
ENET_STOP_IRQHandler       0x1'35d1         Code  Wk  startup_S32K148.o [20]
ENET_TIMER_IRQHandler      0x1'35d1         Code  Wk  startup_S32K148.o [20]
ENET_TX_IRQHandler         0x1'35d1         Code  Wk  startup_S32K148.o [20]
ENET_WAKE_IRQHandler       0x1'35d1         Code  Wk  startup_S32K148.o [20]
ERM_double_fault_IRQHandler
                           0x1'35d1         Code  Wk  startup_S32K148.o [20]
ERM_single_fault_IRQHandler
                           0x1'35d1         Code  Wk  startup_S32K148.o [20]
ESH_ComM_CheckPendingRequests
                           0x1'2f43   0x2c  Code  Gb  BswM_Callout_Stubs.o [4]
EcuM_AL_DriverInitOne        0x2019   0x28  Code  Gb  EcuM_Callout_Stubs.o [4]
EcuM_AL_DriverInitZero       0x1fd9   0x40  Code  Gb  EcuM_Callout_Stubs.o [4]
EcuM_AL_SetProgrammableInterrupts
                             0x2053    0x2  Code  Gb  EcuM_Callout_Stubs.o [4]
EcuM_BswM_BufferedWakeups
                        0x1fff'bac4    0x4  Data  Lc  EcuM.o [15]
EcuM_ClearValidatedWakeupEvent
                              0x7d3   0x42  Code  Gb  EcuM.o [15]
EcuM_ComM_BufferedWakeups
                        0x1fff'bac8    0x4  Data  Lc  EcuM.o [15]
EcuM_CurrentBootTarget  0x1fff'bbc3    0x1  Data  Lc  EcuM.o [15]
EcuM_CurrentShutdownMode
                        0x1fff'bbc0    0x1  Data  Lc  EcuM.o [15]
EcuM_CurrentShutdownTarget
                        0x1fff'bbc1    0x1  Data  Lc  EcuM.o [15]
EcuM_DriverInitOne         0x2'973c    0x4  Data  Gb  EcuM_Cfg.o [2]
EcuM_GetPendingWakeupEvents
                              0x7a9   0x2a  Code  Gb  EcuM.o [15]
EcuM_GetValidatedWakeupEvents
                              0x815   0x2e  Code  Gb  EcuM.o [15]
EcuM_GoDown                   0x8ab   0x68  Code  Gb  EcuM.o [15]
EcuM_GoToSelectedShutdownTarget
                              0x89f    0xc  Code  Gb  EcuM.o [15]
EcuM_Init                     0x743   0x66  Code  Gb  EcuM.o [15]
EcuM_InternalClearWakeupEvent
                              0x70f   0x22  Code  Lc  EcuM.o [15]
EcuM_InternalComMNotifications
                              0x6cd   0x42  Code  Lc  EcuM.o [15]
EcuM_MainFunction             0x731   0x12  Code  Gb  EcuM.o [15]
EcuM_ModuleState        0x1fff'bbc4    0x1  Data  Gb  EcuM_Cfg.o [2]
EcuM_OnGoOffOne              0x1fcd    0x2  Code  Gb  EcuM_Callout_Stubs.o [4]
EcuM_ShutdownCause      0x1fff'bbc2    0x1  Data  Lc  EcuM.o [15]
EcuM_ShutdownOS              0x1fcf    0xa  Code  Gb  EcuM_Callout_Stubs.o [4]
EcuM_StartOS                 0x2049    0xa  Code  Gb  EcuM_Callout_Stubs.o [4]
EcuM_StartupTwo               0x843   0x5c  Code  Gb  EcuM.o [15]
EcuM_ValidatedWakeups   0x1fff'bac0    0x4  Data  Lc  EcuM.o [15]
EcuM_WakeupSourceList      0x2'9740    0x8  Data  Gb  EcuM_Cfg.o [2]
ErrorHook                  0x1'3591   0x18  Code  Gb  Os_Callout_Stubs.o [4]
FIRC_ClockConfigPB0_0      0x2'978c   0x18  Data  Lc  Mcu_PBcfg.o [3]
FLEXIO_IRQHandler          0x1'35d1         Code  Wk  startup_S32K148.o [20]
FTFC_Fault_IRQHandler      0x1'35d1         Code  Wk  startup_S32K148.o [20]
FTFC_IRQHandler            0x1'35d1         Code  Wk  startup_S32K148.o [20]
FTM0_Ch0_Ch1_IRQHandler
                           0x1'35d1         Code  Wk  startup_S32K148.o [20]
FTM0_Ch2_Ch3_IRQHandler
                           0x1'35d1         Code  Wk  startup_S32K148.o [20]
FTM0_Ch4_Ch5_IRQHandler
                           0x1'35d1         Code  Wk  startup_S32K148.o [20]
FTM0_Ch6_Ch7_IRQHandler
                           0x1'35d1         Code  Wk  startup_S32K148.o [20]
FTM0_Fault_IRQHandler      0x1'35d1         Code  Wk  startup_S32K148.o [20]
FTM0_Ovf_Reload_IRQHandler
                           0x1'35d1         Code  Wk  startup_S32K148.o [20]
FTM1_Ch0_Ch1_IRQHandler
                           0x1'35d1         Code  Wk  startup_S32K148.o [20]
FTM1_Ch2_Ch3_IRQHandler
                           0x1'35d1         Code  Wk  startup_S32K148.o [20]
FTM1_Ch4_Ch5_IRQHandler
                           0x1'35d1         Code  Wk  startup_S32K148.o [20]
FTM1_Ch6_Ch7_IRQHandler
                           0x1'35d1         Code  Wk  startup_S32K148.o [20]
FTM1_Fault_IRQHandler      0x1'35d1         Code  Wk  startup_S32K148.o [20]
FTM1_Ovf_Reload_IRQHandler
                           0x1'35d1         Code  Wk  startup_S32K148.o [20]
FTM2_Ch0_Ch1_IRQHandler
                           0x1'35d1         Code  Wk  startup_S32K148.o [20]
FTM2_Ch2_Ch3_IRQHandler
                           0x1'35d1         Code  Wk  startup_S32K148.o [20]
FTM2_Ch4_Ch5_IRQHandler
                           0x1'35d1         Code  Wk  startup_S32K148.o [20]
FTM2_Ch6_Ch7_IRQHandler
                           0x1'35d1         Code  Wk  startup_S32K148.o [20]
FTM2_Fault_IRQHandler      0x1'35d1         Code  Wk  startup_S32K148.o [20]
FTM2_Ovf_Reload_IRQHandler
                           0x1'35d1         Code  Wk  startup_S32K148.o [20]
FTM3_Ch0_Ch1_IRQHandler
                           0x1'35d1         Code  Wk  startup_S32K148.o [20]
FTM3_Ch2_Ch3_IRQHandler
                           0x1'35d1         Code  Wk  startup_S32K148.o [20]
FTM3_Ch4_Ch5_IRQHandler
                           0x1'35d1         Code  Wk  startup_S32K148.o [20]
FTM3_Ch6_Ch7_IRQHandler
                           0x1'35d1         Code  Wk  startup_S32K148.o [20]
FTM3_Fault_IRQHandler      0x1'35d1         Code  Wk  startup_S32K148.o [20]
FTM3_Ovf_Reload_IRQHandler
                           0x1'35d1         Code  Wk  startup_S32K148.o [20]
FTM4_Ch0_Ch1_IRQHandler
                           0x1'35d1         Code  Wk  startup_S32K148.o [20]
FTM4_Ch2_Ch3_IRQHandler
                           0x1'35d1         Code  Wk  startup_S32K148.o [20]
FTM4_Ch4_Ch5_IRQHandler
                           0x1'35d1         Code  Wk  startup_S32K148.o [20]
FTM4_Ch6_Ch7_IRQHandler
                           0x1'35d1         Code  Wk  startup_S32K148.o [20]
FTM4_Fault_IRQHandler      0x1'35d1         Code  Wk  startup_S32K148.o [20]
FTM4_Ovf_Reload_IRQHandler
                           0x1'35d1         Code  Wk  startup_S32K148.o [20]
FTM5_Ch0_Ch1_IRQHandler
                           0x1'35d1         Code  Wk  startup_S32K148.o [20]
FTM5_Ch2_Ch3_IRQHandler
                           0x1'35d1         Code  Wk  startup_S32K148.o [20]
FTM5_Ch4_Ch5_IRQHandler
                           0x1'35d1         Code  Wk  startup_S32K148.o [20]
FTM5_Ch6_Ch7_IRQHandler
                           0x1'35d1         Code  Wk  startup_S32K148.o [20]
FTM5_Fault_IRQHandler      0x1'35d1         Code  Wk  startup_S32K148.o [20]
FTM5_Ovf_Reload_IRQHandler
                           0x1'35d1         Code  Wk  startup_S32K148.o [20]
FTM6_Ch0_Ch1_IRQHandler
                           0x1'35d1         Code  Wk  startup_S32K148.o [20]
FTM6_Ch2_Ch3_IRQHandler
                           0x1'35d1         Code  Wk  startup_S32K148.o [20]
FTM6_Ch4_Ch5_IRQHandler
                           0x1'35d1         Code  Wk  startup_S32K148.o [20]
FTM6_Ch6_Ch7_IRQHandler
                           0x1'35d1         Code  Wk  startup_S32K148.o [20]
FTM6_Fault_IRQHandler      0x1'35d1         Code  Wk  startup_S32K148.o [20]
FTM6_Ovf_Reload_IRQHandler
                           0x1'35d1         Code  Wk  startup_S32K148.o [20]
FTM7_Ch0_Ch1_IRQHandler
                           0x1'35d1         Code  Wk  startup_S32K148.o [20]
FTM7_Ch2_Ch3_IRQHandler
                           0x1'35d1         Code  Wk  startup_S32K148.o [20]
FTM7_Ch4_Ch5_IRQHandler
                           0x1'35d1         Code  Wk  startup_S32K148.o [20]
FTM7_Ch6_Ch7_IRQHandler
                           0x1'35d1         Code  Wk  startup_S32K148.o [20]
FTM7_Fault_IRQHandler      0x1'35d1         Code  Wk  startup_S32K148.o [20]
FTM7_Ovf_Reload_IRQHandler
                           0x1'35d1         Code  Wk  startup_S32K148.o [20]
GetCounterValue            0x1'd69b   0x68  Code  Gb  Os_Trap.o [17]
GetElapsedValue            0x1'd703   0x8e  Code  Gb  Os_Trap.o [17]
GetEvent                   0x1'd5e3   0x6c  Code  Gb  Os_Trap.o [17]
HWUnitConfig_PB            0x2'9c78    0x8  Data  Lc  Spi_PBcfg.o [3]
HardFault_Handler          0x1'226f         Code  Wk  startup_S32K148.o [20]
Heap_Default$$Base      0x1fff'bbcc          --   Gb  - Linker created -
Heap_Default$$Limit     0x1fff'bbcc          --   Gb  - Linker created -
LPI2C0_Master_IRQHandler
                           0x1'35d1         Code  Wk  startup_S32K148.o [20]
LPI2C0_Slave_IRQHandler
                           0x1'35d1         Code  Wk  startup_S32K148.o [20]
LPI2C1_Master_IRQHandler
                           0x1'35d1         Code  Wk  startup_S32K148.o [20]
LPI2C1_Slave_IRQHandler
                           0x1'35d1         Code  Wk  startup_S32K148.o [20]
LPIT0_Ch0_IRQHandler       0x1'35d1         Code  Wk  startup_S32K148.o [20]
LPIT0_Ch1_IRQHandler       0x1'35d1         Code  Wk  startup_S32K148.o [20]
LPIT0_Ch2_IRQHandler       0x1'35d1         Code  Wk  startup_S32K148.o [20]
LPIT0_Ch3_IRQHandler       0x1'35d1         Code  Wk  startup_S32K148.o [20]
LPSPI0_IRQHandler          0x1'35d1         Code  Wk  startup_S32K148.o [20]
LPSPI1_IRQHandler          0x1'35d1         Code  Wk  startup_S32K148.o [20]
LPSPI2_IRQHandler          0x1'35d1         Code  Wk  startup_S32K148.o [20]
LPTMR0_IRQHandler          0x1'35d1         Code  Wk  startup_S32K148.o [20]
LPUART0_RxTx_IRQHandler
                           0x1'35d1         Code  Wk  startup_S32K148.o [20]
LPUART1_RxTx_IRQHandler
                           0x1'35d1         Code  Wk  startup_S32K148.o [20]
LPUART2_RxTx_IRQHandler
                           0x1'35d1         Code  Wk  startup_S32K148.o [20]
LPspiChannelAttributesConfig_PB0
                           0x2'9c58    0xc  Data  Lc  Spi_PBcfg.o [3]
LPspiDeviceAttributesConfig_PB0
                           0x2'9c64    0xc  Data  Lc  Spi_PBcfg.o [3]
LVD_LVW_IRQHandler         0x1'35d1         Code  Wk  startup_S32K148.o [20]
LedRunnable                0x1'1b71   0x1e  Code  Gb  CtLedTask.o [4]
LedRunnable::LedCnt     0x1fff'b824    0x4  Data  Lc  CtLedTask.o [4]
LedRunnable::LedState   0x1fff'bbb6    0x1  Data  Lc  CtLedTask.o [4]
MCM_IRQHandler             0x1'35d1         Code  Wk  startup_S32K148.o [20]
McuModuleConfiguration     0x2'9934   0x18  Data  Gb  Mcu_PBcfg.o [3]
Mcu_ClockConfigPB0         0x2'98e4   0x14  Data  Lc  Mcu_PBcfg.o [3]
Mcu_DistributePllClock     0x1'10fd    0xe  Code  Gb  Mcu.o [22]
Mcu_GetPllStatus           0x1'110b    0xa  Code  Gb  Mcu.o [22]
Mcu_HwIPsConfigPB0         0x2'9924   0x10  Data  Lc  Mcu_PBcfg.o [3]
Mcu_Init                   0x1'1089   0x48  Code  Gb  Mcu.o [22]
Mcu_InitClock              0x1'10d1   0x1e  Code  Gb  Mcu.o [22]
Mcu_Ipw_DistributePllClock
                           0x1'26f1   0x20  Code  Gb  Mcu_IPW.o [22]
Mcu_Ipw_GetPllStatus       0x1'2715   0x18  Code  Gb  Mcu_IPW.o [22]
Mcu_Ipw_Init               0x1'265d   0x1e  Code  Gb  Mcu_IPW.o [22]
Mcu_Ipw_InitClock          0x1'267b   0x76  Code  Gb  Mcu_IPW.o [22]
Mcu_Mode_ConfigPB0         0x2'9748    0x8  Data  Lc  Mcu_PBcfg.o [3]
Mcu_PCC_PeripheralConfig
                           0x1'330d   0x68  Code  Gb  Mcu_PCC.o [22]
Mcu_PMC_PowerInit          0x1'3115   0x26  Code  Gb  Mcu_PMC.o [22]
Mcu_RCM_ResetInit          0x1'30f1   0x1a  Code  Gb  Mcu_RCM.o [22]
Mcu_SCG_DropSystemClockToSirc
                           0x1'3173   0x60  Code  Gb  Mcu_SCG.o [22]
Mcu_SCG_FircInit           0x1'325d   0x48  Code  Gb  Mcu_SCG.o [22]
Mcu_SCG_GetPLLStatus       0x1'32cb   0x1a  Code  Gb  Mcu_SCG.o [22]
Mcu_SCG_SircInit           0x1'3219   0x44  Code  Gb  Mcu_SCG.o [22]
Mcu_SCG_SoscInit           0x1'31d3   0x46  Code  Gb  Mcu_SCG.o [22]
Mcu_SCG_SpllInit           0x1'32a5   0x26  Code  Gb  Mcu_SCG.o [22]
Mcu_SCG_SystemClockInit
                           0x1'3159   0x1a  Code  Gb  Mcu_SCG.o [22]
Mcu_SIM_ClockConfig        0x1'3087   0x34  Code  Gb  Mcu_SIM.o [22]
Mcu_SIM_Init               0x1'3039   0x4e  Code  Gb  Mcu_SIM.o [22]
Mcu_SMC_AllowedModesConfig
                           0x1'3149    0xc  Code  Gb  Mcu_SMC.o [22]
Mcu_au8ClockConfigIds   0x1fff'bbc5    0x1  Data  Lc  Mcu.o [22]
Mcu_au8ModeConfigIds    0x1fff'bbc6    0x1  Data  Lc  Mcu.o [22]
Mcu_pClockConfig        0x1fff'bad0    0x4  Data  Lc  Mcu_IPW.o [22]
Mcu_pConfigPtr          0x1fff'bacc    0x4  Data  Gb  Mcu.o [22]
MemManage_Handler          0x1'265b         Code  Wk  startup_S32K148.o [20]
NMI_Handler                0x1'1087         Code  Wk  startup_S32K148.o [20]
OS_BARRIER_CORE0_VAR_NOCACHE_NOINIT_BLOCK$$Base
                        0x1fff'b6e0          --   Gb  - Linker created -
OS_BARRIER_CORE0_VAR_NOCACHE_NOINIT_BLOCK$$Limit
                        0x1fff'b6e8          --   Gb  - Linker created -
OS_CODE$$Base              0x1'35d4          --   Gb  - Linker created -
OS_CODE$$Limit             0x2'8784          --   Gb  - Linker created -
OS_CODE_BLOCK$$Base        0x1'35d8         Data  Gb  - Linker created -
OS_CODE_BLOCK$$Limit       0x2'8784         Data  Gb  - Linker created -
OS_CONST$$Base             0x2'8784          --   Gb  - Linker created -
OS_CONST$$Limit            0x2'9094          --   Gb  - Linker created -
OS_CONST_BLOCK$$Base       0x2'8788          --   Gb  - Linker created -
OS_CONST_BLOCK$$Limit      0x2'8881          --   Gb  - Linker created -
OS_CORE0_CONST_BLOCK$$Base
                           0x2'8888          --   Gb  - Linker created -
OS_CORE0_CONST_BLOCK$$Limit
                           0x2'9094          --   Gb  - Linker created -
OS_CORE0_VAR_FAST_NOINIT_BLOCK$$Base
                        0x1fff'b000          --   Gb  - Linker created -
OS_CORE0_VAR_FAST_NOINIT_BLOCK$$Limit
                        0x1fff'b004          --   Gb  - Linker created -
OS_CORE0_VAR_NOINIT_BLOCK$$Base
                        0x1fff'b008          --   Gb  - Linker created -
OS_CORE0_VAR_NOINIT_BLOCK$$Limit
                        0x1fff'b6d9          --   Gb  - Linker created -
OS_CORESTATUS_CORE0_VAR_NOCACHE_NOINIT_BLOCK$$Base
                        0x1fff'b6e8          --   Gb  - Linker created -
OS_CORESTATUS_CORE0_VAR_NOCACHE_NOINIT_BLOCK$$Limit
                        0x1fff'b6f0          --   Gb  - Linker created -
OS_DATA_CORE0_NOINIT$$Base
                        0x1fff'b000          --   Gb  - Linker created -
OS_DATA_CORE0_NOINIT$$Limit
                        0x1fff'b6d9          --   Gb  - Linker created -
OS_DATA_SHARED_INIT$$Base
                        0x1fff'b6fc          --   Gb  - Linker created -
OS_DATA_SHARED_INIT$$Limit
                        0x1fff'b6fc          --   Gb  - Linker created -
OS_DATA_SHARED_NOINIT$$Base
                        0x1fff'b6dc          --   Gb  - Linker created -
OS_DATA_SHARED_NOINIT$$Limit
                        0x1fff'b6fc          --   Gb  - Linker created -
OS_DATA_SHARED_ZERO_INIT$$Base
                        0x1fff'b6fc          --   Gb  - Linker created -
OS_DATA_SHARED_ZERO_INIT$$Limit
                        0x1fff'b6fc          --   Gb  - Linker created -
OS_EXCVEC_CORE0_CODE$$Base
                              0x500          --   Gb  - Linker created -
OS_EXCVEC_CORE0_CODE$$Limit
                              0x500          --   Gb  - Linker created -
OS_EXCVEC_CORE0_CONST$$Base
                                0x0          --   Gb  - Linker created -
OS_EXCVEC_CORE0_CONST$$Limit
                                0x0          --   Gb  - Linker created -
OS_INTVEC_CODE$$Base          0x500          --   Gb  - Linker created -
OS_INTVEC_CODE$$Limit         0x500          --   Gb  - Linker created -
OS_INTVEC_CORE0_CODE$$Base
                              0x500          --   Gb  - Linker created -
OS_INTVEC_CORE0_CODE$$Limit
                              0x628          --   Gb  - Linker created -
OS_INTVEC_CORE0_CODE_BLOCK$$Base
                              0x500          --   Gb  - Linker created -
OS_INTVEC_CORE0_CODE_BLOCK$$Limit
                              0x628          --   Gb  - Linker created -
OS_INTVEC_CORE0_CONST$$Base
                                0x0          --   Gb  - Linker created -
OS_INTVEC_CORE0_CONST$$Limit
                              0x3c0          --   Gb  - Linker created -
OS_INTVEC_CORE0_CONST_BLOCK$$Base
                                0x0          --   Gb  - Linker created -
OS_INTVEC_CORE0_CONST_BLOCK$$Limit
                              0x3c0          --   Gb  - Linker created -
OS_STACKS_CORE0_NOINIT$$Base
                        0x1fff'8000          --   Gb  - Linker created -
OS_STACKS_CORE0_NOINIT$$Limit
                        0x1fff'a800          --   Gb  - Linker created -
OS_STACK_OSCORE0_ERROR_VAR_NOINIT_BLOCK$$Base
                        0x1fff'8000          --   Gb  - Linker created -
OS_STACK_OSCORE0_ERROR_VAR_NOINIT_BLOCK$$Limit
                        0x1fff'8400          --   Gb  - Linker created -
OS_STACK_OSCORE0_INIT_VAR_NOINIT_BLOCK$$Base
                        0x1fff'8400          --   Gb  - Linker created -
OS_STACK_OSCORE0_INIT_VAR_NOINIT_BLOCK$$Limit
                        0x1fff'8c00          --   Gb  - Linker created -
OS_STACK_OSCORE0_ISR_CORE_VAR_NOINIT_BLOCK$$Base
                        0x1fff'8c00          --   Gb  - Linker created -
OS_STACK_OSCORE0_ISR_CORE_VAR_NOINIT_BLOCK$$Limit
                        0x1fff'9000          --   Gb  - Linker created -
OS_STACK_OSCORE0_KERNEL_VAR_NOINIT_BLOCK$$Base
                        0x1fff'9000          --   Gb  - Linker created -
OS_STACK_OSCORE0_KERNEL_VAR_NOINIT_BLOCK$$Limit
                        0x1fff'9800          --   Gb  - Linker created -
OS_STACK_OSCORE0_TASK_PRIO100_VAR_NOINIT_BLOCK$$Base
                        0x1fff'9c00          --   Gb  - Linker created -
OS_STACK_OSCORE0_TASK_PRIO100_VAR_NOINIT_BLOCK$$Limit
                        0x1fff'a000          --   Gb  - Linker created -
OS_STACK_OSCORE0_TASK_PRIO4294967295_VAR_NOINIT_BLOCK$$Base
                        0x1fff'9800          --   Gb  - Linker created -
OS_STACK_OSCORE0_TASK_PRIO4294967295_VAR_NOINIT_BLOCK$$Limit
                        0x1fff'9c00          --   Gb  - Linker created -
OS_STACK_OSTASK_APP_VAR_NOINIT_BLOCK$$Base
                        0x1fff'a000          --   Gb  - Linker created -
OS_STACK_OSTASK_APP_VAR_NOINIT_BLOCK$$Limit
                        0x1fff'a400          --   Gb  - Linker created -
OS_STACK_OSTASK_BSW_SCHM_VAR_NOINIT_BLOCK$$Base
                        0x1fff'a400          --   Gb  - Linker created -
OS_STACK_OSTASK_BSW_SCHM_VAR_NOINIT_BLOCK$$Limit
                        0x1fff'a800          --   Gb  - Linker created -
OS_SystemApplication_OsCore0_NOINIT$$Base
                        0x1fff'a800          --   Gb  - Linker created -
OS_SystemApplication_OsCore0_NOINIT$$Limit
                        0x1fff'a800          --   Gb  - Linker created -
OS_VAR_NOCACHE_NOINIT_BLOCK$$Base
                        0x1fff'b6f0          --   Gb  - Linker created -
OS_VAR_NOCACHE_NOINIT_BLOCK$$Limit
                        0x1fff'b6fc          --   Gb  - Linker created -
OsCfg_AccessCheck_NoAccess
                           0x2'8788    0x8  Data  Gb  Os_AccessCheck_Lcfg.o [2]
OsCfg_AlarmRefs            0x2'8790   0x18  Data  Gb  Os_Alarm_Lcfg.o [2]
OsCfg_Alarm_Rte_Al_TE2_OsTask_BSW_SCHM_0_10ms
                           0x2'8888   0x30  Data  Gb  Os_Alarm_Lcfg.o [2]
OsCfg_Alarm_Rte_Al_TE2_OsTask_BSW_SCHM_0_10ms_Dyn
                        0x1fff'b178    0xc  Data  Lc  Os_Alarm_Lcfg.o [2]
OsCfg_Alarm_Rte_Al_TE2_OsTask_BSW_SCHM_0_20ms
                           0x2'88b8   0x30  Data  Gb  Os_Alarm_Lcfg.o [2]
OsCfg_Alarm_Rte_Al_TE2_OsTask_BSW_SCHM_0_20ms_Dyn
                        0x1fff'b184    0xc  Data  Lc  Os_Alarm_Lcfg.o [2]
OsCfg_Alarm_Rte_Al_TE_CanTp_CanTp_MainFunction
                           0x2'88e8   0x30  Data  Gb  Os_Alarm_Lcfg.o [2]
OsCfg_Alarm_Rte_Al_TE_CanTp_CanTp_MainFunction_Dyn
                        0x1fff'b190    0xc  Data  Lc  Os_Alarm_Lcfg.o [2]
OsCfg_Alarm_Rte_Al_TE_Cdd_SBC_UJA1169_Sbc_Test_Runnable
                           0x2'8918   0x30  Data  Gb  Os_Alarm_Lcfg.o [2]
OsCfg_Alarm_Rte_Al_TE_Cdd_SBC_UJA1169_Sbc_Test_Runnable_Dyn
                        0x1fff'b19c    0xc  Data  Lc  Os_Alarm_Lcfg.o [2]
OsCfg_Alarm_Rte_Al_TE_CpLedTask_LedRunnable
                           0x2'8948   0x30  Data  Gb  Os_Alarm_Lcfg.o [2]
OsCfg_Alarm_Rte_Al_TE_CpLedTask_LedRunnable_Dyn
                        0x1fff'b1a8    0xc  Data  Lc  Os_Alarm_Lcfg.o [2]
OsCfg_AppRefs              0x2'87a8    0x8  Data  Gb  Os_Application_Lcfg.o [2]
OsCfg_App_SystemApplication_OsCore0
                           0x2'89d0   0x60  Data  Gb  Os_Application_Lcfg.o [2]
OsCfg_App_SystemApplication_OsCore0_AlarmRefs
                           0x2'8978   0x18  Data  Lc  Os_Application_Lcfg.o [2]
OsCfg_App_SystemApplication_OsCore0_Cat1IsrRefs
                           0x2'89b0    0x4  Data  Lc  Os_Application_Lcfg.o [2]
OsCfg_App_SystemApplication_OsCore0_CounterRefs
                           0x2'8990    0x8  Data  Lc  Os_Application_Lcfg.o [2]
OsCfg_App_SystemApplication_OsCore0_Dyn
                        0x1fff'b6d8    0x1  Data  Lc  Os_Application_Lcfg.o [2]
OsCfg_App_SystemApplication_OsCore0_HookRefs
                           0x2'8998    0x4  Data  Lc  Os_Application_Lcfg.o [2]
OsCfg_App_SystemApplication_OsCore0_IsrRefs
                           0x2'899c   0x14  Data  Lc  Os_Application_Lcfg.o [2]
OsCfg_App_SystemApplication_OsCore0_SchTRefs
                           0x2'89b4    0x4  Data  Lc  Os_Application_Lcfg.o [2]
OsCfg_App_SystemApplication_OsCore0_ServiceRefs
                           0x2'89cc    0x4  Data  Lc  Os_Application_Lcfg.o [2]
OsCfg_App_SystemApplication_OsCore0_TaskRefs
                           0x2'89b8   0x14  Data  Lc  Os_Application_Lcfg.o [2]
OsCfg_Barrier_AttendeeRefs
                           0x2'87b0    0x4  Data  Lc  Os_Barrier_Lcfg.o [2]
OsCfg_Barrier_OsCore0      0x2'8a30   0x14  Data  Gb  Os_Barrier_Lcfg.o [2]
OsCfg_Barrier_OsCore0_Dyn
                        0x1fff'b6e0    0x8  Data  Lc  Os_Barrier_Lcfg.o [2]
OsCfg_CoreBootBarrierRefs
                           0x2'87b8    0x8  Data  Gb  Os_Core_Lcfg.o [2]
OsCfg_CorePhysicalRefs     0x2'8828    0x8  Data  Gb  Os_Hal_Kernel_Lcfg.o [2]
OsCfg_CoreRefs             0x2'8820    0x8  Data  Gb  Os_Hal_Kernel_Lcfg.o [2]
OsCfg_Core_OsCore0         0x2'8a88   0x98  Data  Gb  Os_Core_Lcfg.o [2]
OsCfg_Core_OsCore0_AppRefs
                           0x2'8a50    0x4  Data  Lc  Os_Core_Lcfg.o [2]
OsCfg_Core_OsCore0_BarrierRefs
                           0x2'8a58    0x4  Data  Lc  Os_Core_Lcfg.o [2]
OsCfg_Core_OsCore0_BootBarrier_Dyn
                        0x1fff'b6f0    0xc  Data  Lc  Os_Core_Lcfg.o [2]
OsCfg_Core_OsCore0_Dyn  0x1fff'b008   0x90  Data  Gb  Os_Core_Lcfg.o [2]
OsCfg_Core_OsCore0_HookRefs
                           0x2'8a44    0xc  Data  Lc  Os_Core_Lcfg.o [2]
OsCfg_Core_OsCore0_IocRefs
                           0x2'8a54    0x4  Data  Lc  Os_Core_Lcfg.o [2]
OsCfg_Core_OsCore0_ResourceRefs
                           0x2'8a5c    0x8  Data  Lc  Os_Core_Lcfg.o [2]
OsCfg_Core_OsCore0_StackRefs
                           0x2'8a64   0x24  Data  Lc  Os_Core_Lcfg.o [2]
OsCfg_Core_OsCore0_Status_Dyn
                        0x1fff'b6e8    0x8  Data  Lc  Os_Core_Lcfg.o [2]
OsCfg_Core_OsCore0_ThreadClass
                        0x1fff'b1b4    0x4  Data  Lc  Os_Core_Lcfg.o [2]
OsCfg_CounterRefs          0x2'87e8    0x8  Data  Gb  Os_Counter_Lcfg.o [2]
OsCfg_Counter_SystemTimer
                           0x2'8b20   0x38  Data  Gb  Os_Counter_Lcfg.o [2]
OsCfg_Counter_SystemTimer_Dyn
                        0x1fff'b1b8    0x8  Data  Lc  Os_Counter_Lcfg.o [2]
OsCfg_Counter_SystemTimer_JobQueueNodes_Dyn
                        0x1fff'b1c4   0x18  Data  Lc  Os_Counter_Lcfg.o [2]
OsCfg_Counter_SystemTimer_JobQueue_Dyn
                        0x1fff'b1c0    0x4  Data  Lc  Os_Counter_Lcfg.o [2]
OsCfg_FastTrustedFunctionRefs
                           0x2'8864    0x4  Data  Gb  Os_ServiceFunction_Lcfg.o [2]
OsCfg_Hal_Context_CanIsr_0_BusOff
                           0x2'8b90   0x1c  Data  Gb  Os_Hal_Context_Lcfg.o [2]
OsCfg_Hal_Context_CanIsr_0_MB00To15
                           0x2'8bac   0x1c  Data  Gb  Os_Hal_Context_Lcfg.o [2]
OsCfg_Hal_Context_CanIsr_0_MB16To31
                           0x2'8bc8   0x1c  Data  Gb  Os_Hal_Context_Lcfg.o [2]
OsCfg_Hal_Context_CounterIsr_SystemTimer
                           0x2'8be4   0x1c  Data  Gb  Os_Hal_Context_Lcfg.o [2]
OsCfg_Hal_Context_Default_Init_Task
                           0x2'8c00   0x1c  Data  Gb  Os_Hal_Context_Lcfg.o [2]
OsCfg_Hal_Context_Default_Init_Task_Dyn
                        0x1fff'b404   0x5c  Data  Gb  Os_Hal_Context_Lcfg.o [2]
OsCfg_Hal_Context_ErrorHook_OsCore0
                           0x2'8b74   0x1c  Data  Gb  Os_Hal_Context_Lcfg.o [2]
OsCfg_Hal_Context_ErrorHook_OsCore0_Dyn
                        0x1fff'b238   0x5c  Data  Gb  Os_Hal_Context_Lcfg.o [2]
OsCfg_Hal_Context_ExceptionContextRef
                           0x2'8800    0x8  Data  Gb  Os_Hal_Context_Lcfg.o [2]
OsCfg_Hal_Context_IdleTask_OsCore0
                           0x2'8c1c   0x1c  Data  Gb  Os_Hal_Context_Lcfg.o [2]
OsCfg_Hal_Context_IdleTask_OsCore0_Dyn
                        0x1fff'b460   0x5c  Data  Gb  Os_Hal_Context_Lcfg.o [2]
OsCfg_Hal_Context_OsCore0_ExceptionContext
                        0x1fff'b574    0x4  Data  Gb  Os_Hal_Context_Lcfg.o [2]
OsCfg_Hal_Context_OsCore0_Isr_Level1_Dyn
                        0x1fff'b294   0x5c  Data  Gb  Os_Hal_Context_Lcfg.o [2]
OsCfg_Hal_Context_OsCore0_Isr_Level2_Dyn
                        0x1fff'b2f0   0x5c  Data  Gb  Os_Hal_Context_Lcfg.o [2]
OsCfg_Hal_Context_OsCore0_Isr_Level3_Dyn
                        0x1fff'b34c   0x5c  Data  Gb  Os_Hal_Context_Lcfg.o [2]
OsCfg_Hal_Context_OsCore0_Isr_Level4_Dyn
                        0x1fff'b3a8   0x5c  Data  Gb  Os_Hal_Context_Lcfg.o [2]
OsCfg_Hal_Context_OsTask_APP
                           0x2'8c38   0x1c  Data  Gb  Os_Hal_Context_Lcfg.o [2]
OsCfg_Hal_Context_OsTask_APP_Dyn
                        0x1fff'b4bc   0x5c  Data  Gb  Os_Hal_Context_Lcfg.o [2]
OsCfg_Hal_Context_OsTask_BSW_SCHM
                           0x2'8c54   0x1c  Data  Gb  Os_Hal_Context_Lcfg.o [2]
OsCfg_Hal_Context_OsTask_BSW_SCHM_Dyn
                        0x1fff'b518   0x5c  Data  Gb  Os_Hal_Context_Lcfg.o [2]
OsCfg_Hal_Context_Os_CoreInitHook_OsCore0
                           0x2'8b58   0x1c  Data  Gb  Os_Hal_Context_Lcfg.o [2]
OsCfg_Hal_Context_Os_CoreInitHook_OsCore0_Dyn
                        0x1fff'b1dc   0x5c  Data  Gb  Os_Hal_Context_Lcfg.o [2]
OsCfg_Hal_Core2Thread      0x2'8808    0x4  Data  Gb  Os_Hal_Core_Lcfg.o [2]
OsCfg_Hal_Core2Thread_OsCore0_Dyn
                        0x1fff'b000    0x4  Data  Lc  Os_Hal_Core_Lcfg.o [2]
OsCfg_Hal_CoreAsr_OsCore0
                           0x2'8c88   0x14  Data  Gb  Os_Hal_Core_Lcfg.o [2]
OsCfg_Hal_Core_OsCore0     0x2'8c80    0x8  Data  Gb  Os_Hal_Core_Lcfg.o [2]
OsCfg_Hal_Core_OsCore0_InterruptSourceRefs
                           0x2'8c7c    0x4  Data  Gb  Os_Hal_Core_Lcfg.o [2]
OsCfg_Hal_Core_OsCore0_VectorTable
                                0x0  0x3c0  Data  Gb  Os_Hal_Entry_Lcfg.o [2]
OsCfg_Hal_IntIsr_CanIsr_0_BusOff
                           0x2'8c9c   0x10  Data  Gb  Os_Hal_Interrupt_Lcfg.o [2]
OsCfg_Hal_IntIsr_CanIsr_0_MB00To15
                           0x2'8cac   0x10  Data  Gb  Os_Hal_Interrupt_Lcfg.o [2]
OsCfg_Hal_IntIsr_CanIsr_0_MB16To31
                           0x2'8cbc   0x10  Data  Gb  Os_Hal_Interrupt_Lcfg.o [2]
OsCfg_Hal_IntIsr_CounterIsr_SystemTimer
                           0x2'8ccc   0x10  Data  Gb  Os_Hal_Interrupt_Lcfg.o [2]
OsCfg_Hal_Stack_OsCore0_Kernel
                           0x2'8c70    0xc  Data  Gb  Os_Hal_Context_Lcfg.o [2]
OsCfg_Hal_System           0x2'880c    0x4  Data  Gb  Os_Hal_Core_Lcfg.o [2]
OsCfg_Hal_System_InterruptSourceRefs
                           0x2'8810   0x10  Data  Gb  Os_Hal_Core_Lcfg.o [2]
OsCfg_Hal_TimerPit_SystemTimer
                           0x2'8cdc    0x4  Data  Gb  Os_Hal_Timer_Lcfg.o [2]
OsCfg_Hook_ErrorHook_OsCore0
                           0x2'8d30   0x50  Data  Gb  Os_Hook_Lcfg.o [2]
OsCfg_Hook_ErrorHook_OsCore0_Dyn
                        0x1fff'b5bc   0x44  Data  Lc  Os_Hook_Lcfg.o [2]
OsCfg_Hook_Os_CoreInitHook_OsCore0
                           0x2'8ce0   0x50  Data  Gb  Os_Hook_Lcfg.o [2]
OsCfg_Hook_Os_CoreInitHook_OsCore0_Dyn
                        0x1fff'b578   0x44  Data  Lc  Os_Hook_Lcfg.o [2]
OsCfg_IsrRefs              0x2'8838   0x14  Data  Gb  Os_Isr_Lcfg.o [2]
OsCfg_Isr_CanIsr_0_BusOff
                           0x2'8d80   0x44  Data  Gb  Os_Isr_Lcfg.o [2]
OsCfg_Isr_CanIsr_0_BusOff_Dyn
                        0x1fff'b600   0x1c  Data  Lc  Os_Isr_Lcfg.o [2]
OsCfg_Isr_CanIsr_0_MB00To15
                           0x2'8dc4   0x44  Data  Gb  Os_Isr_Lcfg.o [2]
OsCfg_Isr_CanIsr_0_MB00To15_Dyn
                        0x1fff'b61c   0x1c  Data  Lc  Os_Isr_Lcfg.o [2]
OsCfg_Isr_CanIsr_0_MB16To31
                           0x2'8e08   0x44  Data  Gb  Os_Isr_Lcfg.o [2]
OsCfg_Isr_CanIsr_0_MB16To31_Dyn
                        0x1fff'b638   0x1c  Data  Lc  Os_Isr_Lcfg.o [2]
OsCfg_Isr_CounterIsr_SystemTimer
                           0x2'8e4c   0x48  Data  Gb  Os_Isr_Lcfg.o [2]
OsCfg_Isr_CounterIsr_SystemTimer_Dyn
                        0x1fff'b654   0x1c  Data  Lc  Os_Isr_Lcfg.o [2]
OsCfg_NonTrustedFunctionRefs
                           0x2'8860    0x4  Data  Gb  Os_ServiceFunction_Lcfg.o [2]
OsCfg_OsCode_Section0      0x2'87f0    0x8  Data  Lc  Os_Error_Lcfg.o [2]
OsCfg_OsCode_Sections      0x2'87f8    0x8  Data  Gb  Os_Error_Lcfg.o [2]
OsCfg_PeripheralRefs       0x2'884c    0x4  Data  Gb  Os_Peripheral_Lcfg.o [2]
OsCfg_ResourceRefs         0x2'8850    0x8  Data  Gb  Os_Resource_Lcfg.o [2]
OsCfg_Resource_OsResource
                           0x2'8e94   0x18  Data  Gb  Os_Resource_Lcfg.o [2]
OsCfg_Resource_OsResource_Dyn
                        0x1fff'b670    0x8  Data  Lc  Os_Resource_Lcfg.o [2]
OsCfg_SchTRefs             0x2'8858    0x4  Data  Gb  Os_ScheduleTable_Lcfg.o [2]
OsCfg_Scheduler_OsCore0
                           0x2'8edc   0x18  Data  Gb  Os_Scheduler_Lcfg.o [2]
OsCfg_Scheduler_OsCore0_BitArray_Dyn
                        0x1fff'b688    0x4  Data  Lc  Os_Scheduler_Lcfg.o [2]
OsCfg_Scheduler_OsCore0_BitField_Dyn
                        0x1fff'b68c    0x4  Data  Lc  Os_Scheduler_Lcfg.o [2]
OsCfg_Scheduler_OsCore0_Dyn
                        0x1fff'b678   0x10  Data  Lc  Os_Scheduler_Lcfg.o [2]
OsCfg_Scheduler_OsCore0_TaskQueues
                           0x2'8eac   0x30  Data  Lc  Os_Scheduler_Lcfg.o [2]
OsCfg_SpinlockRefs         0x2'8868    0x4  Data  Gb  Os_Spinlock_Lcfg.o [2]
OsCfg_Stack_KernelStacks
                           0x2'8830    0x8  Data  Gb  Os_Hal_Kernel_Lcfg.o [2]
OsCfg_Stack_OsCore0_Error
                           0x2'8ef4    0x8  Data  Gb  Os_Stack_Lcfg.o [2]
OsCfg_Stack_OsCore0_Error_Dyn
                        0x1fff'8000  0x400  Data  Gb  Os_Stack_Lcfg.o [2]
OsCfg_Stack_OsCore0_Init
                           0x2'8efc    0x8  Data  Gb  Os_Stack_Lcfg.o [2]
OsCfg_Stack_OsCore0_Init_Dyn
                        0x1fff'8400  0x800  Data  Gb  Os_Stack_Lcfg.o [2]
OsCfg_Stack_OsCore0_Isr_Core
                           0x2'8f04    0x8  Data  Gb  Os_Stack_Lcfg.o [2]
OsCfg_Stack_OsCore0_Isr_Core_Dyn
                        0x1fff'8c00  0x400  Data  Gb  Os_Stack_Lcfg.o [2]
OsCfg_Stack_OsCore0_Kernel
                           0x2'8f0c    0x8  Data  Gb  Os_Stack_Lcfg.o [2]
OsCfg_Stack_OsCore0_Kernel_Dyn
                        0x1fff'9000  0x800  Data  Gb  Os_Stack_Lcfg.o [2]
OsCfg_Stack_OsCore0_Task_Prio100
                           0x2'8f14    0x8  Data  Gb  Os_Stack_Lcfg.o [2]
OsCfg_Stack_OsCore0_Task_Prio100_Dyn
                        0x1fff'9c00  0x400  Data  Gb  Os_Stack_Lcfg.o [2]
OsCfg_Stack_OsCore0_Task_Prio4294967295
                           0x2'8f1c    0x8  Data  Gb  Os_Stack_Lcfg.o [2]
OsCfg_Stack_OsCore0_Task_Prio4294967295_Dyn
                        0x1fff'9800  0x400  Data  Gb  Os_Stack_Lcfg.o [2]
OsCfg_Stack_OsTask_APP     0x2'8f24    0x8  Data  Gb  Os_Stack_Lcfg.o [2]
OsCfg_Stack_OsTask_APP_Dyn
                        0x1fff'a000  0x400  Data  Gb  Os_Stack_Lcfg.o [2]
OsCfg_Stack_OsTask_BSW_SCHM
                           0x2'8f2c    0x8  Data  Gb  Os_Stack_Lcfg.o [2]
OsCfg_Stack_OsTask_BSW_SCHM_Dyn
                        0x1fff'a400  0x400  Data  Gb  Os_Stack_Lcfg.o [2]
OsCfg_System               0x2'87c0   0x28  Data  Gb  Os_Core_Lcfg.o [2]
OsCfg_SystemSpinlockRefs
                           0x2'87b4    0x4  Data  Lc  Os_Core_Lcfg.o [2]
OsCfg_TaskQueue0_OsCore0_Dyn
                        0x1fff'b690    0x8  Data  Lc  Os_Scheduler_Lcfg.o [2]
OsCfg_TaskQueue1_OsCore0_Dyn
                        0x1fff'b6a4    0x8  Data  Lc  Os_Scheduler_Lcfg.o [2]
OsCfg_TaskQueue2_OsCore0_Dyn
                        0x1fff'b6b4    0x8  Data  Lc  Os_Scheduler_Lcfg.o [2]
OsCfg_TaskQueue3_OsCore0_Dyn
                        0x1fff'b6c8    0x8  Data  Lc  Os_Scheduler_Lcfg.o [2]
OsCfg_TaskQueueNodes0_OsCore0_Dyn
                        0x1fff'b698    0xc  Data  Lc  Os_Scheduler_Lcfg.o [2]
OsCfg_TaskQueueNodes1_OsCore0_Dyn
                        0x1fff'b6ac    0x8  Data  Lc  Os_Scheduler_Lcfg.o [2]
OsCfg_TaskQueueNodes2_OsCore0_Dyn
                        0x1fff'b6bc    0xc  Data  Lc  Os_Scheduler_Lcfg.o [2]
OsCfg_TaskQueueNodes3_OsCore0_Dyn
                        0x1fff'b6d0    0x8  Data  Lc  Os_Scheduler_Lcfg.o [2]
OsCfg_TaskRefs             0x2'886c   0x14  Data  Gb  Os_Task_Lcfg.o [2]
OsCfg_Task_Default_Init_Task
                           0x2'8f34   0x58  Data  Gb  Os_Task_Lcfg.o [2]
OsCfg_Task_Default_Init_Task_Dyn
                        0x1fff'b098   0x38  Data  Lc  Os_Task_Lcfg.o [2]
OsCfg_Task_IdleTask_OsCore0
                           0x2'8f8c   0x58  Data  Gb  Os_Task_Lcfg.o [2]
OsCfg_Task_IdleTask_OsCore0_Dyn
                        0x1fff'b0d0   0x38  Data  Lc  Os_Task_Lcfg.o [2]
OsCfg_Task_OsTask_APP      0x2'8fe4   0x58  Data  Gb  Os_Task_Lcfg.o [2]
OsCfg_Task_OsTask_APP_Dyn
                        0x1fff'b108   0x38  Data  Lc  Os_Task_Lcfg.o [2]
OsCfg_Task_OsTask_BSW_SCHM
                           0x2'903c   0x58  Data  Gb  Os_Task_Lcfg.o [2]
OsCfg_Task_OsTask_BSW_SCHM_Dyn
                        0x1fff'b140   0x38  Data  Lc  Os_Task_Lcfg.o [2]
OsCfg_TrustedFunctionRefs
                           0x2'885c    0x4  Data  Gb  Os_ServiceFunction_Lcfg.o [2]
OsCfg_XSig_ServiceMap      0x2'8880    0x1  Data  Gb  Os_XSignal_Lcfg.o [2]
Os_AccessCheckCheckAddresses
                           0x1'36a1   0x14  Code  Lc  Os_AccessCheck.o [17]
Os_AccessCheckTest         0x1'36b5   0x46  Code  Lc  Os_AccessCheck.o [17]
Os_AlarmActionSetEvent     0x2'3213   0x32  Code  Gb  Os_Alarm.o [17]
Os_AlarmCancelAlarm        0x2'314f   0x3e  Code  Lc  Os_Alarm.o [17]
Os_AlarmCancelOrReload     0x2'2fef   0x1e  Code  Lc  Os_Alarm.o [17]
Os_AlarmCheckId            0x2'2fa5   0x10  Code  Lc  Os_Alarm.o [17]
Os_AlarmCheckId            0x1'791f   0x10  Code  Lc  Os_Application.o [17]
Os_AlarmCheckIsCanceled
                           0x2'318d   0x16  Code  Lc  Os_Alarm.o [17]
Os_AlarmCheckIsSet         0x2'31a3   0x16  Code  Lc  Os_Alarm.o [17]
Os_AlarmGetAccessingApplications
                           0x2'2fe1    0x4  Code  Lc  Os_Alarm.o [17]
Os_AlarmGetAccessingApplications
                           0x1'7951    0x4  Code  Lc  Os_Application.o [17]
Os_AlarmGetAlarm           0x2'300d   0x40  Code  Lc  Os_Alarm.o [17]
Os_AlarmGetApplication     0x2'2fdd    0x4  Code  Lc  Os_Alarm.o [17]
Os_AlarmGetApplication     0x1'794d    0x4  Code  Lc  Os_Application.o [17]
Os_AlarmGetDyn             0x2'2fe5    0x8  Code  Lc  Os_Alarm.o [17]
Os_AlarmId2Alarm           0x2'2fb5   0x1c  Code  Lc  Os_Alarm.o [17]
Os_AlarmId2Alarm           0x1'792f   0x1e  Code  Lc  Os_Application.o [17]
Os_AlarmInit               0x2'31b9   0x3e  Code  Gb  Os_Alarm.o [17]
Os_AlarmJob2AlarmSetEvent
                           0x2'2fed    0x2  Code  Lc  Os_Alarm.o [17]
Os_AlarmKill               0x2'31f7   0x1c  Code  Gb  Os_Alarm.o [17]
Os_AlarmSetAbsAlarm        0x2'30d3   0x7c  Code  Lc  Os_Alarm.o [17]
Os_AlarmSetRelAlarm        0x2'304d   0x86  Code  Lc  Os_Alarm.o [17]
Os_Api_ActivateTask        0x1'5175   0xda  Code  Gb  Os_Task.o [17]
Os_Api_AllowAccess         0x1'8969   0x4a  Code  Gb  Os_Application.o [17]
Os_Api_BarrierSynchronize
                           0x2'67d9   0x6c  Code  Gb  Os_Barrier.o [17]
Os_Api_CallFastTrustedFunction
                           0x2'104b   0x2c  Code  Gb  Os_ServiceFunction.o [17]
Os_Api_CallNonTrustedFunction
                           0x2'0fef   0x5c  Code  Gb  Os_ServiceFunction.o [17]
Os_Api_CallTrustedFunction
                           0x2'0f93   0x5c  Code  Gb  Os_ServiceFunction.o [17]
Os_Api_CancelAlarm         0x2'34db   0x9e  Code  Gb  Os_Alarm.o [17]
Os_Api_ChainTask           0x1'53d3  0x15e  Code  Gb  Os_Task.o [17]
Os_Api_CheckISRMemoryAccess
                           0x1'372b   0x30  Code  Gb  Os_AccessCheck.o [17]
Os_Api_CheckObjectAccess
                           0x1'891d   0x34  Code  Gb  Os_Application.o [17]
Os_Api_CheckObjectOwnership
                           0x1'8951   0x18  Code  Gb  Os_Application.o [17]
Os_Api_CheckTaskMemoryAccess
                           0x1'36fb   0x30  Code  Gb  Os_AccessCheck.o [17]
Os_Api_ClearEvent          0x2'7829   0x66  Code  Gb  Os_Event.o [17]
Os_Api_ClearPendingInterrupt
                           0x1'6ddd   0x6e  Code  Gb  Os_Isr.o [17]
Os_Api_ControlIdle         0x1'98e3   0x98  Code  Gb  Os_Core.o [17]
Os_Api_DisableAllInterrupts
                           0x1'bfd1   0x3e  Code  Gb  Os_Interrupt.o [17]
Os_Api_DisableGlobal       0x1'c1b9    0x8  Code  Gb  Os_Interrupt.o [17]
Os_Api_DisableInterruptSource
                           0x1'6cef   0x5e  Code  Gb  Os_Isr.o [17]
Os_Api_DisableLevel        0x1'c1c9   0x2a  Code  Gb  Os_Interrupt.o [17]
Os_Api_EnableAllInterrupts
                           0x1'c00f   0x3e  Code  Gb  Os_Interrupt.o [17]
Os_Api_EnableGlobal        0x1'c1c1    0x8  Code  Gb  Os_Interrupt.o [17]
Os_Api_EnableInterruptSource
                           0x1'6d4d   0x90  Code  Gb  Os_Isr.o [17]
Os_Api_EnableLevel         0x1'c1f3   0x2a  Code  Gb  Os_Interrupt.o [17]
Os_Api_ErrorGetServiceId
                           0x1'3df5   0x12  Code  Gb  Os_Error.o [17]
Os_Api_GetActiveApplicationMode
                           0x1'9793   0x10  Code  Gb  Os_Core.o [17]
Os_Api_GetAlarm            0x2'32d7   0xa8  Code  Gb  Os_Alarm.o [17]
Os_Api_GetAlarmBase        0x2'3245   0x92  Code  Gb  Os_Alarm.o [17]
Os_Api_GetApplicationID
                           0x1'8885   0x12  Code  Gb  Os_Application.o [17]
Os_Api_GetApplicationState
                           0x1'88a9   0x74  Code  Gb  Os_Application.o [17]
Os_Api_GetCoreID           0x1'9749    0xc  Code  Gb  Os_Core.o [17]
Os_Api_GetCounterValue     0x2'2ad1   0x76  Code  Gb  Os_Counter.o [17]
Os_Api_GetCurrentApplicationID
                           0x1'8897   0x12  Code  Gb  Os_Application.o [17]
Os_Api_GetDetailedError
                           0x1'3dc7   0x2e  Code  Gb  Os_Error.o [17]
Os_Api_GetElapsedValue     0x2'2b47   0xae  Code  Gb  Os_Counter.o [17]
Os_Api_GetErrorHookStackUsage
                           0x2'6309   0x9a  Code  Gb  Os_Stack.o [17]
Os_Api_GetEvent            0x2'788f   0xa6  Code  Gb  Os_Event.o [17]
Os_Api_GetExceptionContext
                           0x1'94df   0x40  Code  Gb  Os_Core.o [17]
Os_Api_GetISRID            0x1'6cb5   0x3a  Code  Gb  Os_Isr.o [17]
Os_Api_GetISRStackUsage
                           0x2'618b   0x6a  Code  Gb  Os_Stack.o [17]
Os_Api_GetKernelStackUsage
                           0x2'61f5   0x7a  Code  Gb  Os_Stack.o [17]
Os_Api_GetNumberOfActivatedCores
                           0x1'9755   0x3e  Code  Gb  Os_Core.o [17]
Os_Api_GetProtectionHookStackUsage
                           0x2'643d   0x9a  Code  Gb  Os_Stack.o [17]
Os_Api_GetResource         0x2'0109   0xfc  Code  Gb  Os_Resource.o [17]
Os_Api_GetScheduleTableStatus
                           0x2'4413   0xa6  Code  Gb  Os_ScheduleTable.o [17]
Os_Api_GetShutdownHookStackUsage
                           0x2'63a3   0x9a  Code  Gb  Os_Stack.o [17]
Os_Api_GetStartupHookStackUsage
                           0x2'626f   0x9a  Code  Gb  Os_Stack.o [17]
Os_Api_GetTaskID           0x1'574f   0x44  Code  Gb  Os_Task.o [17]
Os_Api_GetTaskStackUsage
                           0x2'6121   0x6a  Code  Gb  Os_Stack.o [17]
Os_Api_GetTaskState        0x1'5793   0x72  Code  Gb  Os_Task.o [17]
Os_Api_GetUnhandledExc     0x1'9a27   0x3c  Code  Gb  Os_Core.o [17]
Os_Api_GetUnhandledIrq     0x1'99a9   0x3a  Code  Gb  Os_Core.o [17]
Os_Api_IncrementCounter
                           0x2'2a05   0xcc  Code  Gb  Os_Counter.o [17]
Os_Api_Init                0x1'9663   0xc2  Code  Gb  Os_Core.o [17]
Os_Api_InitMemory          0x1'955f    0x2  Code  Gb  Os_Core.o [17]
Os_Api_IsInterruptPending
                           0x1'6eb9   0x7e  Code  Gb  Os_Isr.o [17]
Os_Api_IsInterruptSourceEnabled
                           0x1'6e4b   0x6e  Code  Gb  Os_Isr.o [17]
Os_Api_ModifyPeripheral16
                           0x2'7de9   0x1a  Code  Gb  Os_Peripheral.o [17]
Os_Api_ModifyPeripheral32
                           0x2'7e03   0x1a  Code  Gb  Os_Peripheral.o [17]
Os_Api_ModifyPeripheral8
                           0x2'7dcf   0x1a  Code  Gb  Os_Peripheral.o [17]
Os_Api_NextScheduleTable
                           0x2'4079  0x10e  Code  Gb  Os_ScheduleTable.o [17]
Os_Api_ReadPeripheral16
                           0x2'7d77   0x12  Code  Gb  Os_Peripheral.o [17]
Os_Api_ReadPeripheral32
                           0x2'7d89   0x10  Code  Gb  Os_Peripheral.o [17]
Os_Api_ReadPeripheral8     0x2'7d65   0x12  Code  Gb  Os_Peripheral.o [17]
Os_Api_ReleaseResource     0x2'0205  0x154  Code  Gb  Os_Resource.o [17]
Os_Api_ResumeAllInterrupts
                           0x1'c0a9   0x58  Code  Gb  Os_Interrupt.o [17]
Os_Api_ResumeOSInterrupts
                           0x1'c15f   0x5a  Code  Gb  Os_Interrupt.o [17]
Os_Api_Schedule            0x1'5531   0x8e  Code  Gb  Os_Task.o [17]
Os_Api_SetAbsAlarm         0x2'342d   0xae  Code  Gb  Os_Alarm.o [17]
Os_Api_SetEvent            0x2'7737   0xf2  Code  Gb  Os_Event.o [17]
Os_Api_SetExceptionContext
                           0x1'951f   0x40  Code  Gb  Os_Core.o [17]
Os_Api_SetRelAlarm         0x2'337f   0xae  Code  Gb  Os_Alarm.o [17]
Os_Api_SetScheduleTableAsync
                           0x2'4329   0xea  Code  Gb  Os_ScheduleTable.o [17]
Os_Api_ShutdownAllCores
                           0x1'98ad   0x36  Code  Gb  Os_Core.o [17]
Os_Api_ShutdownOS          0x1'9875   0x38  Code  Gb  Os_Core.o [17]
Os_Api_StartOS             0x1'97a3   0x42  Code  Gb  Os_Core.o [17]
Os_Api_StartScheduleTableAbs
                           0x2'3f37   0xa6  Code  Gb  Os_ScheduleTable.o [17]
Os_Api_StartScheduleTableRel
                           0x2'3e91   0xa6  Code  Gb  Os_ScheduleTable.o [17]
Os_Api_StartScheduleTableSynchron
                           0x2'4187   0xc0  Code  Gb  Os_ScheduleTable.o [17]
Os_Api_StopScheduleTable
                           0x2'3fdd   0x9c  Code  Gb  Os_ScheduleTable.o [17]
Os_Api_SuspendAllInterrupts
                           0x1'c04d   0x5c  Code  Gb  Os_Interrupt.o [17]
Os_Api_SuspendOSInterrupts
                           0x1'c101   0x5e  Code  Gb  Os_Interrupt.o [17]
Os_Api_SyncScheduleTable
                           0x2'4247   0xe2  Code  Gb  Os_ScheduleTable.o [17]
Os_Api_TerminateApplication
                           0x1'89b3   0xa0  Code  Gb  Os_Application.o [17]
Os_Api_TerminateTask       0x1'5359   0x7a  Code  Gb  Os_Task.o [17]
Os_Api_WaitEvent           0x2'7935   0xe2  Code  Gb  Os_Event.o [17]
Os_Api_WritePeripheral16
                           0x2'7dab   0x12  Code  Gb  Os_Peripheral.o [17]
Os_Api_WritePeripheral32
                           0x2'7dbd   0x12  Code  Gb  Os_Peripheral.o [17]
Os_Api_WritePeripheral8
                           0x2'7d99   0x12  Code  Gb  Os_Peripheral.o [17]
Os_AppCheckAccess          0x2'2e15    0xe  Code  Lc  Os_Alarm.o [17]
Os_AppCheckAccess          0x2'19c7    0xe  Code  Lc  Os_Counter.o [17]
Os_AppCheckAccess          0x2'6ea7    0xe  Code  Lc  Os_Event.o [17]
Os_AppCheckAccess          0x2'4901    0xe  Code  Lc  Os_Ioc.o [17]
Os_AppCheckAccess          0x2'7c1b    0xe  Code  Lc  Os_Peripheral.o [17]
Os_AppCheckAccess          0x1'f25b    0xe  Code  Lc  Os_Resource.o [17]
Os_AppCheckAccess          0x2'3643    0xe  Code  Lc  Os_ScheduleTable.o [17]
Os_AppCheckAccess          0x1'e0e1    0xe  Code  Lc  Os_Spinlock.o [17]
Os_AppCheckAccess          0x1'44c7    0xe  Code  Lc  Os_Task.o [17]
Os_AppCheckId              0x1'83ef   0x10  Code  Lc  Os_Application.o [17]
Os_AppCheckIsAccessible
                           0x2'2e23   0x18  Code  Lc  Os_Alarm.o [17]
Os_AppCheckIsAccessible
                           0x2'19d5   0x18  Code  Lc  Os_Counter.o [17]
Os_AppCheckIsAccessible
                           0x2'6eb5   0x18  Code  Lc  Os_Event.o [17]
Os_AppCheckIsAccessible
                           0x1'9b89   0x18  Code  Lc  Os_Hook.o [17]
Os_AppCheckIsAccessible
                           0x2'3651   0x18  Code  Lc  Os_ScheduleTable.o [17]
Os_AppCheckIsAccessible
                           0x2'0631   0x18  Code  Lc  Os_ServiceFunction.o [17]
Os_AppCheckIsAccessible
                           0x1'44d5   0x18  Code  Lc  Os_Task.o [17]
Os_AppCheckIsUserApp       0x1'8449   0x18  Code  Lc  Os_Application.o [17]
Os_AppCheckMayTerminate
                           0x1'8471   0x22  Code  Lc  Os_Application.o [17]
Os_AppCheckRestartOption
                           0x1'8461   0x10  Code  Lc  Os_Application.o [17]
Os_AppGetCore              0x1'83e5    0x4  Code  Lc  Os_Application.o [17]
Os_AppGetCore              0x1'39a1    0x4  Code  Lc  Os_Error.o [17]
Os_AppGetCore              0x2'3675    0x4  Code  Lc  Os_ScheduleTable.o [17]
Os_AppGetCore              0x2'0649    0x4  Code  Lc  Os_ServiceFunction.o [17]
Os_AppGetErrorHook         0x1'39a5    0x4  Code  Lc  Os_Error.o [17]
Os_AppGetId                0x1'83e9    0x6  Code  Lc  Os_Application.o [17]
Os_AppGetId                0x2'064d    0x6  Code  Lc  Os_ServiceFunction.o [17]
Os_AppGetShutdownHook      0x1'8e4b    0x4  Code  Lc  Os_Core.o [17]
Os_AppGetStartupHook       0x1'8e47    0x4  Code  Lc  Os_Core.o [17]
Os_AppGetState             0x2'2e0f    0x6  Code  Lc  Os_Alarm.o [17]
Os_AppGetState             0x1'83a5    0x6  Code  Lc  Os_Application.o [17]
Os_AppGetState             0x2'19c1    0x6  Code  Lc  Os_Counter.o [17]
Os_AppGetState             0x2'6ea1    0x6  Code  Lc  Os_Event.o [17]
Os_AppGetState             0x1'9b83    0x6  Code  Lc  Os_Hook.o [17]
Os_AppGetState             0x2'363d    0x6  Code  Lc  Os_ScheduleTable.o [17]
Os_AppGetState             0x2'060d    0x6  Code  Lc  Os_ServiceFunction.o [17]
Os_AppGetState             0x1'44c1    0x6  Code  Lc  Os_Task.o [17]
Os_AppHasTimingProtectionDelay
                           0x2'0613   0x1e  Code  Lc  Os_ServiceFunction.o [17]
Os_AppHooksInit            0x1'86d1   0x1c  Code  Lc  Os_Application.o [17]
Os_AppId2App               0x1'83ff   0x1c  Code  Lc  Os_Application.o [17]
Os_AppInit                 0x1'8621   0x94  Code  Gb  Os_Application.o [17]
Os_AppIsCoreLocal          0x1'83bd    0xc  Code  Lc  Os_Application.o [17]
Os_AppIsCoreLocal          0x2'3669    0xc  Code  Lc  Os_ScheduleTable.o [17]
Os_AppIsKernelApp          0x1'83c9   0x1c  Code  Lc  Os_Application.o [17]
Os_AppIsKernelApp          0x1'3985   0x1c  Code  Lc  Os_Error.o [17]
Os_AppIsPrivileged         0x1'c48d   0x12  Code  Lc  Os_Trap.o [17]
Os_AppIsRestartTaskAvailable
                           0x1'39a9   0x10  Code  Lc  Os_Error.o [17]
Os_AppIsTrusted            0x1'83ab   0x12  Code  Lc  Os_Application.o [17]
Os_AppIsTrusted            0x1'8e35   0x12  Code  Lc  Os_Core.o [17]
Os_AppKill                 0x1'885d   0x1e  Code  Gb  Os_Application.o [17]
Os_AppKillInternal         0x1'8803   0x5a  Code  Lc  Os_Application.o [17]
Os_AppKillInterruptedMemberThreads
                           0x1'8771   0x44  Code  Lc  Os_Application.o [17]
Os_AppKillMemberThread     0x1'87b5   0x4e  Code  Lc  Os_Application.o [17]
Os_AppKillMembers          0x1'86ed   0x84  Code  Lc  Os_Application.o [17]
Os_AppKillNoSuicide        0x1'887b    0xa  Code  Gb  Os_Application.o [17]
Os_AppObjectAccessIsAllowed
                           0x1'8549   0xd8  Code  Lc  Os_Application.o [17]
Os_AppObjectGetApp         0x1'8493   0xb6  Code  Lc  Os_Application.o [17]
Os_AppServicesInit         0x1'86b5   0x1c  Code  Gb  Os_Application.o [17]
Os_AppSetNotAccessible     0x1'8e11    0x8  Code  Lc  Os_Core.o [17]
Os_AppStart                0x1'8e19   0x1c  Code  Lc  Os_Core.o [17]
Os_AppTerminateApplication
                           0x1'8a53   0xd2  Code  Lc  Os_Application.o [17]
Os_Assert                  0x1'3683   0x16  Code  Lc  Os_AccessCheck.o [17]
Os_Assert                  0x2'2f27   0x16  Code  Lc  Os_Alarm.o [17]
Os_Assert                  0x1'8383   0x16  Code  Lc  Os_Application.o [17]
Os_Assert                  0x2'6581   0x16  Code  Lc  Os_Barrier.o [17]
Os_Assert                  0x1'8f1b   0x16  Code  Lc  Os_Core.o [17]
Os_Assert                  0x2'20a9   0x16  Code  Lc  Os_Counter.o [17]
Os_Assert                  0x1'3a53   0x16  Code  Lc  Os_Error.o [17]
Os_Assert                  0x2'76d3   0x16  Code  Lc  Os_Event.o [17]
Os_Assert                  0x1'ad2d   0x16  Code  Lc  Os_Hal_Core.o [17]
Os_Assert                  0x1'a26d   0x16  Code  Lc  Os_Hook.o [17]
Os_Assert                  0x1'bb13   0x16  Code  Lc  Os_Interrupt.o [17]
Os_Assert                  0x2'4933   0x16  Code  Lc  Os_Ioc.o [17]
Os_Assert                  0x1'6275   0x16  Code  Lc  Os_Isr.o [17]
Os_Assert                  0x2'872f   0x16  Code  Lc  Os_MemoryProtection.o [17]
Os_Assert                  0x2'7bf9   0x16  Code  Lc  Os_Peripheral.o [17]
Os_Assert                  0x2'8033   0x16  Code  Lc  Os_PriorityQueue.o [17]
Os_Assert                  0x1'f979   0x16  Code  Lc  Os_Resource.o [17]
Os_Assert                  0x2'1413   0x16  Code  Lc  Os_Scheduler.o [17]
Os_Assert                  0x2'3861   0x16  Code  Lc  Os_ScheduleTable.o [17]
Os_Assert                  0x2'08db   0x16  Code  Lc  Os_ServiceFunction.o [17]
Os_Assert                  0x1'e7f5   0x16  Code  Lc  Os_Spinlock.o [17]
Os_Assert                  0x2'5ef5   0x16  Code  Lc  Os_Stack.o [17]
Os_Assert                  0x1'4957   0x16  Code  Lc  Os_Task.o [17]
Os_Assert                  0x1'74bf   0x16  Code  Lc  Os_Thread.o [17]
Os_Assert                  0x2'83fd   0x16  Code  Lc  Os_Timer.o [17]
Os_Assert                  0x1'b4c9   0x16  Code  Lc  Os_TimingProtection.o [17]
Os_Assert                  0x1'c6cd   0x16  Code  Lc  Os_Trap.o [17]
Os_Assert                  0x1'b027   0x16  Code  Lc  Os_XSignal.o [17]
Os_BarrierAttach           0x2'6767   0x26  Code  Gb  Os_Barrier.o [17]
Os_BarrierCheckId          0x2'670d   0x10  Code  Lc  Os_Barrier.o [17]
Os_BarrierCheckTaskPointer
                           0x2'671d   0x14  Code  Lc  Os_Barrier.o [17]
Os_BarrierDetach           0x2'678d    0xc  Code  Gb  Os_Barrier.o [17]
Os_BarrierGetAttendeeDyn
                           0x2'6641    0xa  Code  Lc  Os_Barrier.o [17]
Os_BarrierGetDyn           0x2'663d    0x4  Code  Lc  Os_Barrier.o [17]
Os_BarrierGetLowestCounter
                           0x2'664b   0x60  Code  Lc  Os_Barrier.o [17]
Os_BarrierId2Barrier       0x2'6731   0x26  Code  Lc  Os_Barrier.o [17]
Os_BarrierInit             0x2'6757   0x10  Code  Gb  Os_Barrier.o [17]
Os_BarrierIsCounterGe      0x2'6629   0x14  Code  Lc  Os_Barrier.o [17]
Os_BarrierIsCounterLo      0x2'6617   0x12  Code  Lc  Os_Barrier.o [17]
Os_BarrierIsEnabled        0x1'8f39    0x4  Code  Lc  Os_Core.o [17]
Os_BarrierIsSynchronized
                           0x2'66ab   0x62  Code  Lc  Os_Barrier.o [17]
Os_BarrierSynchronizeInternal
                           0x2'6799   0x40  Code  Gb  Os_Barrier.o [17]
Os_BitArrayClearBit        0x2'1379   0x64  Code  Lc  Os_Scheduler.o [17]
Os_BitArrayClearBit        0x2'0a7f   0x64  Code  Lc  Os_ServiceFunction.o [17]
Os_BitArrayCountLeadingZeros
                           0x2'13dd   0x2e  Code  Lc  Os_Scheduler.o [17]
Os_BitArrayCountLeadingZeros
                           0x2'0ae3   0x2e  Code  Lc  Os_ServiceFunction.o [17]
Os_BitArrayGetIndexBitwidth
                           0x2'1281    0x4  Code  Lc  Os_Scheduler.o [17]
Os_BitArrayGetIndexBitwidth
                           0x2'0987    0x4  Code  Lc  Os_ServiceFunction.o [17]
Os_BitArrayIdxGetAllocationIdx
                           0x2'1285   0x10  Code  Lc  Os_Scheduler.o [17]
Os_BitArrayIdxGetAllocationIdx
                           0x2'098b   0x10  Code  Lc  Os_ServiceFunction.o [17]
Os_BitArrayIdxGetFieldIdx
                           0x2'1295   0x16  Code  Lc  Os_Scheduler.o [17]
Os_BitArrayIdxGetFieldIdx
                           0x2'099b   0x16  Code  Lc  Os_ServiceFunction.o [17]
Os_BitArrayIdxIsValid      0x2'126d   0x14  Code  Lc  Os_Scheduler.o [17]
Os_BitArrayIdxIsValid      0x2'0973   0x14  Code  Lc  Os_ServiceFunction.o [17]
Os_BitArrayInit            0x2'12ab   0x58  Code  Lc  Os_Scheduler.o [17]
Os_BitArrayInit            0x2'09b1   0x58  Code  Lc  Os_ServiceFunction.o [17]
Os_BitArraySetBit          0x2'1357   0x22  Code  Lc  Os_Scheduler.o [17]
Os_BitArraySetBit          0x2'0a5d   0x22  Code  Lc  Os_ServiceFunction.o [17]
Os_BitArraySetBitInternal
                           0x2'1303   0x54  Code  Lc  Os_Scheduler.o [17]
Os_BitArraySetBitInternal
                           0x2'0a09   0x54  Code  Lc  Os_ServiceFunction.o [17]
Os_Bit_CountLeadingZeros
                           0x2'11f9   0x6e  Code  Lc  Os_Scheduler.o [17]
Os_Bit_CountLeadingZeros
                           0x2'0905   0x6e  Code  Lc  Os_ServiceFunction.o [17]
Os_Bit_CountLeadingZeros{1}{3}::countLeadingZeros4BitMap
                           0x2'994c   0x10  Data  Lc  Os_Scheduler.o [17]
Os_Bit_CountLeadingZeros{1}{3}::countLeadingZeros4BitMap
                           0x2'995c   0x10  Data  Lc  Os_ServiceFunction.o [17]
Os_Bit_GetBitfieldWidth
                           0x2'11f1    0x4  Code  Lc  Os_Scheduler.o [17]
Os_Bit_GetBitfieldWidth
                           0x2'08fd    0x4  Code  Lc  Os_ServiceFunction.o [17]
Os_Bit_IsCountLeadingZerosInHardware
                           0x2'11f5    0x4  Code  Lc  Os_Scheduler.o [17]
Os_Bit_IsCountLeadingZerosInHardware
                           0x2'0901    0x4  Code  Lc  Os_ServiceFunction.o [17]
Os_Core2AsrCore            0x1'7d61   0x1a  Code  Lc  Os_Application.o [17]
Os_Core2AsrCore            0x2'64f7   0x1a  Code  Lc  Os_Barrier.o [17]
Os_Core2AsrCore            0x1'8f71   0x1a  Code  Lc  Os_Core.o [17]
Os_Core2AsrCore            0x2'1e57   0x1a  Code  Lc  Os_Counter.o [17]
Os_Core2AsrCore            0x2'6dad   0x1a  Code  Lc  Os_Event.o [17]
Os_Core2AsrCore            0x1'9f51   0x1a  Code  Lc  Os_Hook.o [17]
Os_Core2AsrCore            0x1'b9a5   0x1a  Code  Lc  Os_Interrupt.o [17]
Os_Core2AsrCore            0x2'4849   0x1a  Code  Lc  Os_Ioc.o [17]
Os_Core2AsrCore            0x1'5ddd   0x1a  Code  Lc  Os_Isr.o [17]
Os_Core2AsrCore            0x2'86e3   0x1a  Code  Lc  Os_MemoryProtection.o [17]
Os_Core2AsrCore            0x1'f671   0x1a  Code  Lc  Os_Resource.o [17]
Os_Core2AsrCore            0x1'e4a7   0x1a  Code  Lc  Os_Spinlock.o [17]
Os_Core2AsrCore            0x2'5f6b   0x1a  Code  Lc  Os_Stack.o [17]
Os_Core2AsrCore            0x1'49d3   0x1a  Code  Lc  Os_Task.o [17]
Os_Core2AsrCore            0x1'74eb   0x1a  Code  Lc  Os_Thread.o [17]
Os_Core2AsrCore            0x1'b4e7   0x1a  Code  Lc  Os_TimingProtection.o [17]
Os_Core2AsrCore            0x1'c441   0x1a  Code  Lc  Os_Trap.o [17]
Os_CoreAsrCheckIsCoreLocal
                           0x2'1e3d    0xc  Code  Lc  Os_Counter.o [17]
Os_CoreAsrCheckIsCoreLocal
                           0x1'f657    0xc  Code  Lc  Os_Resource.o [17]
Os_CoreAsrCheckIsCoreLocal
                           0x2'376f    0xc  Code  Lc  Os_ScheduleTable.o [17]
Os_CoreAsrCheckIsCoreLocal
                           0x2'05c3    0xc  Code  Lc  Os_ServiceFunction.o [17]
Os_CoreAsrCombineApplicationMode
                           0x1'949f   0x10  Code  Lc  Os_Core.o [17]
Os_CoreAsrGetApplicationMode
                           0x1'9495    0xa  Code  Lc  Os_Core.o [17]
Os_CoreAsrGetAsrStatus     0x1'7da1    0x4  Code  Lc  Os_Application.o [17]
Os_CoreAsrGetAsrStatus     0x2'6535    0x4  Code  Lc  Os_Barrier.o [17]
Os_CoreAsrGetAsrStatus     0x1'901f    0x4  Code  Lc  Os_Core.o [17]
Os_CoreAsrGetAsrStatus     0x2'1e97    0x4  Code  Lc  Os_Counter.o [17]
Os_CoreAsrGetAsrStatus     0x1'3869    0x4  Code  Lc  Os_Error.o [17]
Os_CoreAsrGetAsrStatus     0x2'6ded    0x4  Code  Lc  Os_Event.o [17]
Os_CoreAsrGetAsrStatus     0x1'9f8f    0x4  Code  Lc  Os_Hook.o [17]
Os_CoreAsrGetAsrStatus     0x1'b9e3    0x4  Code  Lc  Os_Interrupt.o [17]
Os_CoreAsrGetAsrStatus     0x2'4887    0x4  Code  Lc  Os_Ioc.o [17]
Os_CoreAsrGetAsrStatus     0x1'5e1d    0x4  Code  Lc  Os_Isr.o [17]
Os_CoreAsrGetAsrStatus     0x1'f6b1    0x4  Code  Lc  Os_Resource.o [17]
Os_CoreAsrGetAsrStatus     0x2'05e9    0x4  Code  Lc  Os_ServiceFunction.o [17]
Os_CoreAsrGetAsrStatus     0x1'e4e7    0x4  Code  Lc  Os_Spinlock.o [17]
Os_CoreAsrGetAsrStatus     0x1'4a13    0x4  Code  Lc  Os_Task.o [17]
Os_CoreAsrGetAsrStatus     0x1'7529    0x4  Code  Lc  Os_Thread.o [17]
Os_CoreAsrGetBarriers      0x2'64f1    0x6  Code  Lc  Os_Barrier.o [17]
Os_CoreAsrGetDyn           0x1'7d53    0x4  Code  Lc  Os_Application.o [17]
Os_CoreAsrGetDyn           0x1'8f69    0x4  Code  Lc  Os_Core.o [17]
Os_CoreAsrGetDyn           0x2'1e49    0x4  Code  Lc  Os_Counter.o [17]
Os_CoreAsrGetDyn           0x1'384f    0x4  Code  Lc  Os_Error.o [17]
Os_CoreAsrGetDyn           0x2'6d9f    0x4  Code  Lc  Os_Event.o [17]
Os_CoreAsrGetDyn           0x1'9f43    0x4  Code  Lc  Os_Hook.o [17]
Os_CoreAsrGetDyn           0x1'5dcf    0x4  Code  Lc  Os_Isr.o [17]
Os_CoreAsrGetDyn           0x2'86df    0x4  Code  Lc  Os_MemoryProtection.o [17]
Os_CoreAsrGetDyn           0x1'f663    0x4  Code  Lc  Os_Resource.o [17]
Os_CoreAsrGetDyn           0x1'e499    0x4  Code  Lc  Os_Spinlock.o [17]
Os_CoreAsrGetDyn           0x1'49c5    0x4  Code  Lc  Os_Task.o [17]
Os_CoreAsrGetDyn           0x1'74dd    0x4  Code  Lc  Os_Thread.o [17]
Os_CoreAsrGetTimingProtection
                           0x1'7d57    0x4  Code  Lc  Os_Application.o [17]
Os_CoreAsrGetTimingProtection
                           0x1'8f6d    0x4  Code  Lc  Os_Core.o [17]
Os_CoreAsrGetTimingProtection
                           0x2'1e4d    0x4  Code  Lc  Os_Counter.o [17]
Os_CoreAsrGetTimingProtection
                           0x2'6da3    0x4  Code  Lc  Os_Event.o [17]
Os_CoreAsrGetTimingProtection
                           0x1'9f47    0x4  Code  Lc  Os_Hook.o [17]
Os_CoreAsrGetTimingProtection
                           0x1'b9a1    0x4  Code  Lc  Os_Interrupt.o [17]
Os_CoreAsrGetTimingProtection
                           0x1'5dd3    0x4  Code  Lc  Os_Isr.o [17]
Os_CoreAsrGetTimingProtection
                           0x1'f667    0x4  Code  Lc  Os_Resource.o [17]
Os_CoreAsrGetTimingProtection
                           0x2'05cf    0x4  Code  Lc  Os_ServiceFunction.o [17]
Os_CoreAsrGetTimingProtection
                           0x1'e49d    0x4  Code  Lc  Os_Spinlock.o [17]
Os_CoreAsrGetTimingProtection
                           0x1'49c9    0x4  Code  Lc  Os_Task.o [17]
Os_CoreAsrGetTimingProtection
                           0x1'74e1    0x4  Code  Lc  Os_Thread.o [17]
Os_CoreAsrGetTimingProtection
                           0x1'b4e3    0x4  Code  Lc  Os_TimingProtection.o [17]
Os_CoreAsrGetTrace         0x1'7d5b    0x6  Code  Lc  Os_Application.o [17]
Os_CoreAsrGetTrace         0x2'1e51    0x6  Code  Lc  Os_Counter.o [17]
Os_CoreAsrGetTrace         0x2'6da7    0x6  Code  Lc  Os_Event.o [17]
Os_CoreAsrGetTrace         0x1'9f4b    0x6  Code  Lc  Os_Hook.o [17]
Os_CoreAsrGetTrace         0x1'5dd7    0x6  Code  Lc  Os_Isr.o [17]
Os_CoreAsrGetTrace         0x1'f66b    0x6  Code  Lc  Os_Resource.o [17]
Os_CoreAsrGetTrace         0x1'e4a1    0x6  Code  Lc  Os_Spinlock.o [17]
Os_CoreAsrGetTrace         0x1'49cd    0x6  Code  Lc  Os_Task.o [17]
Os_CoreAsrGetTrace         0x1'74e5    0x6  Code  Lc  Os_Thread.o [17]
Os_CoreAsrGetTrace         0x1'c43b    0x6  Code  Lc  Os_Trap.o [17]
Os_CoreAsrIsCoreLocal      0x2'2f69   0x24  Code  Lc  Os_Alarm.o [17]
Os_CoreAsrIsCoreLocal      0x1'7d2f   0x24  Code  Lc  Os_Application.o [17]
Os_CoreAsrIsCoreLocal      0x1'8f45   0x24  Code  Lc  Os_Core.o [17]
Os_CoreAsrIsCoreLocal      0x2'1e19   0x24  Code  Lc  Os_Counter.o [17]
Os_CoreAsrIsCoreLocal      0x2'6d7b   0x24  Code  Lc  Os_Event.o [17]
Os_CoreAsrIsCoreLocal      0x1'9f1f   0x24  Code  Lc  Os_Hook.o [17]
Os_CoreAsrIsCoreLocal      0x1'f633   0x24  Code  Lc  Os_Resource.o [17]
Os_CoreAsrIsCoreLocal      0x2'374b   0x24  Code  Lc  Os_ScheduleTable.o [17]
Os_CoreAsrIsCoreLocal      0x2'059f   0x24  Code  Lc  Os_ServiceFunction.o [17]
Os_CoreAsrIsCoreLocal      0x2'5f47   0x24  Code  Lc  Os_Stack.o [17]
Os_CoreAsrIsCoreLocal      0x1'49a1   0x24  Code  Lc  Os_Task.o [17]
Os_CoreCheckExceptionContextSupported
                           0x1'94d3    0xc  Code  Lc  Os_Core.o [17]
Os_CoreCheckId             0x1'9023   0x10  Code  Lc  Os_Core.o [17]
Os_CoreCheckId             0x2'5fbd   0x10  Code  Lc  Os_Stack.o [17]
Os_CoreCheckIdleMode       0x1'9453   0x10  Code  Lc  Os_Core.o [17]
Os_CoreCheckIsAppModeValid
                           0x1'94af   0x18  Code  Lc  Os_Core.o [17]
Os_CoreCheckIsAsrCore      0x1'8ff1    0xc  Code  Lc  Os_Core.o [17]
Os_CoreCheckIsAsrCore      0x2'5fb1    0xc  Code  Lc  Os_Stack.o [17]
Os_CoreCheckOsIsNotStarted
                           0x1'947d   0x18  Code  Lc  Os_Core.o [17]
Os_CoreCheckStartedAsAsr
                           0x1'8ffd    0xc  Code  Lc  Os_Core.o [17]
Os_CoreControlIdle         0x1'9a93   0x10  Code  Gb  Os_Core.o [17]
Os_CoreCriticalUserSectionEnter
                           0x1'7e5d   0x2a  Code  Lc  Os_Application.o [17]
Os_CoreCriticalUserSectionEnter
                           0x2'1ef7   0x2a  Code  Lc  Os_Counter.o [17]
Os_CoreCriticalUserSectionEnter
                           0x2'6e4d   0x2a  Code  Lc  Os_Event.o [17]
Os_CoreCriticalUserSectionEnter
                           0x1'a05d   0x2a  Code  Lc  Os_Hook.o [17]
Os_CoreCriticalUserSectionEnter
                           0x1'ba09   0x2a  Code  Lc  Os_Interrupt.o [17]
Os_CoreCriticalUserSectionEnter
                           0x2'48ad   0x2a  Code  Lc  Os_Ioc.o [17]
Os_CoreCriticalUserSectionEnter
                           0x1'5fa1   0x2a  Code  Lc  Os_Isr.o [17]
Os_CoreCriticalUserSectionEnter
                           0x1'f711   0x2a  Code  Lc  Os_Resource.o [17]
Os_CoreCriticalUserSectionEnter
                           0x1'e547   0x2a  Code  Lc  Os_Spinlock.o [17]
Os_CoreCriticalUserSectionEnter
                           0x1'4a7d   0x2a  Code  Lc  Os_Task.o [17]
Os_CoreCriticalUserSectionEnter
                           0x1'7599   0x2a  Code  Lc  Os_Thread.o [17]
Os_CoreCriticalUserSectionIsActive
                           0x1'395b   0x16  Code  Lc  Os_Error.o [17]
Os_CoreCriticalUserSectionIsActive
                           0x1'a0b1   0x16  Code  Lc  Os_Hook.o [17]
Os_CoreCriticalUserSectionLeave
                           0x1'7e87   0x2a  Code  Lc  Os_Application.o [17]
Os_CoreCriticalUserSectionLeave
                           0x2'1f21   0x2a  Code  Lc  Os_Counter.o [17]
Os_CoreCriticalUserSectionLeave
                           0x2'6e77   0x2a  Code  Lc  Os_Event.o [17]
Os_CoreCriticalUserSectionLeave
                           0x1'a087   0x2a  Code  Lc  Os_Hook.o [17]
Os_CoreCriticalUserSectionLeave
                           0x1'ba33   0x2a  Code  Lc  Os_Interrupt.o [17]
Os_CoreCriticalUserSectionLeave
                           0x2'48d7   0x2a  Code  Lc  Os_Ioc.o [17]
Os_CoreCriticalUserSectionLeave
                           0x1'5fcb   0x2a  Code  Lc  Os_Isr.o [17]
Os_CoreCriticalUserSectionLeave
                           0x1'f73b   0x2a  Code  Lc  Os_Resource.o [17]
Os_CoreCriticalUserSectionLeave
                           0x1'e571   0x2a  Code  Lc  Os_Spinlock.o [17]
Os_CoreCriticalUserSectionLeave
                           0x1'4aa7   0x2a  Code  Lc  Os_Task.o [17]
Os_CoreCriticalUserSectionLeave
                           0x1'75c3   0x2a  Code  Lc  Os_Thread.o [17]
Os_CoreDetermineStartStatus
                           0x1'9385   0x72  Code  Lc  Os_Core.o [17]
Os_CoreEmulateMaster       0x1'9599   0x1e  Code  Lc  Os_Core.o [17]
Os_CoreEmulateSlaveWaitForHardwareInit
                           0x1'95b7   0x5a  Code  Lc  Os_Core.o [17]
Os_CoreEmulateSlaveWaitForStartCore
                           0x1'961d   0x46  Code  Lc  Os_Core.o [17]
Os_CoreGetAsrCoreIdx       0x1'b045    0x6  Code  Lc  Os_XSignal.o [17]
Os_CoreGetCurrentCore      0x1'7d7b   0x10  Code  Lc  Os_Application.o [17]
Os_CoreGetCurrentCore      0x2'6511    0xe  Code  Lc  Os_Barrier.o [17]
Os_CoreGetCurrentCore      0x1'8fa9   0x10  Code  Lc  Os_Core.o [17]
Os_CoreGetCurrentCore      0x2'1e71   0x10  Code  Lc  Os_Counter.o [17]
Os_CoreGetCurrentCore      0x2'6dc7   0x10  Code  Lc  Os_Event.o [17]
Os_CoreGetCurrentCore      0x1'9f6b    0xe  Code  Lc  Os_Hook.o [17]
Os_CoreGetCurrentCore      0x1'b9bf    0xe  Code  Lc  Os_Interrupt.o [17]
Os_CoreGetCurrentCore      0x2'4863    0xe  Code  Lc  Os_Ioc.o [17]
Os_CoreGetCurrentCore      0x1'5df7   0x10  Code  Lc  Os_Isr.o [17]
Os_CoreGetCurrentCore      0x2'86fd    0xe  Code  Lc  Os_MemoryProtection.o [17]
Os_CoreGetCurrentCore      0x1'f68b   0x10  Code  Lc  Os_Resource.o [17]
Os_CoreGetCurrentCore      0x1'e4c1   0x10  Code  Lc  Os_Spinlock.o [17]
Os_CoreGetCurrentCore      0x1'49ed   0x10  Code  Lc  Os_Task.o [17]
Os_CoreGetCurrentCore      0x1'7505    0xe  Code  Lc  Os_Thread.o [17]
Os_CoreGetCurrentCore      0x1'b501    0xe  Code  Lc  Os_TimingProtection.o [17]
Os_CoreGetCurrentCore      0x1'c45b    0xe  Code  Lc  Os_Trap.o [17]
Os_CoreGetCurrentStack     0x1'7e3f   0x14  Code  Lc  Os_Application.o [17]
Os_CoreGetCurrentStack     0x2'1ed9   0x14  Code  Lc  Os_Counter.o [17]
Os_CoreGetCurrentStack     0x2'6e2f   0x14  Code  Lc  Os_Event.o [17]
Os_CoreGetCurrentStack     0x1'a033   0x14  Code  Lc  Os_Hook.o [17]
Os_CoreGetCurrentStack     0x1'5f71   0x14  Code  Lc  Os_Isr.o [17]
Os_CoreGetCurrentStack     0x1'f6f3   0x14  Code  Lc  Os_Resource.o [17]
Os_CoreGetCurrentStack     0x1'e529   0x14  Code  Lc  Os_Spinlock.o [17]
Os_CoreGetCurrentStack     0x1'4a5f   0x14  Code  Lc  Os_Task.o [17]
Os_CoreGetCurrentStack     0x1'7571   0x14  Code  Lc  Os_Thread.o [17]
Os_CoreGetErrorHook        0x1'3871    0x4  Code  Lc  Os_Error.o [17]
Os_CoreGetErrorHook        0x2'5fdd    0x4  Code  Lc  Os_Stack.o [17]
Os_CoreGetHookInfo         0x1'9f93    0xa  Code  Lc  Os_Hook.o [17]
Os_CoreGetId               0x1'7d8b   0x16  Code  Lc  Os_Application.o [17]
Os_CoreGetId               0x1'8fb9   0x16  Code  Lc  Os_Core.o [17]
Os_CoreGetId               0x2'1e81   0x16  Code  Lc  Os_Counter.o [17]
Os_CoreGetId               0x2'6dd7   0x16  Code  Lc  Os_Event.o [17]
Os_CoreGetId               0x1'9f79   0x16  Code  Lc  Os_Hook.o [17]
Os_CoreGetId               0x1'b9cd   0x16  Code  Lc  Os_Interrupt.o [17]
Os_CoreGetId               0x2'4871   0x16  Code  Lc  Os_Ioc.o [17]
Os_CoreGetId               0x1'5e07   0x16  Code  Lc  Os_Isr.o [17]
Os_CoreGetId               0x1'f69b   0x16  Code  Lc  Os_Resource.o [17]
Os_CoreGetId               0x1'e4d1   0x16  Code  Lc  Os_Spinlock.o [17]
Os_CoreGetId               0x1'49fd   0x16  Code  Lc  Os_Task.o [17]
Os_CoreGetId               0x1'7513   0x16  Code  Lc  Os_Thread.o [17]
Os_CoreGetIdleTask         0x1'9fa3    0x4  Code  Lc  Os_Hook.o [17]
Os_CoreGetIdleTask         0x1'4a1d    0x4  Code  Lc  Os_Task.o [17]
Os_CoreGetInitHook         0x1'94cf    0x4  Code  Lc  Os_Core.o [17]
Os_CoreGetKernelApp        0x1'7da5    0x4  Code  Lc  Os_Application.o [17]
Os_CoreGetKernelApp        0x1'3875    0x4  Code  Lc  Os_Error.o [17]
Os_CoreGetKernelStack      0x2'8711    0x4  Code  Lc  Os_MemoryProtection.o [17]
Os_CoreGetKernelStack      0x2'5fcd    0x4  Code  Lc  Os_Stack.o [17]
Os_CoreGetLastError        0x1'3879    0xa  Code  Lc  Os_Error.o [17]
Os_CoreGetOsMpAccessRights
                           0x1'c469    0x4  Code  Lc  Os_Trap.o [17]
Os_CoreGetProtectionHook
                           0x1'386d    0x4  Code  Lc  Os_Error.o [17]
Os_CoreGetProtectionHook
                           0x2'5fd9    0x4  Code  Lc  Os_Stack.o [17]
Os_CoreGetScheduler        0x1'7da9    0x4  Code  Lc  Os_Application.o [17]
Os_CoreGetScheduler        0x2'1e9b    0x4  Code  Lc  Os_Counter.o [17]
Os_CoreGetScheduler        0x2'6df1    0x4  Code  Lc  Os_Event.o [17]
Os_CoreGetScheduler        0x1'9fa7    0x4  Code  Lc  Os_Hook.o [17]
Os_CoreGetScheduler        0x1'5e27    0x4  Code  Lc  Os_Isr.o [17]
Os_CoreGetScheduler        0x1'f6b5    0x4  Code  Lc  Os_Resource.o [17]
Os_CoreGetScheduler        0x1'e4eb    0x4  Code  Lc  Os_Spinlock.o [17]
Os_CoreGetScheduler        0x1'4a21    0x4  Code  Lc  Os_Task.o [17]
Os_CoreGetScheduler        0x1'7533    0x4  Code  Lc  Os_Thread.o [17]
Os_CoreGetShutdownHook     0x2'5fd5    0x4  Code  Lc  Os_Stack.o [17]
Os_CoreGetStartupHook      0x2'5fd1    0x4  Code  Lc  Os_Stack.o [17]
Os_CoreGetStatus           0x1'9479    0x4  Code  Lc  Os_Core.o [17]
Os_CoreGetThread           0x2'2f8d   0x10  Code  Lc  Os_Alarm.o [17]
Os_CoreGetThread           0x1'7e19   0x10  Code  Lc  Os_Application.o [17]
Os_CoreGetThread           0x2'6539   0x10  Code  Lc  Os_Barrier.o [17]
Os_CoreGetThread           0x1'9047   0x10  Code  Lc  Os_Core.o [17]
Os_CoreGetThread           0x2'1eb3   0x10  Code  Lc  Os_Counter.o [17]
Os_CoreGetThread           0x1'3941   0x10  Code  Lc  Os_Error.o [17]
Os_CoreGetThread           0x2'6e09   0x10  Code  Lc  Os_Event.o [17]
Os_CoreGetThread           0x1'a00d   0x10  Code  Lc  Os_Hook.o [17]
Os_CoreGetThread           0x1'b9e7   0x10  Code  Lc  Os_Interrupt.o [17]
Os_CoreGetThread           0x2'488b   0x10  Code  Lc  Os_Ioc.o [17]
Os_CoreGetThread           0x1'5f4b   0x10  Code  Lc  Os_Isr.o [17]
Os_CoreGetThread           0x2'7b7d   0x10  Code  Lc  Os_Peripheral.o [17]
Os_CoreGetThread           0x1'f6cd   0x10  Code  Lc  Os_Resource.o [17]
Os_CoreGetThread           0x2'377b   0x10  Code  Lc  Os_ScheduleTable.o [17]
Os_CoreGetThread           0x2'05f3   0x10  Code  Lc  Os_ServiceFunction.o [17]
Os_CoreGetThread           0x1'e503   0x10  Code  Lc  Os_Spinlock.o [17]
Os_CoreGetThread           0x2'5fe1   0x10  Code  Lc  Os_Stack.o [17]
Os_CoreGetThread           0x1'4a39   0x10  Code  Lc  Os_Task.o [17]
Os_CoreGetThread           0x1'754b   0x10  Code  Lc  Os_Thread.o [17]
Os_CoreGetThread           0x2'833f   0x10  Code  Lc  Os_Timer.o [17]
Os_CoreGetThread           0x1'c46d   0x10  Code  Lc  Os_Trap.o [17]
Os_CoreGetThreadClass      0x1'9f9d    0x6  Code  Lc  Os_Hook.o [17]
Os_CoreGetThreadClass      0x1'5e21    0x6  Code  Lc  Os_Isr.o [17]
Os_CoreGetThreadClass      0x2'05ed    0x6  Code  Lc  Os_ServiceFunction.o [17]
Os_CoreGetThreadClass      0x1'4a17    0x6  Code  Lc  Os_Task.o [17]
Os_CoreGetThreadClass      0x1'752d    0x6  Code  Lc  Os_Thread.o [17]
Os_CoreGetTrue             0x1'9463    0x4  Code  Lc  Os_Core.o [17]
Os_CoreGetXSig             0x1'b04b    0x4  Code  Lc  Os_XSignal.o [17]
Os_CoreHooksInit           0x1'9135   0x28  Code  Lc  Os_Core.o [17]
Os_CoreId2Core             0x1'8f8b   0x1e  Code  Lc  Os_Core.o [17]
Os_CoreId2Core             0x2'5f85   0x1c  Code  Lc  Os_Stack.o [17]
Os_CoreIdle                0x1'9467   0x12  Code  Lc  Os_Core.o [17]
Os_CoreInit                0x1'91fd   0xfc  Code  Lc  Os_Core.o [17]
Os_CoreInitHook            0x1'97e5   0x90  Code  Gb  Os_Core.o [17]
Os_CoreInterruptHandlingInit
                           0x1'957d   0x1c  Code  Lc  Os_Core.o [17]
Os_CoreInterruptedThreadsGet
                           0x1'7dcf   0x2c  Code  Lc  Os_Application.o [17]
Os_CoreInterruptedThreadsGet
                           0x1'390b   0x2c  Code  Lc  Os_Error.o [17]
Os_CoreInterruptedThreadsGet
                           0x1'5f01   0x2c  Code  Lc  Os_Isr.o [17]
Os_CoreInterruptedThreadsGetBottomIdx
                           0x1'7dfb    0x4  Code  Lc  Os_Application.o [17]
Os_CoreInterruptedThreadsGetBottomIdx
                           0x1'3937    0x4  Code  Lc  Os_Error.o [17]
Os_CoreInterruptedThreadsGetBottomIdx
                           0x1'5f2d    0x4  Code  Lc  Os_Isr.o [17]
Os_CoreInterruptedThreadsGetTopIdx
                           0x1'7dad   0x22  Code  Lc  Os_Application.o [17]
Os_CoreInterruptedThreadsGetTopIdx
                           0x1'38e9   0x22  Code  Lc  Os_Error.o [17]
Os_CoreInterruptedThreadsGetTopIdx
                           0x1'5edf   0x22  Code  Lc  Os_Isr.o [17]
Os_CoreInterruptedThreadsMoveDown
                           0x1'7dff    0x6  Code  Lc  Os_Application.o [17]
Os_CoreInterruptedThreadsMoveDown
                           0x1'393b    0x6  Code  Lc  Os_Error.o [17]
Os_CoreInterruptedThreadsMoveDown
                           0x1'5f31    0x6  Code  Lc  Os_Isr.o [17]
Os_CoreInterruptedThreadsPop
                           0x1'9fd3   0x26  Code  Lc  Os_Hook.o [17]
Os_CoreInterruptedThreadsPop
                           0x1'5e53   0x26  Code  Lc  Os_Isr.o [17]
Os_CoreInterruptedThreadsPush
                           0x1'9fab   0x28  Code  Lc  Os_Hook.o [17]
Os_CoreInterruptedThreadsPush
                           0x1'5e2b   0x28  Code  Lc  Os_Isr.o [17]
Os_CoreIsAsrCore           0x1'8fcf   0x10  Code  Lc  Os_Core.o [17]
Os_CoreIsAsrCore           0x2'5fa1   0x10  Code  Lc  Os_Stack.o [17]
Os_CoreIsExceptionContextSupported
                           0x1'9077   0x14  Code  Lc  Os_Core.o [17]
Os_CoreIsExceptionContextSupported
                           0x1'3971   0x14  Code  Lc  Os_Error.o [17]
Os_CoreIsSingleAsrCoreOs
                           0x2'2f65    0x4  Code  Lc  Os_Alarm.o [17]
Os_CoreIsSingleAsrCoreOs
                           0x1'7d2b    0x4  Code  Lc  Os_Application.o [17]
Os_CoreIsSingleAsrCoreOs
                           0x1'8f41    0x4  Code  Lc  Os_Core.o [17]
Os_CoreIsSingleAsrCoreOs
                           0x2'1e15    0x4  Code  Lc  Os_Counter.o [17]
Os_CoreIsSingleAsrCoreOs
                           0x2'6d77    0x4  Code  Lc  Os_Event.o [17]
Os_CoreIsSingleAsrCoreOs
                           0x1'9f1b    0x4  Code  Lc  Os_Hook.o [17]
Os_CoreIsSingleAsrCoreOs
                           0x1'f62f    0x4  Code  Lc  Os_Resource.o [17]
Os_CoreIsSingleAsrCoreOs
                           0x2'3747    0x4  Code  Lc  Os_ScheduleTable.o [17]
Os_CoreIsSingleAsrCoreOs
                           0x2'059b    0x4  Code  Lc  Os_ServiceFunction.o [17]
Os_CoreIsSingleAsrCoreOs
                           0x2'5f43    0x4  Code  Lc  Os_Stack.o [17]
Os_CoreIsSingleAsrCoreOs
                           0x1'499d    0x4  Code  Lc  Os_Task.o [17]
Os_CoreIsSingleCoreOs      0x1'7d27    0x4  Code  Lc  Os_Application.o [17]
Os_CoreIsSingleCoreOs      0x1'8f3d    0x4  Code  Lc  Os_Core.o [17]
Os_CoreIsSingleCoreOs      0x2'1e11    0x4  Code  Lc  Os_Counter.o [17]
Os_CoreIsSingleCoreOs      0x2'6d73    0x4  Code  Lc  Os_Event.o [17]
Os_CoreIsSingleCoreOs      0x1'9f17    0x4  Code  Lc  Os_Hook.o [17]
Os_CoreIsSingleCoreOs      0x1'b99d    0x4  Code  Lc  Os_Interrupt.o [17]
Os_CoreIsSingleCoreOs      0x2'4845    0x4  Code  Lc  Os_Ioc.o [17]
Os_CoreIsSingleCoreOs      0x1'5dcb    0x4  Code  Lc  Os_Isr.o [17]
Os_CoreIsSingleCoreOs      0x1'f62b    0x4  Code  Lc  Os_Resource.o [17]
Os_CoreIsSingleCoreOs      0x1'e495    0x4  Code  Lc  Os_Spinlock.o [17]
Os_CoreIsSingleCoreOs      0x1'4999    0x4  Code  Lc  Os_Task.o [17]
Os_CoreIsSingleCoreOs      0x1'74d9    0x4  Code  Lc  Os_Thread.o [17]
Os_CoreIsStartedAsAsr      0x1'8fdf   0x12  Code  Lc  Os_Core.o [17]
Os_CoreOsIsPrestarted      0x2'05d3   0x16  Code  Lc  Os_ServiceFunction.o [17]
Os_CoreOsIsStarted         0x2'651f   0x16  Code  Lc  Os_Barrier.o [17]
Os_CoreOsIsStarted         0x1'9009   0x16  Code  Lc  Os_Core.o [17]
Os_CoreOsIsStarted         0x1'3853   0x16  Code  Lc  Os_Error.o [17]
Os_CorePreStartInit        0x1'9105   0x30  Code  Lc  Os_Core.o [17]
Os_CoreReducedInit         0x1'908b   0x7a  Code  Lc  Os_Core.o [17]
Os_CoreSetCurrentStack     0x1'7e29   0x16  Code  Lc  Os_Application.o [17]
Os_CoreSetCurrentStack     0x1'9057   0x16  Code  Lc  Os_Core.o [17]
Os_CoreSetCurrentStack     0x2'1ec3   0x16  Code  Lc  Os_Counter.o [17]
Os_CoreSetCurrentStack     0x2'6e19   0x16  Code  Lc  Os_Event.o [17]
Os_CoreSetCurrentStack     0x1'a01d   0x16  Code  Lc  Os_Hook.o [17]
Os_CoreSetCurrentStack     0x1'5f5b   0x16  Code  Lc  Os_Isr.o [17]
Os_CoreSetCurrentStack     0x2'8715   0x16  Code  Lc  Os_MemoryProtection.o [17]
Os_CoreSetCurrentStack     0x1'f6dd   0x16  Code  Lc  Os_Resource.o [17]
Os_CoreSetCurrentStack     0x1'e513   0x16  Code  Lc  Os_Spinlock.o [17]
Os_CoreSetCurrentStack     0x1'4a49   0x16  Code  Lc  Os_Task.o [17]
Os_CoreSetCurrentStack     0x1'755b   0x16  Code  Lc  Os_Thread.o [17]
Os_CoreSetThread           0x1'7e05   0x14  Code  Lc  Os_Application.o [17]
Os_CoreSetThread           0x1'9033   0x14  Code  Lc  Os_Core.o [17]
Os_CoreSetThread           0x2'1e9f   0x14  Code  Lc  Os_Counter.o [17]
Os_CoreSetThread           0x2'6df5   0x14  Code  Lc  Os_Event.o [17]
Os_CoreSetThread           0x1'9ff9   0x14  Code  Lc  Os_Hook.o [17]
Os_CoreSetThread           0x1'5f37   0x14  Code  Lc  Os_Isr.o [17]
Os_CoreSetThread           0x1'f6b9   0x14  Code  Lc  Os_Resource.o [17]
Os_CoreSetThread           0x1'e4ef   0x14  Code  Lc  Os_Spinlock.o [17]
Os_CoreSetThread           0x1'4a25   0x14  Code  Lc  Os_Task.o [17]
Os_CoreSetThread           0x1'7537   0x14  Code  Lc  Os_Thread.o [17]
Os_CoreShutdown            0x1'92f9   0x8c  Code  Lc  Os_Core.o [17]
Os_CoreThreadGetByContext
                           0x1'3883   0x66  Code  Lc  Os_Error.o [17]
Os_CoreThreadGetByContext
                           0x1'5e79   0x66  Code  Lc  Os_Isr.o [17]
Os_Counter2TimerHrt        0x2'283f    0x2  Code  Lc  Os_Counter.o [17]
Os_Counter2TimerPfrt       0x2'2841    0x2  Code  Lc  Os_Counter.o [17]
Os_Counter2TimerPit        0x2'283d    0x2  Code  Lc  Os_Counter.o [17]
Os_Counter2TimerSw         0x2'283b    0x2  Code  Lc  Os_Counter.o [17]
Os_CounterAbsValue2TimerAbsValue
                           0x2'28c9   0x54  Code  Lc  Os_Counter.o [17]
Os_CounterAddAbsJob        0x2'2887   0x42  Code  Gb  Os_Counter.o [17]
Os_CounterAddRelJob        0x2'2843   0x44  Code  Gb  Os_Counter.o [17]
Os_CounterCheckId          0x1'7eb1   0x10  Code  Lc  Os_Application.o [17]
Os_CounterCheckId          0x2'245f   0x10  Code  Lc  Os_Counter.o [17]
Os_CounterCheckIsSoftwareCounter
                           0x2'25a5   0x18  Code  Lc  Os_Counter.o [17]
Os_CounterCheckValueGeMinCycleOrZero
                           0x2'2e55   0x1a  Code  Lc  Os_Alarm.o [17]
Os_CounterCheckValueLeMaxAllowed
                           0x2'2e3f   0x16  Code  Lc  Os_Alarm.o [17]
Os_CounterCheckValueLeMaxAllowed
                           0x2'250f   0x16  Code  Lc  Os_Counter.o [17]
Os_CounterCheckValueLeMaxAllowed
                           0x2'38c1   0x16  Code  Lc  Os_ScheduleTable.o [17]
Os_CounterCheckValueLeReducedMaxAllowed
                           0x2'38d7   0x30  Code  Lc  Os_ScheduleTable.o [17]
Os_CounterDeleteJob        0x2'2961   0x6c  Code  Gb  Os_Counter.o [17]
Os_CounterGetAccessingApplications
                           0x1'7ee3    0x4  Code  Lc  Os_Application.o [17]
Os_CounterGetAccessingApplications
                           0x2'24a5    0x4  Code  Lc  Os_Counter.o [17]
Os_CounterGetApplication
                           0x1'7edf    0x4  Code  Lc  Os_Application.o [17]
Os_CounterGetCharacteristics
                           0x2'2e6f    0x2  Code  Lc  Os_Alarm.o [17]
Os_CounterGetCore          0x2'2e3b    0x4  Code  Lc  Os_Alarm.o [17]
Os_CounterGetCore          0x2'38bd    0x4  Code  Lc  Os_ScheduleTable.o [17]
Os_CounterGetMaxAllowedValue
                           0x1'7f4d    0x4  Code  Lc  Os_Application.o [17]
Os_CounterGetMaxAllowedValue
                           0x2'2525    0x4  Code  Lc  Os_Counter.o [17]
Os_CounterGetMaxAllowedValue
                           0x2'6f33    0x4  Code  Lc  Os_Event.o [17]
Os_CounterGetMaxAllowedValue
                           0x1'9d5d    0x4  Code  Lc  Os_Hook.o [17]
Os_CounterGetMaxAllowedValue
                           0x1'b8e9    0x4  Code  Lc  Os_Interrupt.o [17]
Os_CounterGetMaxAllowedValue
                           0x1'5b81    0x4  Code  Lc  Os_Isr.o [17]
Os_CounterGetMaxAllowedValue
                           0x1'f425    0x4  Code  Lc  Os_Resource.o [17]
Os_CounterGetMaxAllowedValue
                           0x1'e2ab    0x4  Code  Lc  Os_Spinlock.o [17]
Os_CounterGetMaxAllowedValue
                           0x1'4553    0x4  Code  Lc  Os_Task.o [17]
Os_CounterGetMaxAllowedValue
                           0x1'7277    0x4  Code  Lc  Os_Thread.o [17]
Os_CounterGetMaxAllowedValue
                           0x1'b3b3    0x4  Code  Lc  Os_TimingProtection.o [17]
Os_CounterGetMaxCountingValue
                           0x1'7f51    0x4  Code  Lc  Os_Application.o [17]
Os_CounterGetMaxCountingValue
                           0x2'2529    0x4  Code  Lc  Os_Counter.o [17]
Os_CounterGetMaxCountingValue
                           0x2'6f37    0x4  Code  Lc  Os_Event.o [17]
Os_CounterGetMaxCountingValue
                           0x1'9d61    0x4  Code  Lc  Os_Hook.o [17]
Os_CounterGetMaxCountingValue
                           0x1'b8ed    0x4  Code  Lc  Os_Interrupt.o [17]
Os_CounterGetMaxCountingValue
                           0x1'5b85    0x4  Code  Lc  Os_Isr.o [17]
Os_CounterGetMaxCountingValue
                           0x1'f429    0x4  Code  Lc  Os_Resource.o [17]
Os_CounterGetMaxCountingValue
                           0x1'e2af    0x4  Code  Lc  Os_Spinlock.o [17]
Os_CounterGetMaxCountingValue
                           0x1'4557    0x4  Code  Lc  Os_Task.o [17]
Os_CounterGetMaxCountingValue
                           0x1'727b    0x4  Code  Lc  Os_Thread.o [17]
Os_CounterGetMaxCountingValue
                           0x1'b3b7    0x4  Code  Lc  Os_TimingProtection.o [17]
Os_CounterGetModulo        0x2'26bd    0x8  Code  Gb  Os_Counter.o [17]
Os_CounterGetPhysicalValue
                           0x2'2601   0x50  Code  Lc  Os_Counter.o [17]
Os_CounterGetUserValue     0x2'2651   0x14  Code  Lc  Os_Counter.o [17]
Os_CounterGetUserValueInternal
                           0x2'25bd   0x44  Code  Lc  Os_Counter.o [17]
Os_CounterGetUserValueLocal
                           0x2'279d   0x32  Code  Gb  Os_Counter.o [17]
Os_CounterGetValue         0x2'26b5    0x8  Code  Gb  Os_Counter.o [17]
Os_CounterId2Counter       0x1'7ec1   0x1e  Code  Lc  Os_Application.o [17]
Os_CounterId2Counter       0x2'246f   0x1c  Code  Lc  Os_Counter.o [17]
Os_CounterIncrementInternal
                           0x2'29cd   0x38  Code  Gb  Os_Counter.o [17]
Os_CounterInit             0x2'26ff   0x58  Code  Gb  Os_Counter.o [17]
Os_CounterIsFutureValue
                           0x1'7ee7   0x10  Code  Lc  Os_Application.o [17]
Os_CounterIsFutureValue
                           0x2'24a9   0x10  Code  Lc  Os_Counter.o [17]
Os_CounterIsFutureValue
                           0x2'6ecd   0x10  Code  Lc  Os_Event.o [17]
Os_CounterIsFutureValue
                           0x1'9cf7   0x10  Code  Lc  Os_Hook.o [17]
Os_CounterIsFutureValue
                           0x1'b883   0x10  Code  Lc  Os_Interrupt.o [17]
Os_CounterIsFutureValue
                           0x1'5b1b   0x10  Code  Lc  Os_Isr.o [17]
Os_CounterIsFutureValue
                           0x2'804d   0x10  Code  Lc  Os_PriorityQueue.o [17]
Os_CounterIsFutureValue
                           0x1'f3bf   0x10  Code  Lc  Os_Resource.o [17]
Os_CounterIsFutureValue
                           0x1'e245   0x10  Code  Lc  Os_Spinlock.o [17]
Os_CounterIsFutureValue
                           0x1'44ed   0x10  Code  Lc  Os_Task.o [17]
Os_CounterIsFutureValue
                           0x1'7211   0x10  Code  Lc  Os_Thread.o [17]
Os_CounterIsFutureValue
                           0x1'b34d   0x10  Code  Lc  Os_TimingProtection.o [17]
Os_CounterIsFutureValueInternal
                           0x1'7ef7   0x56  Code  Lc  Os_Application.o [17]
Os_CounterIsFutureValueInternal
                           0x2'24b9   0x56  Code  Lc  Os_Counter.o [17]
Os_CounterIsFutureValueInternal
                           0x2'6edd   0x56  Code  Lc  Os_Event.o [17]
Os_CounterIsFutureValueInternal
                           0x1'9d07   0x56  Code  Lc  Os_Hook.o [17]
Os_CounterIsFutureValueInternal
                           0x1'b893   0x56  Code  Lc  Os_Interrupt.o [17]
Os_CounterIsFutureValueInternal
                           0x1'5b2b   0x56  Code  Lc  Os_Isr.o [17]
Os_CounterIsFutureValueInternal
                           0x2'805d   0x56  Code  Lc  Os_PriorityQueue.o [17]
Os_CounterIsFutureValueInternal
                           0x1'f3cf   0x56  Code  Lc  Os_Resource.o [17]
Os_CounterIsFutureValueInternal
                           0x1'e255   0x56  Code  Lc  Os_Spinlock.o [17]
Os_CounterIsFutureValueInternal
                           0x1'44fd   0x56  Code  Lc  Os_Task.o [17]
Os_CounterIsFutureValueInternal
                           0x1'7221   0x56  Code  Lc  Os_Thread.o [17]
Os_CounterIsFutureValueInternal
                           0x2'82d5   0x56  Code  Lc  Os_Timer.o [17]
Os_CounterIsFutureValueInternal
                           0x1'b35d   0x56  Code  Lc  Os_TimingProtection.o [17]
Os_CounterReloadJob        0x2'291d   0x44  Code  Gb  Os_Counter.o [17]
Os_CounterSetCompareValue
                           0x2'2665   0x50  Code  Lc  Os_Counter.o [17]
Os_CounterStart            0x2'2757   0x46  Code  Gb  Os_Counter.o [17]
Os_CounterSub              0x2'26c5   0x3a  Code  Gb  Os_Counter.o [17]
Os_CounterUserModulo       0x2'252d   0x78  Code  Lc  Os_Counter.o [17]
Os_CounterWorkJobs         0x2'27cf   0x6c  Code  Gb  Os_Counter.o [17]
Os_DequeDelete             0x2'14d9   0x50  Code  Lc  Os_Scheduler.o [17]
Os_DequeDeleteTop          0x2'145d    0xc  Code  Lc  Os_Scheduler.o [17]
Os_DequeEnqueue            0x2'1469   0x32  Code  Lc  Os_Scheduler.o [17]
Os_DequeIdxDecrement       0x2'142d   0x10  Code  Lc  Os_Scheduler.o [17]
Os_DequeIdxIncrement       0x2'143d   0x12  Code  Lc  Os_Scheduler.o [17]
Os_DequeInit               0x2'144f    0xe  Code  Lc  Os_Scheduler.o [17]
Os_DequeIsEmpty            0x2'1529   0x16  Code  Lc  Os_Scheduler.o [17]
Os_DequePeek               0x2'14cd    0xc  Code  Lc  Os_Scheduler.o [17]
Os_DequePrepend            0x2'149b   0x32  Code  Lc  Os_Scheduler.o [17]
Os_EnableInterruptSource
                           0x1'd4b9   0x58  Code  Gb  Os_Trap.o [17]
Os_ErrApplicationError     0x1'3cc5   0x7e  Code  Gb  Os_Error.o [17]
Os_ErrCheckIsBoolean       0x1'628b   0x1e  Code  Lc  Os_Isr.o [17]
Os_ErrCheckPointerIsNotNull
                           0x2'6597   0x14  Code  Lc  Os_Barrier.o [17]
Os_ErrCheckPointerIsNotNull
                           0x2'5f0b   0x14  Code  Lc  Os_Stack.o [17]
Os_ErrCheckPointerIsNotNull
                           0x1'c6e3   0x14  Code  Lc  Os_Trap.o [17]
Os_ErrExtendedCheck        0x1'3669   0x1a  Code  Lc  Os_AccessCheck.o [17]
Os_ErrExtendedCheck        0x2'2ef3   0x1a  Code  Lc  Os_Alarm.o [17]
Os_ErrExtendedCheck        0x1'8369   0x1a  Code  Lc  Os_Application.o [17]
Os_ErrExtendedCheck        0x2'6567   0x1a  Code  Lc  Os_Barrier.o [17]
Os_ErrExtendedCheck        0x1'8f01   0x1a  Code  Lc  Os_Core.o [17]
Os_ErrExtendedCheck        0x2'2075   0x1a  Code  Lc  Os_Counter.o [17]
Os_ErrExtendedCheck        0x1'3a39   0x1a  Code  Lc  Os_Error.o [17]
Os_ErrExtendedCheck        0x2'769f   0x1a  Code  Lc  Os_Event.o [17]
Os_ErrExtendedCheck        0x1'6241   0x1a  Code  Lc  Os_Isr.o [17]
Os_ErrExtendedCheck        0x2'7bc5   0x1a  Code  Lc  Os_Peripheral.o [17]
Os_ErrExtendedCheck        0x1'f945   0x1a  Code  Lc  Os_Resource.o [17]
Os_ErrExtendedCheck        0x2'382d   0x1a  Code  Lc  Os_ScheduleTable.o [17]
Os_ErrExtendedCheck        0x2'08a7   0x1a  Code  Lc  Os_ServiceFunction.o [17]
Os_ErrExtendedCheck        0x1'e7c1   0x1a  Code  Lc  Os_Spinlock.o [17]
Os_ErrExtendedCheck        0x2'5edb   0x1a  Code  Lc  Os_Stack.o [17]
Os_ErrExtendedCheck        0x1'4923   0x1a  Code  Lc  Os_Task.o [17]
Os_ErrExtendedCheck        0x2'83e3   0x1a  Code  Lc  Os_Timer.o [17]
Os_ErrExtendedCheck        0x1'c6b3   0x1a  Code  Lc  Os_Trap.o [17]
Os_ErrExtendedCheck        0x1'b00d   0x1a  Code  Lc  Os_XSignal.o [17]
Os_ErrHandleProtectionReaction
                           0x1'3ba5   0xa0  Code  Lc  Os_Error.o [17]
Os_ErrInit                 0x1'3cb9    0xc  Code  Gb  Os_Error.o [17]
Os_ErrIsAddressInsideSection
                           0x1'3c5f   0x16  Code  Lc  Os_Error.o [17]
Os_ErrIsAssertEnabled      0x1'3699    0x4  Code  Lc  Os_AccessCheck.o [17]
Os_ErrIsAssertEnabled      0x2'2f59    0x4  Code  Lc  Os_Alarm.o [17]
Os_ErrIsAssertEnabled      0x1'839d    0x4  Code  Lc  Os_Application.o [17]
Os_ErrIsAssertEnabled      0x2'65ab    0x4  Code  Lc  Os_Barrier.o [17]
Os_ErrIsAssertEnabled      0x1'8f31    0x4  Code  Lc  Os_Core.o [17]
Os_ErrIsAssertEnabled      0x2'20bf    0x4  Code  Lc  Os_Counter.o [17]
Os_ErrIsAssertEnabled      0x1'3a6d    0x4  Code  Lc  Os_Error.o [17]
Os_ErrIsAssertEnabled      0x2'76e9    0x4  Code  Lc  Os_Event.o [17]
Os_ErrIsAssertEnabled      0x1'ad43    0x4  Code  Lc  Os_Hal_Core.o [17]
Os_ErrIsAssertEnabled      0x1'a283    0x4  Code  Lc  Os_Hook.o [17]
Os_ErrIsAssertEnabled      0x1'bb45    0x4  Code  Lc  Os_Interrupt.o [17]
Os_ErrIsAssertEnabled      0x2'494d    0x4  Code  Lc  Os_Ioc.o [17]
Os_ErrIsAssertEnabled      0x1'62c5    0x4  Code  Lc  Os_Isr.o [17]
Os_ErrIsAssertEnabled      0x2'8745    0x4  Code  Lc  Os_MemoryProtection.o [17]
Os_ErrIsAssertEnabled      0x2'7c0f    0x4  Code  Lc  Os_Peripheral.o [17]
Os_ErrIsAssertEnabled      0x2'8049    0x4  Code  Lc  Os_PriorityQueue.o [17]
Os_ErrIsAssertEnabled      0x1'f98f    0x4  Code  Lc  Os_Resource.o [17]
Os_ErrIsAssertEnabled      0x2'1429    0x4  Code  Lc  Os_Scheduler.o [17]
Os_ErrIsAssertEnabled      0x2'3877    0x4  Code  Lc  Os_ScheduleTable.o [17]
Os_ErrIsAssertEnabled      0x2'08f1    0x4  Code  Lc  Os_ServiceFunction.o [17]
Os_ErrIsAssertEnabled      0x1'e80f    0x4  Code  Lc  Os_Spinlock.o [17]
Os_ErrIsAssertEnabled      0x2'5f3b    0x4  Code  Lc  Os_Stack.o [17]
Os_ErrIsAssertEnabled      0x1'498d    0x4  Code  Lc  Os_Task.o [17]
Os_ErrIsAssertEnabled      0x1'74d5    0x4  Code  Lc  Os_Thread.o [17]
Os_ErrIsAssertEnabled      0x2'842f    0x4  Code  Lc  Os_Timer.o [17]
Os_ErrIsAssertEnabled      0x1'b4df    0x4  Code  Lc  Os_TimingProtection.o [17]
Os_ErrIsAssertEnabled      0x1'c717    0x4  Code  Lc  Os_Trap.o [17]
Os_ErrIsAssertEnabled      0x1'b03d    0x4  Code  Lc  Os_XSignal.o [17]
Os_ErrIsExtendedStatusEnabled
                           0x1'369d    0x4  Code  Lc  Os_AccessCheck.o [17]
Os_ErrIsExtendedStatusEnabled
                           0x2'2f61    0x4  Code  Lc  Os_Alarm.o [17]
Os_ErrIsExtendedStatusEnabled
                           0x1'83a1    0x4  Code  Lc  Os_Application.o [17]
Os_ErrIsExtendedStatusEnabled
                           0x2'65af    0x4  Code  Lc  Os_Barrier.o [17]
Os_ErrIsExtendedStatusEnabled
                           0x1'8f35    0x4  Code  Lc  Os_Core.o [17]
Os_ErrIsExtendedStatusEnabled
                           0x2'20c7    0x4  Code  Lc  Os_Counter.o [17]
Os_ErrIsExtendedStatusEnabled
                           0x1'3a71    0x4  Code  Lc  Os_Error.o [17]
Os_ErrIsExtendedStatusEnabled
                           0x2'76f1    0x4  Code  Lc  Os_Event.o [17]
Os_ErrIsExtendedStatusEnabled
                           0x1'bb4d    0x4  Code  Lc  Os_Interrupt.o [17]
Os_ErrIsExtendedStatusEnabled
                           0x1'62cd    0x4  Code  Lc  Os_Isr.o [17]
Os_ErrIsExtendedStatusEnabled
                           0x2'7c17    0x4  Code  Lc  Os_Peripheral.o [17]
Os_ErrIsExtendedStatusEnabled
                           0x1'f997    0x4  Code  Lc  Os_Resource.o [17]
Os_ErrIsExtendedStatusEnabled
                           0x2'387f    0x4  Code  Lc  Os_ScheduleTable.o [17]
Os_ErrIsExtendedStatusEnabled
                           0x2'08f9    0x4  Code  Lc  Os_ServiceFunction.o [17]
Os_ErrIsExtendedStatusEnabled
                           0x1'e817    0x4  Code  Lc  Os_Spinlock.o [17]
Os_ErrIsExtendedStatusEnabled
                           0x2'5f3f    0x4  Code  Lc  Os_Stack.o [17]
Os_ErrIsExtendedStatusEnabled
                           0x1'4995    0x4  Code  Lc  Os_Task.o [17]
Os_ErrIsExtendedStatusEnabled
                           0x2'8433    0x4  Code  Lc  Os_Timer.o [17]
Os_ErrIsExtendedStatusEnabled
                           0x1'c71b    0x4  Code  Lc  Os_Trap.o [17]
Os_ErrIsExtendedStatusEnabled
                           0x1'b041    0x4  Code  Lc  Os_XSignal.o [17]
Os_ErrIsInternalExceptionDetectionSupported
                           0x1'3c5b    0x4  Code  Lc  Os_Error.o [17]
Os_ErrIsKillingEnabled     0x1'8399    0x4  Code  Lc  Os_Application.o [17]
Os_ErrIsKillingEnabled     0x2'4949    0x4  Code  Lc  Os_Ioc.o [17]
Os_ErrIsKillingEnabled     0x1'e80b    0x4  Code  Lc  Os_Spinlock.o [17]
Os_ErrIsOsInternalException
                           0x1'3c75   0x3a  Code  Lc  Os_Error.o [17]
Os_ErrIsPropagationRequired
                           0x2'2f3d   0x1c  Code  Lc  Os_Alarm.o [17]
Os_ErrIsPropagationRequired
                           0x1'62a9   0x1c  Code  Lc  Os_Isr.o [17]
Os_ErrIsPropagationRequired
                           0x2'5f1f   0x1c  Code  Lc  Os_Stack.o [17]
Os_ErrIsPropagationRequired
                           0x1'4971   0x1c  Code  Lc  Os_Task.o [17]
Os_ErrIsPropagationRequired
                           0x2'8413   0x1c  Code  Lc  Os_Timer.o [17]
Os_ErrIsPropagationRequired
                           0x1'c6fb   0x1c  Code  Lc  Os_Trap.o [17]
Os_ErrIsProtectionPropagationRequired
                           0x1'bb29   0x1c  Code  Lc  Os_Interrupt.o [17]
Os_ErrIsServiceProtectionEnabled
                           0x2'2f5d    0x4  Code  Lc  Os_Alarm.o [17]
Os_ErrIsServiceProtectionEnabled
                           0x2'20c3    0x4  Code  Lc  Os_Counter.o [17]
Os_ErrIsServiceProtectionEnabled
                           0x2'76ed    0x4  Code  Lc  Os_Event.o [17]
Os_ErrIsServiceProtectionEnabled
                           0x1'a287    0x4  Code  Lc  Os_Hook.o [17]
Os_ErrIsServiceProtectionEnabled
                           0x1'bb49    0x4  Code  Lc  Os_Interrupt.o [17]
Os_ErrIsServiceProtectionEnabled
                           0x2'4951    0x4  Code  Lc  Os_Ioc.o [17]
Os_ErrIsServiceProtectionEnabled
                           0x1'62c9    0x4  Code  Lc  Os_Isr.o [17]
Os_ErrIsServiceProtectionEnabled
                           0x2'7c13    0x4  Code  Lc  Os_Peripheral.o [17]
Os_ErrIsServiceProtectionEnabled
                           0x1'f993    0x4  Code  Lc  Os_Resource.o [17]
Os_ErrIsServiceProtectionEnabled
                           0x2'387b    0x4  Code  Lc  Os_ScheduleTable.o [17]
Os_ErrIsServiceProtectionEnabled
                           0x2'08f5    0x4  Code  Lc  Os_ServiceFunction.o [17]
Os_ErrIsServiceProtectionEnabled
                           0x1'e813    0x4  Code  Lc  Os_Spinlock.o [17]
Os_ErrIsServiceProtectionEnabled
                           0x1'4991    0x4  Code  Lc  Os_Task.o [17]
Os_ErrIsValueLo            0x1'365b    0xe  Code  Lc  Os_AccessCheck.o [17]
Os_ErrIsValueLo            0x2'2ee5    0xe  Code  Lc  Os_Alarm.o [17]
Os_ErrIsValueLo            0x1'835b    0xe  Code  Lc  Os_Application.o [17]
Os_ErrIsValueLo            0x2'6559    0xe  Code  Lc  Os_Barrier.o [17]
Os_ErrIsValueLo            0x1'8ef3    0xe  Code  Lc  Os_Core.o [17]
Os_ErrIsValueLo            0x2'2067    0xe  Code  Lc  Os_Counter.o [17]
Os_ErrIsValueLo            0x1'3a2b    0xe  Code  Lc  Os_Error.o [17]
Os_ErrIsValueLo            0x2'7691    0xe  Code  Lc  Os_Event.o [17]
Os_ErrIsValueLo            0x1'6233    0xe  Code  Lc  Os_Isr.o [17]
Os_ErrIsValueLo            0x2'7bb7    0xe  Code  Lc  Os_Peripheral.o [17]
Os_ErrIsValueLo            0x1'f937    0xe  Code  Lc  Os_Resource.o [17]
Os_ErrIsValueLo            0x2'381f    0xe  Code  Lc  Os_ScheduleTable.o [17]
Os_ErrIsValueLo            0x2'0899    0xe  Code  Lc  Os_ServiceFunction.o [17]
Os_ErrIsValueLo            0x1'e7b3    0xe  Code  Lc  Os_Spinlock.o [17]
Os_ErrIsValueLo            0x2'5ecd    0xe  Code  Lc  Os_Stack.o [17]
Os_ErrIsValueLo            0x1'4915    0xe  Code  Lc  Os_Task.o [17]
Os_ErrIsValueLo            0x1'afff    0xe  Code  Lc  Os_XSignal.o [17]
Os_ErrKernelPanic          0x1'3e07   0x10  Code  Gb  Os_Error.o [17]
Os_ErrOsStatus2UserStatus
                           0x1'3a69    0x4  Code  Lc  Os_Error.o [17]
Os_ErrOsStatus2UserStatus
                           0x1'496d    0x4  Code  Lc  Os_Task.o [17]
Os_ErrOsStatus2UserStatus
                           0x1'c6f7    0x4  Code  Lc  Os_Trap.o [17]
Os_ErrProtectionError      0x1'3d43   0x48  Code  Gb  Os_Error.o [17]
Os_ErrProtectionException
                           0x1'3d8b   0x3c  Code  Gb  Os_Error.o [17]
Os_ErrReportActivateTask
                           0x1'c559   0x30  Code  Lc  Os_Trap.o [17]
Os_ErrReportAlarmActionSetEvent
                           0x2'2eb5   0x30  Code  Lc  Os_Alarm.o [17]
Os_ErrReportCancelAlarm
                           0x1'c683   0x30  Code  Lc  Os_Trap.o [17]
Os_ErrReportClearEvent     0x1'c5b3   0x32  Code  Lc  Os_Trap.o [17]
Os_ErrReportDisableAllInterrupts
                           0x1'ba5d   0x1a  Code  Lc  Os_Interrupt.o [17]
Os_ErrReportEnableAllInterrupts
                           0x1'ba77   0x1a  Code  Lc  Os_Interrupt.o [17]
Os_ErrReportEnableInterruptSource
                           0x1'c523   0x36  Code  Lc  Os_Trap.o [17]
Os_ErrReportGetCounterValue
                           0x1'c4b7   0x34  Code  Lc  Os_Trap.o [17]
Os_ErrReportGetElapsedValue
                           0x1'c4eb   0x38  Code  Lc  Os_Trap.o [17]
Os_ErrReportGetErrorHookStackUsage
                           0x2'5e55   0x28  Code  Lc  Os_Stack.o [17]
Os_ErrReportGetEvent       0x1'c5e5   0x34  Code  Lc  Os_Trap.o [17]
Os_ErrReportGetISRStackUsage
                           0x2'5ddd   0x28  Code  Lc  Os_Stack.o [17]
Os_ErrReportGetKernelStackUsage
                           0x2'5e05   0x28  Code  Lc  Os_Stack.o [17]
Os_ErrReportGetProtectionHookStackUsage
                           0x2'5ea5   0x28  Code  Lc  Os_Stack.o [17]
Os_ErrReportGetShutdownHookStackUsage
                           0x2'5e7d   0x28  Code  Lc  Os_Stack.o [17]
Os_ErrReportGetStartupHookStackUsage
                           0x2'5e2d   0x28  Code  Lc  Os_Stack.o [17]
Os_ErrReportGetTaskStackUsage
                           0x2'5db5   0x28  Code  Lc  Os_Stack.o [17]
Os_ErrReportIsrEpilogue
                           0x1'6211   0x22  Code  Lc  Os_Isr.o [17]
Os_ErrReportResumeAllInterrupts
                           0x1'baab   0x1a  Code  Lc  Os_Interrupt.o [17]
Os_ErrReportResumeOSInterrupts
                           0x1'badf   0x1a  Code  Lc  Os_Interrupt.o [17]
Os_ErrReportSetRelAlarm
                           0x1'c64b   0x38  Code  Lc  Os_Trap.o [17]
Os_ErrReportSuspendAllInterrupts
                           0x1'ba91   0x1a  Code  Lc  Os_Interrupt.o [17]
Os_ErrReportSuspendOSInterrupts
                           0x1'bac5   0x1a  Code  Lc  Os_Interrupt.o [17]
Os_ErrReportTerminateTask
                           0x1'48eb   0x2a  Code  Lc  Os_Task.o [17]
Os_ErrReportTerminateTask
                           0x1'c589   0x2a  Code  Lc  Os_Trap.o [17]
Os_ErrReportTimerIsr       0x2'83c1   0x22  Code  Lc  Os_Timer.o [17]
Os_ErrReportWaitEvent      0x1'c619   0x32  Code  Lc  Os_Trap.o [17]
Os_ErrServiceProtectionCheck
                           0x2'2f0d   0x1a  Code  Lc  Os_Alarm.o [17]
Os_ErrServiceProtectionCheck
                           0x2'208f   0x1a  Code  Lc  Os_Counter.o [17]
Os_ErrServiceProtectionCheck
                           0x2'76b9   0x1a  Code  Lc  Os_Event.o [17]
Os_ErrServiceProtectionCheck
                           0x1'a253   0x1a  Code  Lc  Os_Hook.o [17]
Os_ErrServiceProtectionCheck
                           0x1'baf9   0x1a  Code  Lc  Os_Interrupt.o [17]
Os_ErrServiceProtectionCheck
                           0x2'4919   0x1a  Code  Lc  Os_Ioc.o [17]
Os_ErrServiceProtectionCheck
                           0x1'625b   0x1a  Code  Lc  Os_Isr.o [17]
Os_ErrServiceProtectionCheck
                           0x2'7bdf   0x1a  Code  Lc  Os_Peripheral.o [17]
Os_ErrServiceProtectionCheck
                           0x1'f95f   0x1a  Code  Lc  Os_Resource.o [17]
Os_ErrServiceProtectionCheck
                           0x2'3847   0x1a  Code  Lc  Os_ScheduleTable.o [17]
Os_ErrServiceProtectionCheck
                           0x2'08c1   0x1a  Code  Lc  Os_ServiceFunction.o [17]
Os_ErrServiceProtectionCheck
                           0x1'e7db   0x1a  Code  Lc  Os_Spinlock.o [17]
Os_ErrServiceProtectionCheck
                           0x1'493d   0x1a  Code  Lc  Os_Task.o [17]
Os_ErrSetErrorDetails      0x1'3c45   0x16  Code  Lc  Os_Error.o [17]
Os_ErrVerifyProtectionReaction
                           0x1'3a75  0x130  Code  Lc  Os_Error.o [17]
Os_EventGetLocal           0x2'7b0d   0x5c  Code  Gb  Os_Event.o [17]
Os_EventInit               0x1'40e5   0x12  Code  Lc  Os_Task.o [17]
Os_EventSetInternal        0x2'7ac5   0x48  Code  Gb  Os_Event.o [17]
Os_EventSetLocal           0x2'7a17   0xae  Code  Gb  Os_Event.o [17]
Os_EventTriggerClear       0x2'770d   0x16  Code  Lc  Os_Event.o [17]
Os_EventTriggerGet         0x2'7707    0x6  Code  Lc  Os_Event.o [17]
Os_EventTriggerSet         0x2'76f5   0x12  Code  Lc  Os_Event.o [17]
Os_EventWaitEventTriggered
                           0x2'7723    0xe  Code  Lc  Os_Event.o [17]
Os_EventWaitSet            0x2'7731    0x6  Code  Lc  Os_Event.o [17]
Os_Fifo08Dequeue           0x2'4a37   0x30  Code  Lc  Os_Ioc.o [17]
Os_Fifo08EmptyQueue        0x2'4a77    0xc  Code  Lc  Os_Ioc.o [17]
Os_Fifo08Enqueue           0x2'49e1   0x2a  Code  Lc  Os_Ioc.o [17]
Os_Fifo08IndicesInRangeOnRead
                           0x2'4a25   0x12  Code  Lc  Os_Ioc.o [17]
Os_Fifo08IndicesInRangeOnWrite
                           0x2'49cf   0x12  Code  Lc  Os_Ioc.o [17]
Os_Fifo08IsEmpty           0x2'4a67   0x10  Code  Lc  Os_Ioc.o [17]
Os_Fifo08IsFull            0x2'4a0b   0x12  Code  Lc  Os_Ioc.o [17]
Os_Fifo08ReadInit          0x2'4a1d    0x8  Code  Lc  Os_Ioc.o [17]
Os_Fifo08WriteInit         0x2'49c7    0x8  Code  Lc  Os_Ioc.o [17]
Os_Fifo16Dequeue           0x2'4af5   0x32  Code  Lc  Os_Ioc.o [17]
Os_Fifo16EmptyQueue        0x2'4b37    0xc  Code  Lc  Os_Ioc.o [17]
Os_Fifo16Enqueue           0x2'4a9d   0x2c  Code  Lc  Os_Ioc.o [17]
Os_Fifo16IndicesInRangeOnRead
                           0x2'4ae3   0x12  Code  Lc  Os_Ioc.o [17]
Os_Fifo16IndicesInRangeOnWrite
                           0x2'4a8b   0x12  Code  Lc  Os_Ioc.o [17]
Os_Fifo16IsEmpty           0x2'4b27   0x10  Code  Lc  Os_Ioc.o [17]
Os_Fifo16IsFull            0x2'4ac9   0x12  Code  Lc  Os_Ioc.o [17]
Os_Fifo16ReadInit          0x2'4adb    0x8  Code  Lc  Os_Ioc.o [17]
Os_Fifo16WriteInit         0x2'4a83    0x8  Code  Lc  Os_Ioc.o [17]
Os_Fifo32Dequeue           0x2'4bb5   0x30  Code  Lc  Os_Ioc.o [17]
Os_Fifo32EmptyQueue        0x2'4bf5    0xc  Code  Lc  Os_Ioc.o [17]
Os_Fifo32Enqueue           0x2'4b5d   0x2c  Code  Lc  Os_Ioc.o [17]
Os_Fifo32IndicesInRangeOnRead
                           0x2'4ba3   0x12  Code  Lc  Os_Ioc.o [17]
Os_Fifo32IndicesInRangeOnWrite
                           0x2'4b4b   0x12  Code  Lc  Os_Ioc.o [17]
Os_Fifo32IsEmpty           0x2'4be5   0x10  Code  Lc  Os_Ioc.o [17]
Os_Fifo32IsFull            0x2'4b89   0x12  Code  Lc  Os_Ioc.o [17]
Os_Fifo32ReadInit          0x2'4b9b    0x8  Code  Lc  Os_Ioc.o [17]
Os_Fifo32WriteInit         0x2'4b43    0x8  Code  Lc  Os_Ioc.o [17]
Os_FifoEmptyQueue          0x2'49af    0x6  Code  Lc  Os_Ioc.o [17]
Os_FifoIdxIncrement        0x2'4955   0x2e  Code  Lc  Os_Ioc.o [17]
Os_FifoIndicesInRange      0x2'49b5   0x12  Code  Lc  Os_Ioc.o [17]
Os_FifoIsEmpty             0x2'49a1    0xe  Code  Lc  Os_Ioc.o [17]
Os_FifoIsFull              0x2'4983   0x1e  Code  Lc  Os_Ioc.o [17]
Os_FifoRefDequeue          0x2'4c75   0x32  Code  Lc  Os_Ioc.o [17]
Os_FifoRefEmptyQueue       0x2'4cb7    0xc  Code  Lc  Os_Ioc.o [17]
Os_FifoRefEnqueue          0x2'4c1b   0x2e  Code  Lc  Os_Ioc.o [17]
Os_FifoRefIndicesInRangeOnRead
                           0x2'4c63   0x12  Code  Lc  Os_Ioc.o [17]
Os_FifoRefIndicesInRangeOnWrite
                           0x2'4c09   0x12  Code  Lc  Os_Ioc.o [17]
Os_FifoRefIsEmpty          0x2'4ca7   0x10  Code  Lc  Os_Ioc.o [17]
Os_FifoRefIsFull           0x2'4c49   0x12  Code  Lc  Os_Ioc.o [17]
Os_FifoRefReadInit         0x2'4c5b    0x8  Code  Lc  Os_Ioc.o [17]
Os_FifoRefWriteInit        0x2'4c01    0x8  Code  Lc  Os_Ioc.o [17]
Os_GetDetailedError        0x1'd839   0x52  Code  Gb  Os_Trap.o [17]
Os_Hal_ContextAbort        0x1'9e89   0x14  Code  Lc  Os_Hook.o [17]
Os_Hal_ContextAbort        0x1'5d3b   0x14  Code  Lc  Os_Isr.o [17]
Os_Hal_ContextAbort        0x1'4407   0x14  Code  Lc  Os_Task.o [17]
Os_Hal_ContextCall         0x2'110d   0x78  Code  Gb  Os_Hal_Context_v7m.o [17]
Os_Hal_ContextCallOnStack
                           0x2'1185   0x6a  Code  Gb  Os_Hal_Context_v7m.o [17]
Os_Hal_ContextFetchInitialFpuContext
                           0x1'8d57    0x2  Code  Lc  Os_Core.o [17]
Os_Hal_ContextFirstResume
                           0x1'9e59   0x30  Code  Lc  Os_Hook.o [17]
Os_Hal_ContextGetStack     0x1'8d59    0xe  Code  Lc  Os_Core.o [17]
Os_Hal_ContextInit         0x1'9e09    0x8  Code  Lc  Os_Hook.o [17]
Os_Hal_ContextInit         0x1'5ced    0x8  Code  Lc  Os_Isr.o [17]
Os_Hal_ContextInit         0x2'041f    0x8  Code  Lc  Os_ServiceFunction.o [17]
Os_Hal_ContextInit         0x1'437f    0x8  Code  Lc  Os_Task.o [17]
Os_Hal_ContextInitFpu      0x1'9ecf    0x2  Code  Lc  Os_Hook.o [17]
Os_Hal_ContextInitFpu      0x1'5d83    0x2  Code  Lc  Os_Isr.o [17]
Os_Hal_ContextInitFpu      0x2'04af    0x2  Code  Lc  Os_ServiceFunction.o [17]
Os_Hal_ContextInitFpuContext
                           0x1'9ed1    0x2  Code  Lc  Os_Hook.o [17]
Os_Hal_ContextInitFpuContext
                           0x1'5d85    0x2  Code  Lc  Os_Isr.o [17]
Os_Hal_ContextInitFpuContext
                           0x1'441b    0x2  Code  Lc  Os_Task.o [17]
Os_Hal_ContextInitFpuContext
                           0x1'71db    0x2  Code  Lc  Os_Thread.o [17]
Os_Hal_ContextIsExceptionContextSupported
                           0x1'8d53    0x4  Code  Lc  Os_Core.o [17]
Os_Hal_ContextIsExceptionContextSupported
                           0x1'3837    0x4  Code  Lc  Os_Error.o [17]
Os_Hal_ContextReset        0x1'9e11   0x3c  Code  Lc  Os_Hook.o [17]
Os_Hal_ContextReset        0x1'5cf5   0x3c  Code  Lc  Os_Isr.o [17]
Os_Hal_ContextReset        0x2'0427   0x3e  Code  Lc  Os_ServiceFunction.o [17]
Os_Hal_ContextReset        0x1'4387   0x3e  Code  Lc  Os_Task.o [17]
Os_Hal_ContextReset        0x1'7161   0x3e  Code  Lc  Os_Thread.o [17]
Os_Hal_ContextResetAndResume
                           0x1'43cd   0x3a  Code  Lc  Os_Task.o [17]
Os_Hal_ContextResetAndResume
                           0x1'71a1   0x3a  Code  Lc  Os_Thread.o [17]
Os_Hal_ContextRestoreFpuContext
                           0x1'7ce5    0x2  Code  Lc  Os_Application.o [17]
Os_Hal_ContextRestoreFpuContext
                           0x2'1dbd    0x2  Code  Lc  Os_Counter.o [17]
Os_Hal_ContextRestoreFpuContext
                           0x2'6d31    0x2  Code  Lc  Os_Event.o [17]
Os_Hal_ContextRestoreFpuContext
                           0x1'9ed5    0x2  Code  Lc  Os_Hook.o [17]
Os_Hal_ContextRestoreFpuContext
                           0x1'5d89    0x2  Code  Lc  Os_Isr.o [17]
Os_Hal_ContextRestoreFpuContext
                           0x1'f5cd    0x2  Code  Lc  Os_Resource.o [17]
Os_Hal_ContextRestoreFpuContext
                           0x2'04b3    0x2  Code  Lc  Os_ServiceFunction.o [17]
Os_Hal_ContextRestoreFpuContext
                           0x1'e3eb    0x2  Code  Lc  Os_Spinlock.o [17]
Os_Hal_ContextRestoreFpuContext
                           0x1'441f    0x2  Code  Lc  Os_Task.o [17]
Os_Hal_ContextRestoreFpuContext
                           0x1'71dd    0x2  Code  Lc  Os_Thread.o [17]
Os_Hal_ContextReturn       0x1'9e9d   0x32  Code  Lc  Os_Hook.o [17]
Os_Hal_ContextReturn       0x1'5d51   0x32  Code  Lc  Os_Isr.o [17]
Os_Hal_ContextReturn       0x2'047d   0x32  Code  Lc  Os_ServiceFunction.o [17]
Os_Hal_ContextSetInterruptState
                           0x1'9e51    0x6  Code  Lc  Os_Hook.o [17]
Os_Hal_ContextSetInterruptState
                           0x1'5d35    0x6  Code  Lc  Os_Isr.o [17]
Os_Hal_ContextSetInterruptState
                           0x2'0477    0x6  Code  Lc  Os_ServiceFunction.o [17]
Os_Hal_ContextSetInterruptState
                           0x1'43c5    0x6  Code  Lc  Os_Task.o [17]
Os_Hal_ContextSetParameter
                           0x1'9e4d    0x4  Code  Lc  Os_Hook.o [17]
Os_Hal_ContextSetParameter
                           0x1'5d31    0x4  Code  Lc  Os_Isr.o [17]
Os_Hal_ContextSetParameter
                           0x2'0465    0x4  Code  Lc  Os_ServiceFunction.o [17]
Os_Hal_ContextSetStack     0x2'0469    0xe  Code  Lc  Os_ServiceFunction.o [17]
Os_Hal_ContextSetUserMsrBits
                           0x1'7ce7    0x2  Code  Lc  Os_Application.o [17]
Os_Hal_ContextSetUserMsrBits
                           0x2'1dbf    0x2  Code  Lc  Os_Counter.o [17]
Os_Hal_ContextSetUserMsrBits
                           0x2'6d33    0x2  Code  Lc  Os_Event.o [17]
Os_Hal_ContextSetUserMsrBits
                           0x1'9ed7    0x2  Code  Lc  Os_Hook.o [17]
Os_Hal_ContextSetUserMsrBits
                           0x1'5d8b    0x2  Code  Lc  Os_Isr.o [17]
Os_Hal_ContextSetUserMsrBits
                           0x1'f5cf    0x2  Code  Lc  Os_Resource.o [17]
Os_Hal_ContextSetUserMsrBits
                           0x2'04b5    0x2  Code  Lc  Os_ServiceFunction.o [17]
Os_Hal_ContextSetUserMsrBits
                           0x1'e3ed    0x2  Code  Lc  Os_Spinlock.o [17]
Os_Hal_ContextSetUserMsrBits
                           0x1'4421    0x2  Code  Lc  Os_Task.o [17]
Os_Hal_ContextSetUserMsrBits
                           0x1'71df    0x2  Code  Lc  Os_Thread.o [17]
Os_Hal_ContextStoreFpuContext
                           0x1'7ce3    0x2  Code  Lc  Os_Application.o [17]
Os_Hal_ContextStoreFpuContext
                           0x2'1dbb    0x2  Code  Lc  Os_Counter.o [17]
Os_Hal_ContextStoreFpuContext
                           0x2'6d2f    0x2  Code  Lc  Os_Event.o [17]
Os_Hal_ContextStoreFpuContext
                           0x1'9ed3    0x2  Code  Lc  Os_Hook.o [17]
Os_Hal_ContextStoreFpuContext
                           0x1'5d87    0x2  Code  Lc  Os_Isr.o [17]
Os_Hal_ContextStoreFpuContext
                           0x1'f5cb    0x2  Code  Lc  Os_Resource.o [17]
Os_Hal_ContextStoreFpuContext
                           0x2'04b1    0x2  Code  Lc  Os_ServiceFunction.o [17]
Os_Hal_ContextStoreFpuContext
                           0x1'e3e9    0x2  Code  Lc  Os_Spinlock.o [17]
Os_Hal_ContextStoreFpuContext
                           0x1'441d    0x2  Code  Lc  Os_Task.o [17]
Os_Hal_ContextSwitch       0x2'10a1   0x6a  Code  Gb  Os_Hal_Context_v7m.o [17]
Os_Hal_CoreFreeze          0x1'ad85    0x4  Code  Gb  Os_Hal_Core.o [17]
Os_Hal_CoreGetId           0x2'2d53    0x4  Code  Lc  Os_Alarm.o [17]
Os_Hal_CoreGetId           0x1'7ce9    0x4  Code  Lc  Os_Application.o [17]
Os_Hal_CoreGetId           0x2'64d9    0x4  Code  Lc  Os_Barrier.o [17]
Os_Hal_CoreGetId           0x1'8d67    0x4  Code  Lc  Os_Core.o [17]
Os_Hal_CoreGetId           0x2'1dc1    0x4  Code  Lc  Os_Counter.o [17]
Os_Hal_CoreGetId           0x1'383b    0x4  Code  Lc  Os_Error.o [17]
Os_Hal_CoreGetId           0x2'6d35    0x4  Code  Lc  Os_Event.o [17]
Os_Hal_CoreGetId           0x1'9ed9    0x4  Code  Lc  Os_Hook.o [17]
Os_Hal_CoreGetId           0x1'b719    0x4  Code  Lc  Os_Interrupt.o [17]
Os_Hal_CoreGetId           0x2'47f9    0x4  Code  Lc  Os_Ioc.o [17]
Os_Hal_CoreGetId           0x1'5d8d    0x4  Code  Lc  Os_Isr.o [17]
Os_Hal_CoreGetId           0x2'86db    0x4  Code  Lc  Os_MemoryProtection.o [17]
Os_Hal_CoreGetId           0x2'7b69    0x4  Code  Lc  Os_Peripheral.o [17]
Os_Hal_CoreGetId           0x1'f5d1    0x4  Code  Lc  Os_Resource.o [17]
Os_Hal_CoreGetId           0x2'3733    0x4  Code  Lc  Os_ScheduleTable.o [17]
Os_Hal_CoreGetId           0x2'04b7    0x4  Code  Lc  Os_ServiceFunction.o [17]
Os_Hal_CoreGetId           0x1'e3ef    0x4  Code  Lc  Os_Spinlock.o [17]
Os_Hal_CoreGetId           0x2'5c81    0x4  Code  Lc  Os_Stack.o [17]
Os_Hal_CoreGetId           0x1'4423    0x4  Code  Lc  Os_Task.o [17]
Os_Hal_CoreGetId           0x1'71e1    0x4  Code  Lc  Os_Thread.o [17]
Os_Hal_CoreGetId           0x2'832b    0x4  Code  Lc  Os_Timer.o [17]
Os_Hal_CoreGetId           0x1'b4c1    0x4  Code  Lc  Os_TimingProtection.o [17]
Os_Hal_CoreGetId           0x1'c3f9    0x4  Code  Lc  Os_Trap.o [17]
Os_Hal_CoreGetPrivilegedMode
                           0x1'c415   0x24  Code  Lc  Os_Trap.o [17]
Os_Hal_CoreGetThread       0x2'2d57   0x10  Code  Lc  Os_Alarm.o [17]
Os_Hal_CoreGetThread       0x1'7cff   0x10  Code  Lc  Os_Application.o [17]
Os_Hal_CoreGetThread       0x2'64dd   0x10  Code  Lc  Os_Barrier.o [17]
Os_Hal_CoreGetThread       0x1'8d85   0x10  Code  Lc  Os_Core.o [17]
Os_Hal_CoreGetThread       0x2'1dd7   0x10  Code  Lc  Os_Counter.o [17]
Os_Hal_CoreGetThread       0x1'383f   0x10  Code  Lc  Os_Error.o [17]
Os_Hal_CoreGetThread       0x2'6d4b   0x10  Code  Lc  Os_Event.o [17]
Os_Hal_CoreGetThread       0x1'9eef   0x10  Code  Lc  Os_Hook.o [17]
Os_Hal_CoreGetThread       0x1'b71d   0x10  Code  Lc  Os_Interrupt.o [17]
Os_Hal_CoreGetThread       0x2'4823   0x10  Code  Lc  Os_Ioc.o [17]
Os_Hal_CoreGetThread       0x1'5da3   0x10  Code  Lc  Os_Isr.o [17]
Os_Hal_CoreGetThread       0x2'7b6d   0x10  Code  Lc  Os_Peripheral.o [17]
Os_Hal_CoreGetThread       0x1'f5e7   0x10  Code  Lc  Os_Resource.o [17]
Os_Hal_CoreGetThread       0x2'3737   0x10  Code  Lc  Os_ScheduleTable.o [17]
Os_Hal_CoreGetThread       0x2'04bb   0x10  Code  Lc  Os_ServiceFunction.o [17]
Os_Hal_CoreGetThread       0x1'e42b   0x10  Code  Lc  Os_Spinlock.o [17]
Os_Hal_CoreGetThread       0x2'5c85   0x10  Code  Lc  Os_Stack.o [17]
Os_Hal_CoreGetThread       0x1'4439   0x10  Code  Lc  Os_Task.o [17]
Os_Hal_CoreGetThread       0x1'71f7   0x10  Code  Lc  Os_Thread.o [17]
Os_Hal_CoreGetThread       0x2'832f   0x10  Code  Lc  Os_Timer.o [17]
Os_Hal_CoreGetThread       0x1'c401   0x10  Code  Lc  Os_Trap.o [17]
Os_Hal_CoreIdle            0x1'8d95    0x8  Code  Lc  Os_Core.o [17]
Os_Hal_CoreInit            0x1'ad71   0x12  Code  Gb  Os_Hal_Core.o [17]
Os_Hal_CoreInitHardware
                           0x1'ad83    0x2  Code  Gb  Os_Hal_Core.o [17]
Os_Hal_CoreIsPrivilegedModeUserReadable
                           0x1'c411    0x4  Code  Lc  Os_Trap.o [17]
Os_Hal_CoreIsThreadPointerUserReadable
                           0x1'c3fd    0x4  Code  Lc  Os_Trap.o [17]
Os_Hal_CoreNop             0x2'64ed    0x4  Code  Lc  Os_Barrier.o [17]
Os_Hal_CoreNop             0x1'8d9d    0x4  Code  Lc  Os_Core.o [17]
Os_Hal_CoreNop             0x2'4841    0x4  Code  Lc  Os_Ioc.o [17]
Os_Hal_CoreNop             0x1'e44b    0x4  Code  Lc  Os_Spinlock.o [17]
Os_Hal_CoreNop             0x1'ae3f    0x4  Code  Lc  Os_XSignal.o [17]
Os_Hal_CoreSetThread       0x1'7ced   0x12  Code  Lc  Os_Application.o [17]
Os_Hal_CoreSetThread       0x1'8d73   0x12  Code  Lc  Os_Core.o [17]
Os_Hal_CoreSetThread       0x2'1dc5   0x12  Code  Lc  Os_Counter.o [17]
Os_Hal_CoreSetThread       0x2'6d39   0x12  Code  Lc  Os_Event.o [17]
Os_Hal_CoreSetThread       0x1'9edd   0x12  Code  Lc  Os_Hook.o [17]
Os_Hal_CoreSetThread       0x1'5d91   0x12  Code  Lc  Os_Isr.o [17]
Os_Hal_CoreSetThread       0x1'f5d5   0x12  Code  Lc  Os_Resource.o [17]
Os_Hal_CoreSetThread       0x1'e419   0x12  Code  Lc  Os_Spinlock.o [17]
Os_Hal_CoreSetThread       0x1'4427   0x12  Code  Lc  Os_Task.o [17]
Os_Hal_CoreSetThread       0x1'71e5   0x12  Code  Lc  Os_Thread.o [17]
Os_Hal_CoreStart           0x1'8d71    0x2  Code  Lc  Os_Core.o [17]
Os_Hal_CoreSynchronize     0x1'c439    0x2  Code  Lc  Os_Trap.o [17]
Os_Hal_Core_InitExceptions
                           0x1'ad47   0x20  Code  Lc  Os_Hal_Core.o [17]
Os_Hal_CountLeadingZeros
                           0x2'140b    0x8  Code  Lc  Os_Scheduler.o [17]
Os_Hal_CountLeadingZeros
                           0x2'04cb    0x8  Code  Lc  Os_ServiceFunction.o [17]
Os_Hal_DisableAndReturnPriorState
                           0x1'35c1    0xc  Code  Lc  Os_Core.o [17]
Os_Hal_INTC_DisableSource
                           0x1'7795   0x1a  Code  Lc  Os_Application.o [17]
Os_Hal_INTC_DisableSource
                           0x1'589d   0x1a  Code  Lc  Os_Isr.o [17]
Os_Hal_INTC_EnableMappedSource
                           0x1'5885    0x2  Code  Lc  Os_Isr.o [17]
Os_Hal_INTC_EnableNotMappedSource
                           0x1'5887   0x16  Code  Lc  Os_Isr.o [17]
Os_Hal_INTC_EndOfInterrupt
                           0x1'58c3   0x1a  Code  Lc  Os_Isr.o [17]
Os_Hal_INTC_GetCurrentLevel
                           0x2'2c85    0x6  Code  Lc  Os_Alarm.o [17]
Os_Hal_INTC_GetCurrentLevel
                           0x1'77b5    0x6  Code  Lc  Os_Application.o [17]
Os_Hal_INTC_GetCurrentLevel
                           0x1'8b3b    0x6  Code  Lc  Os_Core.o [17]
Os_Hal_INTC_GetCurrentLevel
                           0x2'1927    0x6  Code  Lc  Os_Counter.o [17]
Os_Hal_INTC_GetCurrentLevel
                           0x1'3763    0x6  Code  Lc  Os_Error.o [17]
Os_Hal_INTC_GetCurrentLevel
                           0x2'684b    0x6  Code  Lc  Os_Event.o [17]
Os_Hal_INTC_GetCurrentLevel
                           0x1'9aab    0x6  Code  Lc  Os_Hook.o [17]
Os_Hal_INTC_GetCurrentLevel
                           0x1'b6a3    0x6  Code  Lc  Os_Interrupt.o [17]
Os_Hal_INTC_GetCurrentLevel
                           0x2'4547    0x6  Code  Lc  Os_Ioc.o [17]
Os_Hal_INTC_GetCurrentLevel
                           0x1'58bd    0x6  Code  Lc  Os_Isr.o [17]
Os_Hal_INTC_GetCurrentLevel
                           0x2'861f    0x6  Code  Lc  Os_MemoryProtection.o [17]
Os_Hal_INTC_GetCurrentLevel
                           0x1'f19f    0x6  Code  Lc  Os_Resource.o [17]
Os_Hal_INTC_GetCurrentLevel
                           0x2'357f    0x6  Code  Lc  Os_ScheduleTable.o [17]
Os_Hal_INTC_GetCurrentLevel
                           0x2'04d9    0x6  Code  Lc  Os_ServiceFunction.o [17]
Os_Hal_INTC_GetCurrentLevel
                           0x1'e05b    0x6  Code  Lc  Os_Spinlock.o [17]
Os_Hal_INTC_GetCurrentLevel
                           0x1'4007    0x6  Code  Lc  Os_Task.o [17]
Os_Hal_INTC_GetCurrentLevel
                           0x2'828f    0x6  Code  Lc  Os_Timer.o [17]
Os_Hal_INTC_GetCurrentLevel
                           0x1'c223    0x6  Code  Lc  Os_Trap.o [17]
Os_Hal_INTC_GetCurrentLevel
                           0x1'ad8f    0x6  Code  Lc  Os_XSignal.o [17]
Os_Hal_INTC_InitSource     0x1'8b25   0x10  Code  Lc  Os_Core.o [17]
Os_Hal_INTC_InitializeVectorTable
                           0x1'ad05   0x22  Code  Lc  Os_Hal_Core.o [17]
Os_Hal_INTC_IntLevelIsGt
                           0x1'b6a9   0x12  Code  Lc  Os_Interrupt.o [17]
Os_Hal_INTC_IntLevelIsGt
                           0x1'f1a5   0x12  Code  Lc  Os_Resource.o [17]
Os_Hal_INTC_IsInterruptPending
                           0x1'58ff   0x20  Code  Lc  Os_Isr.o [17]
Os_Hal_INTC_IsInterruptSourceEnabled
                           0x1'58df   0x20  Code  Lc  Os_Isr.o [17]
Os_Hal_INTC_ResetSoftwareInterrupt
                           0x1'58dd    0x2  Code  Lc  Os_Isr.o [17]
Os_Hal_INTC_SetCurrentLevel
                           0x2'2c7f    0x6  Code  Lc  Os_Alarm.o [17]
Os_Hal_INTC_SetCurrentLevel
                           0x1'77af    0x6  Code  Lc  Os_Application.o [17]
Os_Hal_INTC_SetCurrentLevel
                           0x1'8b35    0x6  Code  Lc  Os_Core.o [17]
Os_Hal_INTC_SetCurrentLevel
                           0x2'1921    0x6  Code  Lc  Os_Counter.o [17]
Os_Hal_INTC_SetCurrentLevel
                           0x1'375d    0x6  Code  Lc  Os_Error.o [17]
Os_Hal_INTC_SetCurrentLevel
                           0x2'6845    0x6  Code  Lc  Os_Event.o [17]
Os_Hal_INTC_SetCurrentLevel
                           0x1'ad27    0x6  Code  Lc  Os_Hal_Core.o [17]
Os_Hal_INTC_SetCurrentLevel
                           0x1'9aa5    0x6  Code  Lc  Os_Hook.o [17]
Os_Hal_INTC_SetCurrentLevel
                           0x1'b69d    0x6  Code  Lc  Os_Interrupt.o [17]
Os_Hal_INTC_SetCurrentLevel
                           0x2'4541    0x6  Code  Lc  Os_Ioc.o [17]
Os_Hal_INTC_SetCurrentLevel
                           0x1'58b7    0x6  Code  Lc  Os_Isr.o [17]
Os_Hal_INTC_SetCurrentLevel
                           0x2'8619    0x6  Code  Lc  Os_MemoryProtection.o [17]
Os_Hal_INTC_SetCurrentLevel
                           0x1'f199    0x6  Code  Lc  Os_Resource.o [17]
Os_Hal_INTC_SetCurrentLevel
                           0x2'3579    0x6  Code  Lc  Os_ScheduleTable.o [17]
Os_Hal_INTC_SetCurrentLevel
                           0x2'04d3    0x6  Code  Lc  Os_ServiceFunction.o [17]
Os_Hal_INTC_SetCurrentLevel
                           0x1'e055    0x6  Code  Lc  Os_Spinlock.o [17]
Os_Hal_INTC_SetCurrentLevel
                           0x1'4001    0x6  Code  Lc  Os_Task.o [17]
Os_Hal_INTC_SetCurrentLevel
                           0x2'8289    0x6  Code  Lc  Os_Timer.o [17]
Os_Hal_INTC_SetCurrentLevel
                           0x1'c21d    0x6  Code  Lc  Os_Trap.o [17]
Os_Hal_INTC_SetCurrentLevel
                           0x1'ad89    0x6  Code  Lc  Os_XSignal.o [17]
Os_Hal_IntClearPending     0x1'5983   0x12  Code  Lc  Os_Isr.o [17]
Os_Hal_IntDisableAndReturnGlobalState
                           0x2'2c8b   0x12  Code  Lc  Os_Alarm.o [17]
Os_Hal_IntDisableAndReturnGlobalState
                           0x1'77bb   0x12  Code  Lc  Os_Application.o [17]
Os_Hal_IntDisableAndReturnGlobalState
                           0x1'8b41   0x12  Code  Lc  Os_Core.o [17]
Os_Hal_IntDisableAndReturnGlobalState
                           0x2'192d   0x12  Code  Lc  Os_Counter.o [17]
Os_Hal_IntDisableAndReturnGlobalState
                           0x1'3769   0x12  Code  Lc  Os_Error.o [17]
Os_Hal_IntDisableAndReturnGlobalState
                           0x2'6851   0x12  Code  Lc  Os_Event.o [17]
Os_Hal_IntDisableAndReturnGlobalState
                           0x1'9ab1   0x12  Code  Lc  Os_Hook.o [17]
Os_Hal_IntDisableAndReturnGlobalState
                           0x1'b6bb   0x12  Code  Lc  Os_Interrupt.o [17]
Os_Hal_IntDisableAndReturnGlobalState
                           0x2'454d   0x12  Code  Lc  Os_Ioc.o [17]
Os_Hal_IntDisableAndReturnGlobalState
                           0x1'591f   0x12  Code  Lc  Os_Isr.o [17]
Os_Hal_IntDisableAndReturnGlobalState
                           0x2'8625   0x12  Code  Lc  Os_MemoryProtection.o [17]
Os_Hal_IntDisableAndReturnGlobalState
                           0x1'f1b7   0x12  Code  Lc  Os_Resource.o [17]
Os_Hal_IntDisableAndReturnGlobalState
                           0x2'3585   0x12  Code  Lc  Os_ScheduleTable.o [17]
Os_Hal_IntDisableAndReturnGlobalState
                           0x2'04df   0x12  Code  Lc  Os_ServiceFunction.o [17]
Os_Hal_IntDisableAndReturnGlobalState
                           0x1'e061   0x12  Code  Lc  Os_Spinlock.o [17]
Os_Hal_IntDisableAndReturnGlobalState
                           0x1'400d   0x12  Code  Lc  Os_Task.o [17]
Os_Hal_IntDisableAndReturnGlobalState
                           0x2'8295   0x12  Code  Lc  Os_Timer.o [17]
Os_Hal_IntDisableAndReturnGlobalState
                           0x1'c229   0x12  Code  Lc  Os_Trap.o [17]
Os_Hal_IntDisableAndReturnGlobalState
                           0x1'ad95   0x12  Code  Lc  Os_XSignal.o [17]
Os_Hal_IntDisableSource
                           0x1'77f3    0x8  Code  Lc  Os_Application.o [17]
Os_Hal_IntDisableSource
                           0x1'595d    0x8  Code  Lc  Os_Isr.o [17]
Os_Hal_IntEnableSource     0x1'5965   0x1a  Code  Lc  Os_Isr.o [17]
Os_Hal_IntEndOfInterrupt
                           0x1'59a5    0x8  Code  Lc  Os_Isr.o [17]
Os_Hal_IntGetCat1LockLevel
                           0x1'b6f3    0x6  Code  Lc  Os_Interrupt.o [17]
Os_Hal_IntGetCat2LockLevel
                           0x1'b6ed    0x6  Code  Lc  Os_Interrupt.o [17]
Os_Hal_IntGetGlobalEnable
                           0x1'8b73    0x6  Code  Lc  Os_Core.o [17]
Os_Hal_IntGetGlobalEnable
                           0x1'5951    0x6  Code  Lc  Os_Isr.o [17]
Os_Hal_IntGetGlobalEnable
                           0x2'8657    0x6  Code  Lc  Os_MemoryProtection.o [17]
Os_Hal_IntGetInterruptState
                           0x1'9ae9    0xc  Code  Lc  Os_Hook.o [17]
Os_Hal_IntGetInterruptState
                           0x1'59b1    0xc  Code  Lc  Os_Isr.o [17]
Os_Hal_IntGetInterruptState
                           0x2'0517    0xc  Code  Lc  Os_ServiceFunction.o [17]
Os_Hal_IntGetInterruptState
                           0x1'4045    0xc  Code  Lc  Os_Task.o [17]
Os_Hal_IntGetLevel         0x2'2ca7    0xc  Code  Lc  Os_Alarm.o [17]
Os_Hal_IntGetLevel         0x1'77d7    0xc  Code  Lc  Os_Application.o [17]
Os_Hal_IntGetLevel         0x1'8b5d    0xc  Code  Lc  Os_Core.o [17]
Os_Hal_IntGetLevel         0x2'1949    0xc  Code  Lc  Os_Counter.o [17]
Os_Hal_IntGetLevel         0x1'3785    0xc  Code  Lc  Os_Error.o [17]
Os_Hal_IntGetLevel         0x2'686d    0xc  Code  Lc  Os_Event.o [17]
Os_Hal_IntGetLevel         0x1'9acd    0xc  Code  Lc  Os_Hook.o [17]
Os_Hal_IntGetLevel         0x1'b6d7    0xc  Code  Lc  Os_Interrupt.o [17]
Os_Hal_IntGetLevel         0x2'4569    0xc  Code  Lc  Os_Ioc.o [17]
Os_Hal_IntGetLevel         0x1'593b    0xc  Code  Lc  Os_Isr.o [17]
Os_Hal_IntGetLevel         0x2'8641    0xc  Code  Lc  Os_MemoryProtection.o [17]
Os_Hal_IntGetLevel         0x1'f1d3    0xc  Code  Lc  Os_Resource.o [17]
Os_Hal_IntGetLevel         0x2'35a1    0xc  Code  Lc  Os_ScheduleTable.o [17]
Os_Hal_IntGetLevel         0x2'04fb    0xc  Code  Lc  Os_ServiceFunction.o [17]
Os_Hal_IntGetLevel         0x1'e07d    0xc  Code  Lc  Os_Spinlock.o [17]
Os_Hal_IntGetLevel         0x1'4029    0xc  Code  Lc  Os_Task.o [17]
Os_Hal_IntGetLevel         0x2'82b1    0xc  Code  Lc  Os_Timer.o [17]
Os_Hal_IntGetLevel         0x1'c245    0xc  Code  Lc  Os_Trap.o [17]
Os_Hal_IntGetLevel         0x1'adb1    0xc  Code  Lc  Os_XSignal.o [17]
Os_Hal_IntGetTPLockLevel
                           0x2'2cbd    0x6  Code  Lc  Os_Alarm.o [17]
Os_Hal_IntGetTPLockLevel
                           0x1'77ed    0x6  Code  Lc  Os_Application.o [17]
Os_Hal_IntGetTPLockLevel
                           0x1'8b79    0x6  Code  Lc  Os_Core.o [17]
Os_Hal_IntGetTPLockLevel
                           0x2'195f    0x6  Code  Lc  Os_Counter.o [17]
Os_Hal_IntGetTPLockLevel
                           0x1'379b    0x6  Code  Lc  Os_Error.o [17]
Os_Hal_IntGetTPLockLevel
                           0x2'6883    0x6  Code  Lc  Os_Event.o [17]
Os_Hal_IntGetTPLockLevel
                           0x1'9ae3    0x6  Code  Lc  Os_Hook.o [17]
Os_Hal_IntGetTPLockLevel
                           0x1'b6f9    0x6  Code  Lc  Os_Interrupt.o [17]
Os_Hal_IntGetTPLockLevel
                           0x2'457f    0x6  Code  Lc  Os_Ioc.o [17]
Os_Hal_IntGetTPLockLevel
                           0x1'5957    0x6  Code  Lc  Os_Isr.o [17]
Os_Hal_IntGetTPLockLevel
                           0x2'865d    0x6  Code  Lc  Os_MemoryProtection.o [17]
Os_Hal_IntGetTPLockLevel
                           0x1'f1e9    0x6  Code  Lc  Os_Resource.o [17]
Os_Hal_IntGetTPLockLevel
                           0x2'35b7    0x6  Code  Lc  Os_ScheduleTable.o [17]
Os_Hal_IntGetTPLockLevel
                           0x2'0511    0x6  Code  Lc  Os_ServiceFunction.o [17]
Os_Hal_IntGetTPLockLevel
                           0x1'e093    0x6  Code  Lc  Os_Spinlock.o [17]
Os_Hal_IntGetTPLockLevel
                           0x1'403f    0x6  Code  Lc  Os_Task.o [17]
Os_Hal_IntGetTPLockLevel
                           0x2'82c7    0x6  Code  Lc  Os_Timer.o [17]
Os_Hal_IntGetTPLockLevel
                           0x1'c25b    0x6  Code  Lc  Os_Trap.o [17]
Os_Hal_IntGetTPLockLevel
                           0x1'adc7    0x6  Code  Lc  Os_XSignal.o [17]
Os_Hal_IntGetTaskLevel     0x1'b6ff    0x6  Code  Lc  Os_Interrupt.o [17]
Os_Hal_IntInterruptSourceInit
                           0x1'8b7f    0x8  Code  Lc  Os_Core.o [17]
Os_Hal_IntIsClearPendingSupported
                           0x1'597f    0x4  Code  Lc  Os_Isr.o [17]
Os_Hal_IntIsGlobal2LevelSwitchSupported
                           0x1'8b87    0x4  Code  Lc  Os_Core.o [17]
Os_Hal_IntIsGlobal2LevelSwitchSupported
                           0x1'59ad    0x4  Code  Lc  Os_Isr.o [17]
Os_Hal_IntIsGlobal2LevelSwitchSupported
                           0x2'8663    0x4  Code  Lc  Os_MemoryProtection.o [17]
Os_Hal_IntIsInterruptPending
                           0x1'599d    0x8  Code  Lc  Os_Isr.o [17]
Os_Hal_IntIsInterruptSourceEnabled
                           0x1'5995    0x8  Code  Lc  Os_Isr.o [17]
Os_Hal_IntIsLevelSupported
                           0x2'2cc3    0x4  Code  Lc  Os_Alarm.o [17]
Os_Hal_IntIsLevelSupported
                           0x1'77ff    0x4  Code  Lc  Os_Application.o [17]
Os_Hal_IntIsLevelSupported
                           0x1'8b8b    0x4  Code  Lc  Os_Core.o [17]
Os_Hal_IntIsLevelSupported
                           0x2'1969    0x4  Code  Lc  Os_Counter.o [17]
Os_Hal_IntIsLevelSupported
                           0x1'37a1    0x4  Code  Lc  Os_Error.o [17]
Os_Hal_IntIsLevelSupported
                           0x2'688d    0x4  Code  Lc  Os_Event.o [17]
Os_Hal_IntIsLevelSupported
                           0x1'9af9    0x4  Code  Lc  Os_Hook.o [17]
Os_Hal_IntIsLevelSupported
                           0x1'b715    0x4  Code  Lc  Os_Interrupt.o [17]
Os_Hal_IntIsLevelSupported
                           0x2'4585    0x4  Code  Lc  Os_Ioc.o [17]
Os_Hal_IntIsLevelSupported
                           0x1'59c1    0x4  Code  Lc  Os_Isr.o [17]
Os_Hal_IntIsLevelSupported
                           0x2'8667    0x4  Code  Lc  Os_MemoryProtection.o [17]
Os_Hal_IntIsLevelSupported
                           0x1'f217    0x4  Code  Lc  Os_Resource.o [17]
Os_Hal_IntIsLevelSupported
                           0x2'35bd    0x4  Code  Lc  Os_ScheduleTable.o [17]
Os_Hal_IntIsLevelSupported
                           0x2'0523    0x4  Code  Lc  Os_ServiceFunction.o [17]
Os_Hal_IntIsLevelSupported
                           0x1'e09d    0x4  Code  Lc  Os_Spinlock.o [17]
Os_Hal_IntIsLevelSupported
                           0x1'4055    0x4  Code  Lc  Os_Task.o [17]
Os_Hal_IntIsLevelSupported
                           0x2'82d1    0x4  Code  Lc  Os_Timer.o [17]
Os_Hal_IntIsLevelSupported
                           0x1'c275    0x4  Code  Lc  Os_Trap.o [17]
Os_Hal_IntIsLevelSupported
                           0x1'adcd    0x4  Code  Lc  Os_XSignal.o [17]
Os_Hal_IntIsPeripheralInterruptTriggerSupported
                           0x1'77fb    0x4  Code  Lc  Os_Application.o [17]
Os_Hal_IntIsPeripheralInterruptTriggerSupported
                           0x2'1965    0x4  Code  Lc  Os_Counter.o [17]
Os_Hal_IntIsPeripheralInterruptTriggerSupported
                           0x2'6889    0x4  Code  Lc  Os_Event.o [17]
Os_Hal_IntIsPeripheralInterruptTriggerSupported
                           0x1'9af5    0x4  Code  Lc  Os_Hook.o [17]
Os_Hal_IntIsPeripheralInterruptTriggerSupported
                           0x1'b711    0x4  Code  Lc  Os_Interrupt.o [17]
Os_Hal_IntIsPeripheralInterruptTriggerSupported
                           0x1'59bd    0x4  Code  Lc  Os_Isr.o [17]
Os_Hal_IntIsPeripheralInterruptTriggerSupported
                           0x1'f213    0x4  Code  Lc  Os_Resource.o [17]
Os_Hal_IntIsPeripheralInterruptTriggerSupported
                           0x1'e099    0x4  Code  Lc  Os_Spinlock.o [17]
Os_Hal_IntIsPeripheralInterruptTriggerSupported
                           0x1'4051    0x4  Code  Lc  Os_Task.o [17]
Os_Hal_IntIsPeripheralInterruptTriggerSupported
                           0x1'6f61    0x4  Code  Lc  Os_Thread.o [17]
Os_Hal_IntIsPeripheralInterruptTriggerSupported
                           0x2'82cd    0x4  Code  Lc  Os_Timer.o [17]
Os_Hal_IntIsPeripheralInterruptTriggerSupported
                           0x1'b4c5    0x4  Code  Lc  Os_TimingProtection.o [17]
Os_Hal_IntIsrLevelIsLe     0x1'f1ef   0x18  Code  Lc  Os_Resource.o [17]
Os_Hal_IntLevelIsGt        0x1'b705    0xc  Code  Lc  Os_Interrupt.o [17]
Os_Hal_IntLevelIsGt        0x1'f207    0xc  Code  Lc  Os_Resource.o [17]
Os_Hal_IntSetGlobalState
                           0x2'2c9d    0xa  Code  Lc  Os_Alarm.o [17]
Os_Hal_IntSetGlobalState
                           0x1'77cd    0xa  Code  Lc  Os_Application.o [17]
Os_Hal_IntSetGlobalState
                           0x1'8b53    0xa  Code  Lc  Os_Core.o [17]
Os_Hal_IntSetGlobalState
                           0x2'193f    0xa  Code  Lc  Os_Counter.o [17]
Os_Hal_IntSetGlobalState
                           0x1'377b    0xa  Code  Lc  Os_Error.o [17]
Os_Hal_IntSetGlobalState
                           0x2'6863    0xa  Code  Lc  Os_Event.o [17]
Os_Hal_IntSetGlobalState
                           0x1'9ac3    0xa  Code  Lc  Os_Hook.o [17]
Os_Hal_IntSetGlobalState
                           0x1'b6cd    0xa  Code  Lc  Os_Interrupt.o [17]
Os_Hal_IntSetGlobalState
                           0x2'455f    0xa  Code  Lc  Os_Ioc.o [17]
Os_Hal_IntSetGlobalState
                           0x1'5931    0xa  Code  Lc  Os_Isr.o [17]
Os_Hal_IntSetGlobalState
                           0x2'8637    0xa  Code  Lc  Os_MemoryProtection.o [17]
Os_Hal_IntSetGlobalState
                           0x1'f1c9    0xa  Code  Lc  Os_Resource.o [17]
Os_Hal_IntSetGlobalState
                           0x2'3597    0xa  Code  Lc  Os_ScheduleTable.o [17]
Os_Hal_IntSetGlobalState
                           0x2'04f1    0xa  Code  Lc  Os_ServiceFunction.o [17]
Os_Hal_IntSetGlobalState
                           0x1'e073    0xa  Code  Lc  Os_Spinlock.o [17]
Os_Hal_IntSetGlobalState
                           0x1'401f    0xa  Code  Lc  Os_Task.o [17]
Os_Hal_IntSetGlobalState
                           0x2'82a7    0xa  Code  Lc  Os_Timer.o [17]
Os_Hal_IntSetGlobalState
                           0x1'c23b    0xa  Code  Lc  Os_Trap.o [17]
Os_Hal_IntSetGlobalState
                           0x1'ada7    0xa  Code  Lc  Os_XSignal.o [17]
Os_Hal_IntSetLevel         0x2'2cb3    0xa  Code  Lc  Os_Alarm.o [17]
Os_Hal_IntSetLevel         0x1'77e3    0xa  Code  Lc  Os_Application.o [17]
Os_Hal_IntSetLevel         0x1'8b69    0xa  Code  Lc  Os_Core.o [17]
Os_Hal_IntSetLevel         0x2'1955    0xa  Code  Lc  Os_Counter.o [17]
Os_Hal_IntSetLevel         0x1'3791    0xa  Code  Lc  Os_Error.o [17]
Os_Hal_IntSetLevel         0x2'6879    0xa  Code  Lc  Os_Event.o [17]
Os_Hal_IntSetLevel         0x1'9ad9    0xa  Code  Lc  Os_Hook.o [17]
Os_Hal_IntSetLevel         0x1'b6e3    0xa  Code  Lc  Os_Interrupt.o [17]
Os_Hal_IntSetLevel         0x2'4575    0xa  Code  Lc  Os_Ioc.o [17]
Os_Hal_IntSetLevel         0x1'5947    0xa  Code  Lc  Os_Isr.o [17]
Os_Hal_IntSetLevel         0x2'864d    0xa  Code  Lc  Os_MemoryProtection.o [17]
Os_Hal_IntSetLevel         0x1'f1df    0xa  Code  Lc  Os_Resource.o [17]
Os_Hal_IntSetLevel         0x2'35ad    0xa  Code  Lc  Os_ScheduleTable.o [17]
Os_Hal_IntSetLevel         0x2'0507    0xa  Code  Lc  Os_ServiceFunction.o [17]
Os_Hal_IntSetLevel         0x1'e089    0xa  Code  Lc  Os_Spinlock.o [17]
Os_Hal_IntSetLevel         0x1'4035    0xa  Code  Lc  Os_Task.o [17]
Os_Hal_IntSetLevel         0x2'82bd    0xa  Code  Lc  Os_Timer.o [17]
Os_Hal_IntSetLevel         0x1'c251    0xa  Code  Lc  Os_Trap.o [17]
Os_Hal_IntSetLevel         0x1'adbd    0xa  Code  Lc  Os_XSignal.o [17]
Os_Hal_IntTrapRestore      0x1'c261    0x8  Code  Lc  Os_Trap.o [17]
Os_Hal_IntTrapUpdate       0x1'c269    0xc  Code  Lc  Os_Trap.o [17]
Os_Hal_LoadExclusive       0x2'7e1d    0x6  Code  Gb  Os_Hal_Compiler_Iar.o [17]
Os_Hal_MemFault            0x2'7f85         Code  Gb  Os_Hal_ContextAsm.o [17]
Os_Hal_MpAppSwitch         0x1'7ca3   0x20  Code  Lc  Os_Application.o [17]
Os_Hal_MpAppSwitch         0x2'1d7b   0x20  Code  Lc  Os_Counter.o [17]
Os_Hal_MpAppSwitch         0x2'6cef   0x20  Code  Lc  Os_Event.o [17]
Os_Hal_MpAppSwitch         0x1'9dc9   0x20  Code  Lc  Os_Hook.o [17]
Os_Hal_MpAppSwitch         0x1'5cad   0x20  Code  Lc  Os_Isr.o [17]
Os_Hal_MpAppSwitch         0x1'f58b   0x20  Code  Lc  Os_Resource.o [17]
Os_Hal_MpAppSwitch         0x2'03df   0x20  Code  Lc  Os_ServiceFunction.o [17]
Os_Hal_MpAppSwitch         0x1'e3a9   0x20  Code  Lc  Os_Spinlock.o [17]
Os_Hal_MpAppSwitch         0x1'433f   0x20  Code  Lc  Os_Task.o [17]
Os_Hal_MpAppSwitch         0x1'7121   0x20  Code  Lc  Os_Thread.o [17]
Os_Hal_MpAppSwitch         0x1'c3b9   0x20  Code  Lc  Os_Trap.o [17]
Os_Hal_MpCoreInit          0x1'8d51    0x2  Code  Lc  Os_Core.o [17]
Os_Hal_MpDisableAllRegions
                           0x1'8c9f   0x2a  Code  Lc  Os_Core.o [17]
Os_Hal_MpGetStackRegion
                           0x2'1079   0x1a  Code  Lc  Os_Hal_Context_v7m.o [17]
Os_Hal_MpSystemInit        0x1'8d0f   0x42  Code  Lc  Os_Core.o [17]
Os_Hal_MpThreadSwitch      0x1'7cc3   0x20  Code  Lc  Os_Application.o [17]
Os_Hal_MpThreadSwitch      0x2'1d9b   0x20  Code  Lc  Os_Counter.o [17]
Os_Hal_MpThreadSwitch      0x2'6d0f   0x20  Code  Lc  Os_Event.o [17]
Os_Hal_MpThreadSwitch      0x1'9de9   0x20  Code  Lc  Os_Hook.o [17]
Os_Hal_MpThreadSwitch      0x1'5ccd   0x20  Code  Lc  Os_Isr.o [17]
Os_Hal_MpThreadSwitch      0x1'f5ab   0x20  Code  Lc  Os_Resource.o [17]
Os_Hal_MpThreadSwitch      0x2'03ff   0x20  Code  Lc  Os_ServiceFunction.o [17]
Os_Hal_MpThreadSwitch      0x1'e3c9   0x20  Code  Lc  Os_Spinlock.o [17]
Os_Hal_MpThreadSwitch      0x1'435f   0x20  Code  Lc  Os_Task.o [17]
Os_Hal_MpThreadSwitch      0x1'7141   0x20  Code  Lc  Os_Thread.o [17]
Os_Hal_MpThreadSwitch      0x1'c3d9   0x20  Code  Lc  Os_Trap.o [17]
Os_Hal_MpWriteRegionDescriptor
                           0x1'7c5d   0x46  Code  Lc  Os_Application.o [17]
Os_Hal_MpWriteRegionDescriptor
                           0x1'8cc9   0x46  Code  Lc  Os_Core.o [17]
Os_Hal_MpWriteRegionDescriptor
                           0x2'1d35   0x46  Code  Lc  Os_Counter.o [17]
Os_Hal_MpWriteRegionDescriptor
                           0x2'6ca9   0x46  Code  Lc  Os_Event.o [17]
Os_Hal_MpWriteRegionDescriptor
                           0x1'9d83   0x46  Code  Lc  Os_Hook.o [17]
Os_Hal_MpWriteRegionDescriptor
                           0x1'5c67   0x46  Code  Lc  Os_Isr.o [17]
Os_Hal_MpWriteRegionDescriptor
                           0x1'f545   0x46  Code  Lc  Os_Resource.o [17]
Os_Hal_MpWriteRegionDescriptor
                           0x2'0399   0x46  Code  Lc  Os_ServiceFunction.o [17]
Os_Hal_MpWriteRegionDescriptor
                           0x1'e363   0x46  Code  Lc  Os_Spinlock.o [17]
Os_Hal_MpWriteRegionDescriptor
                           0x1'42f9   0x46  Code  Lc  Os_Task.o [17]
Os_Hal_MpWriteRegionDescriptor
                           0x1'70db   0x46  Code  Lc  Os_Thread.o [17]
Os_Hal_MpWriteRegionDescriptor
                           0x1'c373   0x46  Code  Lc  Os_Trap.o [17]
Os_Hal_SpinInit            0x1'8d6b    0x6  Code  Lc  Os_Core.o [17]
Os_Hal_SpinIsLocked        0x2'4833    0x4  Code  Lc  Os_Ioc.o [17]
Os_Hal_SpinIsLocked        0x1'e43d    0x4  Code  Lc  Os_Spinlock.o [17]
Os_Hal_SpinTryLock         0x2'47fd   0x26  Code  Lc  Os_Ioc.o [17]
Os_Hal_SpinTryLock         0x1'e3f3   0x26  Code  Lc  Os_Spinlock.o [17]
Os_Hal_SpinUnlock          0x2'4837    0xa  Code  Lc  Os_Ioc.o [17]
Os_Hal_SpinUnlock          0x1'e441    0xa  Code  Lc  Os_Spinlock.o [17]
Os_Hal_StackBottomGet      0x2'5c97    0x4  Code  Lc  Os_Stack.o [17]
Os_Hal_StackCalculateUsage
                           0x2'5ca3    0x4  Code  Lc  Os_Stack.o [17]
Os_Hal_StackEndGet         0x1'7d0f    0x2  Code  Lc  Os_Application.o [17]
Os_Hal_StackEndGet         0x2'1de7    0x2  Code  Lc  Os_Counter.o [17]
Os_Hal_StackEndGet         0x2'6d5b    0x2  Code  Lc  Os_Event.o [17]
Os_Hal_StackEndGet         0x1'9eff    0x2  Code  Lc  Os_Hook.o [17]
Os_Hal_StackEndGet         0x1'5db3    0x2  Code  Lc  Os_Isr.o [17]
Os_Hal_StackEndGet         0x1'f5f7    0x2  Code  Lc  Os_Resource.o [17]
Os_Hal_StackEndGet         0x1'e43b    0x2  Code  Lc  Os_Spinlock.o [17]
Os_Hal_StackEndGet         0x2'5c95    0x2  Code  Lc  Os_Stack.o [17]
Os_Hal_StackEndGet         0x1'4449    0x2  Code  Lc  Os_Task.o [17]
Os_Hal_StackEndGet         0x1'7207    0x2  Code  Lc  Os_Thread.o [17]
Os_Hal_StackPointerMoveDown
                           0x2'5c9f    0x4  Code  Lc  Os_Stack.o [17]
Os_Hal_StackTopGet         0x2'5c9b    0x4  Code  Lc  Os_Stack.o [17]
Os_Hal_StartNewThread      0x2'7e31         Code  Gb  Os_Hal_ContextAsm.o [17]
Os_Hal_StoreExclusive      0x2'7e25    0xa  Code  Gb  Os_Hal_Compiler_Iar.o [17]
Os_Hal_StorePermanentRegisters
                           0x2'7e41         Code  Gb  Os_Hal_ContextAsm.o [17]
Os_Hal_SysCallHandler      0x2'7e47         Code  Gb  Os_Hal_ContextAsm.o [17]
Os_Hal_TimerFrtGetCounterValue
                           0x1'79d1    0x4  Code  Lc  Os_Application.o [17]
Os_Hal_TimerFrtGetCounterValue
                           0x2'1a0f    0x4  Code  Lc  Os_Counter.o [17]
Os_Hal_TimerFrtGetCounterValue
                           0x2'6a9d    0x4  Code  Lc  Os_Event.o [17]
Os_Hal_TimerFrtGetCounterValue
                           0x1'9ba1    0x4  Code  Lc  Os_Hook.o [17]
Os_Hal_TimerFrtGetCounterValue
                           0x1'b72d    0x4  Code  Lc  Os_Interrupt.o [17]
Os_Hal_TimerFrtGetCounterValue
                           0x1'59c5    0x4  Code  Lc  Os_Isr.o [17]
Os_Hal_TimerFrtGetCounterValue
                           0x1'f269    0x4  Code  Lc  Os_Resource.o [17]
Os_Hal_TimerFrtGetCounterValue
                           0x1'e0ef    0x4  Code  Lc  Os_Spinlock.o [17]
Os_Hal_TimerFrtGetCounterValue
                           0x1'40f7    0x4  Code  Lc  Os_Task.o [17]
Os_Hal_TimerFrtGetCounterValue
                           0x1'6fd5    0x4  Code  Lc  Os_Thread.o [17]
Os_Hal_TimerFrtGetCounterValue
                           0x2'8439    0x4  Code  Lc  Os_Timer.o [17]
Os_Hal_TimerFrtGetCounterValue
                           0x1'b3bb    0x4  Code  Lc  Os_TimingProtection.o [17]
Os_Hal_TimerFrtInit        0x2'1a0d    0x2  Code  Lc  Os_Counter.o [17]
Os_Hal_TimerFrtInit        0x2'8437    0x2  Code  Lc  Os_Timer.o [17]
Os_Hal_TimerFrtSetCompareValue
                           0x1'79d5    0x2  Code  Lc  Os_Application.o [17]
Os_Hal_TimerFrtSetCompareValue
                           0x2'1a13    0x2  Code  Lc  Os_Counter.o [17]
Os_Hal_TimerFrtSetCompareValue
                           0x2'6aa1    0x2  Code  Lc  Os_Event.o [17]
Os_Hal_TimerFrtSetCompareValue
                           0x1'9ba5    0x2  Code  Lc  Os_Hook.o [17]
Os_Hal_TimerFrtSetCompareValue
                           0x1'b731    0x2  Code  Lc  Os_Interrupt.o [17]
Os_Hal_TimerFrtSetCompareValue
                           0x1'59c9    0x2  Code  Lc  Os_Isr.o [17]
Os_Hal_TimerFrtSetCompareValue
                           0x1'f26d    0x2  Code  Lc  Os_Resource.o [17]
Os_Hal_TimerFrtSetCompareValue
                           0x1'e0f3    0x2  Code  Lc  Os_Spinlock.o [17]
Os_Hal_TimerFrtSetCompareValue
                           0x1'40fb    0x2  Code  Lc  Os_Task.o [17]
Os_Hal_TimerFrtSetCompareValue
                           0x1'6fd9    0x2  Code  Lc  Os_Thread.o [17]
Os_Hal_TimerFrtSetCompareValue
                           0x2'843d    0x2  Code  Lc  Os_Timer.o [17]
Os_Hal_TimerFrtSetCompareValue
                           0x1'b3bf    0x2  Code  Lc  Os_TimingProtection.o [17]
Os_Hal_TimerFrtTriggerIrq
                           0x1'79d7    0x2  Code  Lc  Os_Application.o [17]
Os_Hal_TimerFrtTriggerIrq
                           0x2'1a15    0x2  Code  Lc  Os_Counter.o [17]
Os_Hal_TimerFrtTriggerIrq
                           0x2'6aa3    0x2  Code  Lc  Os_Event.o [17]
Os_Hal_TimerFrtTriggerIrq
                           0x1'9ba7    0x2  Code  Lc  Os_Hook.o [17]
Os_Hal_TimerFrtTriggerIrq
                           0x1'b733    0x2  Code  Lc  Os_Interrupt.o [17]
Os_Hal_TimerFrtTriggerIrq
                           0x1'59cb    0x2  Code  Lc  Os_Isr.o [17]
Os_Hal_TimerFrtTriggerIrq
                           0x1'f26f    0x2  Code  Lc  Os_Resource.o [17]
Os_Hal_TimerFrtTriggerIrq
                           0x1'e0f5    0x2  Code  Lc  Os_Spinlock.o [17]
Os_Hal_TimerFrtTriggerIrq
                           0x1'40fd    0x2  Code  Lc  Os_Task.o [17]
Os_Hal_TimerFrtTriggerIrq
                           0x1'6fdb    0x2  Code  Lc  Os_Thread.o [17]
Os_Hal_TimerFrtTriggerIrq
                           0x2'843f    0x2  Code  Lc  Os_Timer.o [17]
Os_Hal_TimerFrtTriggerIrq
                           0x1'b3c1    0x2  Code  Lc  Os_TimingProtection.o [17]
Os_Hal_TimerPitAckAndReload
                           0x2'8441    0xc  Code  Lc  Os_Timer.o [17]
Os_Hal_TimerPitInit        0x2'1a17   0x1e  Code  Lc  Os_Counter.o [17]
Os_Hal_TimerPitIsPending
                           0x2'844d    0xa  Code  Lc  Os_Timer.o [17]
Os_Hal_Trap                0x1'c721    0x8  Code  Lc  Os_Trap.o [17]
Os_Hal_UnhandledEXC        0x2'7f43         Code  Gb  Os_Hal_ContextAsm.o [17]
Os_Hal_UnhandledIRQ        0x2'7f05         Code  Gb  Os_Hal_ContextAsm.o [17]
Os_Hal_XSigInit            0x1'ae3b    0x2  Code  Lc  Os_XSignal.o [17]
Os_Hal_XSigTrigger         0x1'ae3d    0x2  Code  Lc  Os_XSignal.o [17]
Os_Hook2InitHook           0x1'acfd    0x2  Code  Lc  Os_Hook.o [17]
Os_Hook2StatusHook         0x1'acfb    0x2  Code  Lc  Os_Hook.o [17]
Os_HookCall                0x1'ab07   0x72  Code  Lc  Os_Hook.o [17]
Os_HookCallCallback        0x1'ac65   0x4e  Code  Gb  Os_Hook.o [17]
Os_HookCallCallbackLocal
                           0x1'acb3   0x28  Code  Gb  Os_Hook.o [17]
Os_HookCallOs_CoreInitHook
                           0x1'abd5   0x38  Code  Gb  Os_Hook.o [17]
Os_HookCallPanicHook       0x1'ace7   0x10  Code  Gb  Os_Hook.o [17]
Os_HookCallProtectionHook
                           0x1'ac39   0x2c  Code  Gb  Os_Hook.o [17]
Os_HookCallStatusHook      0x1'ab91   0x1c  Code  Gb  Os_Hook.o [17]
Os_HookCallbackGetThread
                           0x1'aa25    0x2  Code  Lc  Os_Hook.o [17]
Os_HookCallbackGetThread
                           0x2'5ffd    0x2  Code  Lc  Os_Stack.o [17]
Os_HookGetDyn              0x1'acff    0x4  Code  Lc  Os_Hook.o [17]
Os_HookGetThread           0x1'aa45    0x2  Code  Lc  Os_Hook.o [17]
Os_HookInfoInit            0x1'ab79    0x6  Code  Gb  Os_Hook.o [17]
Os_HookInit                0x1'ab7f   0x12  Code  Gb  Os_Hook.o [17]
Os_HookIsErrorHookEnabled
                           0x2'2eb1    0x4  Code  Lc  Os_Alarm.o [17]
Os_HookIsErrorHookEnabled
                           0x1'6ab5    0x4  Code  Lc  Os_Isr.o [17]
Os_HookIsErrorHookEnabled
                           0x2'5ff9    0x4  Code  Lc  Os_Stack.o [17]
Os_HookIsErrorHookEnabled
                           0x1'4ad1    0x4  Code  Lc  Os_Task.o [17]
Os_HookIsErrorHookEnabled
                           0x2'8465    0x4  Code  Lc  Os_Timer.o [17]
Os_HookIsErrorHookEnabled
                           0x1'c4b3    0x4  Code  Lc  Os_Trap.o [17]
Os_HookIsNestingAllowed
                           0x1'aa47   0x14  Code  Lc  Os_Hook.o [17]
Os_HookIsPanicHookEnabled
                           0x1'acf7    0x4  Code  Lc  Os_Hook.o [17]
Os_HookKill                0x1'acdb    0xc  Code  Gb  Os_Hook.o [17]
Os_HookProtectionHookGetThread
                           0x2'6001    0x2  Code  Lc  Os_Stack.o [17]
Os_HookReturn              0x1'aa5b   0x66  Code  Gb  Os_Hook.o [17]
Os_HookReturnWithSchedule
                           0x1'aac1   0x30  Code  Lc  Os_Hook.o [17]
Os_HookReturnWithoutSchedule
                           0x1'aaf1   0x16  Code  Lc  Os_Hook.o [17]
Os_HookStatusHookGetThread
                           0x2'5fff    0x2  Code  Lc  Os_Stack.o [17]
Os_HookSuicide             0x1'75ed   0x18  Code  Lc  Os_Thread.o [17]
Os_HookThread2Hook         0x1'833d   0x1e  Code  Lc  Os_Application.o [17]
Os_HookThread2Hook         0x1'aa27   0x1e  Code  Lc  Os_Hook.o [17]
Os_HookWrapperOs_CoreInitHook
                           0x1'ac0d   0x2c  Code  Gb  Os_Hook.o [17]
Os_HookWrapperStatusHook
                           0x1'abad   0x28  Code  Gb  Os_Hook.o [17]
Os_Init                    0x1'd3b7    0x8  Code  Gb  Os_Trap.o [17]
Os_InitMemory              0x1'd3af    0x8  Code  Gb  Os_Trap.o [17]
Os_IntDisable              0x1'8bc7    0xa  Code  Lc  Os_Core.o [17]
Os_IntDisable              0x1'37e9    0xa  Code  Lc  Os_Error.o [17]
Os_IntDisable              0x1'a20b    0xa  Code  Lc  Os_Hook.o [17]
Os_IntDisable              0x1'61af    0xa  Code  Lc  Os_Isr.o [17]
Os_IntDisable              0x2'86a3    0xa  Code  Lc  Os_MemoryProtection.o [17]
Os_IntDisable              0x2'056b    0xa  Code  Lc  Os_ServiceFunction.o [17]
Os_IntDisable              0x1'4891    0xa  Code  Lc  Os_Task.o [17]
Os_IntDisableGlobal        0x1'6153    0x8  Code  Lc  Os_Isr.o [17]
Os_IntEnableGlobal         0x1'8b8f   0x10  Code  Lc  Os_Core.o [17]
Os_IntEnableGlobal         0x1'615b   0x10  Code  Lc  Os_Isr.o [17]
Os_IntEnableGlobal         0x2'866b   0x10  Code  Lc  Os_MemoryProtection.o [17]
Os_IntIsGlobal2LevelSwitchSupported
                           0x1'8bf3    0x8  Code  Lc  Os_Core.o [17]
Os_IntIsGlobal2LevelSwitchSupported
                           0x1'61e3    0x8  Code  Lc  Os_Isr.o [17]
Os_IntIsGlobal2LevelSwitchSupported
                           0x2'86ad    0x8  Code  Lc  Os_MemoryProtection.o [17]
Os_IntResume               0x2'2cef   0x1c  Code  Lc  Os_Alarm.o [17]
Os_IntResume               0x1'78bb   0x1c  Code  Lc  Os_Application.o [17]
Os_IntResume               0x2'2003   0x1c  Code  Lc  Os_Counter.o [17]
Os_IntResume               0x1'37cd   0x1c  Code  Lc  Os_Error.o [17]
Os_IntResume               0x2'699d   0x1c  Code  Lc  Os_Event.o [17]
Os_IntResume               0x1'a1ef   0x1c  Code  Lc  Os_Hook.o [17]
Os_IntResume               0x1'bda5   0x1c  Code  Lc  Os_Interrupt.o [17]
Os_IntResume               0x2'46d3   0x1c  Code  Lc  Os_Ioc.o [17]
Os_IntResume               0x1'6193   0x1c  Code  Lc  Os_Isr.o [17]
Os_IntResume               0x1'f871   0x1c  Code  Lc  Os_Resource.o [17]
Os_IntResume               0x2'37bb   0x1c  Code  Lc  Os_ScheduleTable.o [17]
Os_IntResume               0x2'054f   0x1c  Code  Lc  Os_ServiceFunction.o [17]
Os_IntResume               0x1'e771   0x1c  Code  Lc  Os_Spinlock.o [17]
Os_IntResume               0x1'4875   0x1c  Code  Lc  Os_Task.o [17]
Os_IntResume               0x2'837f   0x1c  Code  Lc  Os_Timer.o [17]
Os_IntResume               0x1'c2df   0x1c  Code  Lc  Os_Trap.o [17]
Os_IntResume               0x1'adf9   0x1c  Code  Lc  Os_XSignal.o [17]
Os_IntResumeCat1           0x1'bf3f   0x1c  Code  Lc  Os_Interrupt.o [17]
Os_IntResumeCat2           0x1'bf93   0x1c  Code  Lc  Os_Interrupt.o [17]
Os_IntSuspend              0x2'2cc7   0x28  Code  Lc  Os_Alarm.o [17]
Os_IntSuspend              0x1'7893   0x28  Code  Lc  Os_Application.o [17]
Os_IntSuspend              0x1'8b9f   0x28  Code  Lc  Os_Core.o [17]
Os_IntSuspend              0x2'1fdb   0x28  Code  Lc  Os_Counter.o [17]
Os_IntSuspend              0x1'37a5   0x28  Code  Lc  Os_Error.o [17]
Os_IntSuspend              0x2'6975   0x28  Code  Lc  Os_Event.o [17]
Os_IntSuspend              0x1'a1c7   0x28  Code  Lc  Os_Hook.o [17]
Os_IntSuspend              0x1'bd7d   0x28  Code  Lc  Os_Interrupt.o [17]
Os_IntSuspend              0x2'46ab   0x28  Code  Lc  Os_Ioc.o [17]
Os_IntSuspend              0x1'616b   0x28  Code  Lc  Os_Isr.o [17]
Os_IntSuspend              0x2'867b   0x28  Code  Lc  Os_MemoryProtection.o [17]
Os_IntSuspend              0x1'f849   0x28  Code  Lc  Os_Resource.o [17]
Os_IntSuspend              0x2'3793   0x28  Code  Lc  Os_ScheduleTable.o [17]
Os_IntSuspend              0x2'0527   0x28  Code  Lc  Os_ServiceFunction.o [17]
Os_IntSuspend              0x1'e749   0x28  Code  Lc  Os_Spinlock.o [17]
Os_IntSuspend              0x1'484d   0x28  Code  Lc  Os_Task.o [17]
Os_IntSuspend              0x2'8357   0x28  Code  Lc  Os_Timer.o [17]
Os_IntSuspend              0x1'c2b7   0x28  Code  Lc  Os_Trap.o [17]
Os_IntSuspend              0x1'add1   0x28  Code  Lc  Os_XSignal.o [17]
Os_IntSuspendCat1          0x1'bf07   0x38  Code  Lc  Os_Interrupt.o [17]
Os_IntSuspendCat2          0x1'bf5b   0x38  Code  Lc  Os_Interrupt.o [17]
Os_InterruptCheckEnabled
                           0x2'2d0b   0x22  Code  Lc  Os_Alarm.o [17]
Os_InterruptCheckEnabled
                           0x1'78d7   0x22  Code  Lc  Os_Application.o [17]
Os_InterruptCheckEnabled
                           0x1'8bd1   0x22  Code  Lc  Os_Core.o [17]
Os_InterruptCheckEnabled
                           0x2'201f   0x22  Code  Lc  Os_Counter.o [17]
Os_InterruptCheckEnabled
                           0x2'69b9   0x22  Code  Lc  Os_Event.o [17]
Os_InterruptCheckEnabled
                           0x1'61b9   0x22  Code  Lc  Os_Isr.o [17]
Os_InterruptCheckEnabled
                           0x1'f88d   0x22  Code  Lc  Os_Resource.o [17]
Os_InterruptCheckEnabled
                           0x2'37d7   0x22  Code  Lc  Os_ScheduleTable.o [17]
Os_InterruptCheckEnabled
                           0x1'489b   0x22  Code  Lc  Os_Task.o [17]
Os_InterruptCheckInDisableAll
                           0x1'be4f    0xe  Code  Lc  Os_Interrupt.o [17]
Os_InterruptCheckInSuspendAll
                           0x1'be6f   0x16  Code  Lc  Os_Interrupt.o [17]
Os_InterruptCheckInSuspendOs
                           0x1'be85   0x16  Code  Lc  Os_Interrupt.o [17]
Os_InterruptCheckNoOverflow
                           0x1'be9b   0x14  Code  Lc  Os_Interrupt.o [17]
Os_InterruptCheckNotInCriticalSection
                           0x1'bdf9   0x22  Code  Lc  Os_Interrupt.o [17]
Os_InterruptCheckNotInDisableAll
                           0x1'be5d   0x12  Code  Lc  Os_Interrupt.o [17]
Os_InterruptCheckSnapshot
                           0x1'beb3   0x14  Code  Lc  Os_Interrupt.o [17]
Os_InterruptCleanup        0x1'a215    0x8  Code  Lc  Os_Hook.o [17]
Os_InterruptCleanup        0x1'61db    0x8  Code  Lc  Os_Isr.o [17]
Os_InterruptCleanup        0x1'48bd    0x8  Code  Lc  Os_Task.o [17]
Os_InterruptCopy           0x1'a21d   0x10  Code  Lc  Os_Hook.o [17]
Os_InterruptDisableAllEnter
                           0x1'be1b   0x1a  Code  Lc  Os_Interrupt.o [17]
Os_InterruptDisableAllExit
                           0x1'be35   0x1a  Code  Lc  Os_Interrupt.o [17]
Os_InterruptInit           0x1'bfaf   0x22  Code  Gb  Os_Interrupt.o [17]
Os_InterruptIsCat0Enabled
                           0x2'2d2d    0x4  Code  Lc  Os_Alarm.o [17]
Os_InterruptIsCat0Enabled
                           0x1'78f9    0x4  Code  Lc  Os_Application.o [17]
Os_InterruptIsCat0Enabled
                           0x1'8bfb    0x4  Code  Lc  Os_Core.o [17]
Os_InterruptIsCat0Enabled
                           0x2'2041    0x4  Code  Lc  Os_Counter.o [17]
Os_InterruptIsCat0Enabled
                           0x1'37f3    0x4  Code  Lc  Os_Error.o [17]
Os_InterruptIsCat0Enabled
                           0x2'69db    0x4  Code  Lc  Os_Event.o [17]
Os_InterruptIsCat0Enabled
                           0x1'a22d    0x4  Code  Lc  Os_Hook.o [17]
Os_InterruptIsCat0Enabled
                           0x1'bdd3    0x4  Code  Lc  Os_Interrupt.o [17]
Os_InterruptIsCat0Enabled
                           0x2'46ef    0x4  Code  Lc  Os_Ioc.o [17]
Os_InterruptIsCat0Enabled
                           0x1'61eb    0x4  Code  Lc  Os_Isr.o [17]
Os_InterruptIsCat0Enabled
                           0x2'86b5    0x4  Code  Lc  Os_MemoryProtection.o [17]
Os_InterruptIsCat0Enabled
                           0x1'f8af    0x4  Code  Lc  Os_Resource.o [17]
Os_InterruptIsCat0Enabled
                           0x2'37f9    0x4  Code  Lc  Os_ScheduleTable.o [17]
Os_InterruptIsCat0Enabled
                           0x2'0575    0x4  Code  Lc  Os_ServiceFunction.o [17]
Os_InterruptIsCat0Enabled
                           0x1'e78d    0x4  Code  Lc  Os_Spinlock.o [17]
Os_InterruptIsCat0Enabled
                           0x1'48c5    0x4  Code  Lc  Os_Task.o [17]
Os_InterruptIsCat0Enabled
                           0x2'839b    0x4  Code  Lc  Os_Timer.o [17]
Os_InterruptIsCat0Enabled
                           0x1'c2fb    0x4  Code  Lc  Os_Trap.o [17]
Os_InterruptIsCat0Enabled
                           0x1'ae15    0x4  Code  Lc  Os_XSignal.o [17]
Os_InterruptIsCriticalSectionTracingEnabled
                           0x1'bdc1   0x12  Code  Lc  Os_Interrupt.o [17]
Os_InterruptLockOnLevelIsNeeded
                           0x2'2d31   0x22  Code  Lc  Os_Alarm.o [17]
Os_InterruptLockOnLevelIsNeeded
                           0x1'78fd   0x22  Code  Lc  Os_Application.o [17]
Os_InterruptLockOnLevelIsNeeded
                           0x1'8bff   0x22  Code  Lc  Os_Core.o [17]
Os_InterruptLockOnLevelIsNeeded
                           0x2'2045   0x22  Code  Lc  Os_Counter.o [17]
Os_InterruptLockOnLevelIsNeeded
                           0x1'37f7   0x22  Code  Lc  Os_Error.o [17]
Os_InterruptLockOnLevelIsNeeded
                           0x2'69df   0x22  Code  Lc  Os_Event.o [17]
Os_InterruptLockOnLevelIsNeeded
                           0x1'a231   0x22  Code  Lc  Os_Hook.o [17]
Os_InterruptLockOnLevelIsNeeded
                           0x1'bdd7   0x22  Code  Lc  Os_Interrupt.o [17]
Os_InterruptLockOnLevelIsNeeded
                           0x2'46f3   0x22  Code  Lc  Os_Ioc.o [17]
Os_InterruptLockOnLevelIsNeeded
                           0x1'61ef   0x22  Code  Lc  Os_Isr.o [17]
Os_InterruptLockOnLevelIsNeeded
                           0x2'86b9   0x22  Code  Lc  Os_MemoryProtection.o [17]
Os_InterruptLockOnLevelIsNeeded
                           0x1'f8b3   0x22  Code  Lc  Os_Resource.o [17]
Os_InterruptLockOnLevelIsNeeded
                           0x2'37fd   0x22  Code  Lc  Os_ScheduleTable.o [17]
Os_InterruptLockOnLevelIsNeeded
                           0x2'0579   0x22  Code  Lc  Os_ServiceFunction.o [17]
Os_InterruptLockOnLevelIsNeeded
                           0x1'e791   0x22  Code  Lc  Os_Spinlock.o [17]
Os_InterruptLockOnLevelIsNeeded
                           0x1'48c9   0x22  Code  Lc  Os_Task.o [17]
Os_InterruptLockOnLevelIsNeeded
                           0x2'839f   0x22  Code  Lc  Os_Timer.o [17]
Os_InterruptLockOnLevelIsNeeded
                           0x1'c2ff   0x22  Code  Lc  Os_Trap.o [17]
Os_InterruptLockOnLevelIsNeeded
                           0x1'ae19   0x22  Code  Lc  Os_XSignal.o [17]
Os_InterruptRestore        0x1'f909   0x2e  Code  Lc  Os_Resource.o [17]
Os_InterruptSaveAndIncrease
                           0x1'f8d5   0x34  Code  Lc  Os_Resource.o [17]
Os_InterruptTakeSnapshot
                           0x1'beaf    0x4  Code  Lc  Os_Interrupt.o [17]
Os_InterruptTpLockAllStart
                           0x1'bec7   0x10  Code  Lc  Os_Interrupt.o [17]
Os_InterruptTpLockAllStop
                           0x1'bed7   0x10  Code  Lc  Os_Interrupt.o [17]
Os_InterruptTpLockOsStart
                           0x1'bee7   0x10  Code  Lc  Os_Interrupt.o [17]
Os_InterruptTpLockOsStop
                           0x1'bef7   0x10  Code  Lc  Os_Interrupt.o [17]
Os_Ioc08EmptyMultiQueue
                           0x2'539f   0x32  Code  Gb  Os_Ioc.o [17]
Os_Ioc08EmptyQueue         0x2'536d   0x32  Code  Gb  Os_Ioc.o [17]
Os_Ioc08MultiReceive       0x2'5229   0xda  Code  Gb  Os_Ioc.o [17]
Os_Ioc08MultiReceiveInit
                           0x2'4df3   0x26  Code  Lc  Os_Ioc.o [17]
Os_Ioc08Receive            0x2'5303   0x6a  Code  Gb  Os_Ioc.o [17]
Os_Ioc08ReceiveInit        0x2'5201   0x14  Code  Lc  Os_Ioc.o [17]
Os_Ioc08ReceiveInternal
                           0x2'5029   0x76  Code  Lc  Os_Ioc.o [17]
Os_Ioc08Send               0x2'53d1   0xa2  Code  Gb  Os_Ioc.o [17]
Os_Ioc08SendInit           0x2'5215   0x14  Code  Lc  Os_Ioc.o [17]
Os_Ioc16EmptyMultiQueue
                           0x2'5575   0x32  Code  Gb  Os_Ioc.o [17]
Os_Ioc16EmptyQueue         0x2'5611   0x32  Code  Gb  Os_Ioc.o [17]
Os_Ioc16MultiReceive       0x2'549b   0xda  Code  Gb  Os_Ioc.o [17]
Os_Ioc16MultiReceiveInit
                           0x2'4e19   0x26  Code  Lc  Os_Ioc.o [17]
Os_Ioc16Receive            0x2'55a7   0x6a  Code  Gb  Os_Ioc.o [17]
Os_Ioc16ReceiveInit        0x2'5473   0x14  Code  Lc  Os_Ioc.o [17]
Os_Ioc16ReceiveInternal
                           0x2'509f   0x76  Code  Lc  Os_Ioc.o [17]
Os_Ioc16Send               0x2'5643   0xa2  Code  Gb  Os_Ioc.o [17]
Os_Ioc16SendInit           0x2'5487   0x14  Code  Lc  Os_Ioc.o [17]
Os_Ioc32EmptyMultiQueue
                           0x2'5883   0x32  Code  Gb  Os_Ioc.o [17]
Os_Ioc32EmptyQueue         0x2'5851   0x32  Code  Gb  Os_Ioc.o [17]
Os_Ioc32MultiReceive       0x2'570d   0xda  Code  Gb  Os_Ioc.o [17]
Os_Ioc32MultiReceiveInit
                           0x2'4e3f   0x26  Code  Lc  Os_Ioc.o [17]
Os_Ioc32Receive            0x2'57e7   0x6a  Code  Gb  Os_Ioc.o [17]
Os_Ioc32ReceiveInit        0x2'56e5   0x14  Code  Lc  Os_Ioc.o [17]
Os_Ioc32ReceiveInternal
                           0x2'5115   0x76  Code  Lc  Os_Ioc.o [17]
Os_Ioc32Send               0x2'58b5   0xa0  Code  Gb  Os_Ioc.o [17]
Os_Ioc32SendInit           0x2'56f9   0x14  Code  Lc  Os_Ioc.o [17]
Os_IocCallCallbacks        0x2'4f2b   0x40  Code  Lc  Os_Ioc.o [17]
Os_IocChannelIsEnabled     0x2'4da5   0x12  Code  Lc  Os_Ioc.o [17]
Os_IocCheckNoDataLost      0x2'4f6b   0x24  Code  Lc  Os_Ioc.o [17]
Os_IocCloseChannel         0x2'4db7    0x8  Code  Lc  Os_Ioc.o [17]
Os_IocEmptyMultiQueue      0x2'4f9d   0x88  Code  Lc  Os_Ioc.o [17]
Os_IocGetAccessingApplications
                           0x2'5025    0x4  Code  Lc  Os_Ioc.o [17]
Os_IocHasCallbacks         0x2'4cc3    0x4  Code  Lc  Os_Ioc.o [17]
Os_IocIncrementLostCounter
                           0x2'4f8f    0xe  Code  Lc  Os_Ioc.o [17]
Os_IocInit                 0x1'8c87   0x14  Code  Lc  Os_Core.o [17]
Os_IocInitBase             0x2'4ce1    0x8  Code  Lc  Os_Ioc.o [17]
Os_IocInitInternal         0x2'4ce9   0xbc  Code  Gb  Os_Ioc.o [17]
Os_IocIoc2Ioc08MultiReceive
                           0x2'4cd1    0x2  Code  Lc  Os_Ioc.o [17]
Os_IocIoc2Ioc08Receive     0x2'4cc9    0x2  Code  Lc  Os_Ioc.o [17]
Os_IocIoc2Ioc08Send        0x2'4cd9    0x2  Code  Lc  Os_Ioc.o [17]
Os_IocIoc2Ioc16MultiReceive
                           0x2'4cd3    0x2  Code  Lc  Os_Ioc.o [17]
Os_IocIoc2Ioc16Receive     0x2'4ccb    0x2  Code  Lc  Os_Ioc.o [17]
Os_IocIoc2Ioc16Send        0x2'4cdb    0x2  Code  Lc  Os_Ioc.o [17]
Os_IocIoc2Ioc32MultiReceive
                           0x2'4cd5    0x2  Code  Lc  Os_Ioc.o [17]
Os_IocIoc2Ioc32Receive     0x2'4ccd    0x2  Code  Lc  Os_Ioc.o [17]
Os_IocIoc2Ioc32Send        0x2'4cdd    0x2  Code  Lc  Os_Ioc.o [17]
Os_IocIoc2IocRefMultiReceive
                           0x2'4cd7    0x2  Code  Lc  Os_Ioc.o [17]
Os_IocIoc2IocRefReceive
                           0x2'4ccf    0x2  Code  Lc  Os_Ioc.o [17]
Os_IocIoc2IocRefSend       0x2'4cdf    0x2  Code  Lc  Os_Ioc.o [17]
Os_IocIoc2IocWrite         0x2'4cc7    0x2  Code  Lc  Os_Ioc.o [17]
Os_IocIsEnabled            0x1'8c9b    0x4  Code  Lc  Os_Core.o [17]
Os_IocLock                 0x2'4eb5   0x3a  Code  Lc  Os_Ioc.o [17]
Os_IocMultiReceiveGetDyn
                           0x2'4ea9    0x4  Code  Lc  Os_Ioc.o [17]
Os_IocMultiReceiveInit     0x2'4ddd   0x16  Code  Lc  Os_Ioc.o [17]
Os_IocRead                 0x2'5bf3   0x44  Code  Gb  Os_Ioc.o [17]
Os_IocReceiveCloseChannel
                           0x2'4dd5    0x8  Code  Lc  Os_Ioc.o [17]
Os_IocReceiveGetDyn        0x2'4ead    0x4  Code  Lc  Os_Ioc.o [17]
Os_IocReceiveInit          0x2'4dbf   0x16  Code  Lc  Os_Ioc.o [17]
Os_IocRefEmptyMultiQueue
                           0x2'5af3   0x32  Code  Gb  Os_Ioc.o [17]
Os_IocRefEmptyQueue        0x2'5ac1   0x32  Code  Gb  Os_Ioc.o [17]
Os_IocRefMultiReceive      0x2'597d   0xda  Code  Gb  Os_Ioc.o [17]
Os_IocRefMultiReceiveInit
                           0x2'4e65   0x26  Code  Lc  Os_Ioc.o [17]
Os_IocRefReceive           0x2'5a57   0x6a  Code  Gb  Os_Ioc.o [17]
Os_IocRefReceiveInit       0x2'5955   0x14  Code  Lc  Os_Ioc.o [17]
Os_IocRefReceiveInternal
                           0x2'518b   0x76  Code  Lc  Os_Ioc.o [17]
Os_IocRefSend              0x2'5b25   0xa0  Code  Gb  Os_Ioc.o [17]
Os_IocRefSendInit          0x2'5969   0x14  Code  Lc  Os_Ioc.o [17]
Os_IocSendCloseChannel     0x2'4ea1    0x8  Code  Lc  Os_Ioc.o [17]
Os_IocSendGetDyn           0x2'4eb1    0x4  Code  Lc  Os_Ioc.o [17]
Os_IocSendInit             0x2'4e8b   0x16  Code  Lc  Os_Ioc.o [17]
Os_IocUnlock               0x2'4eef   0x3c  Code  Lc  Os_Ioc.o [17]
Os_IocWrite                0x2'5c37   0x4a  Code  Gb  Os_Ioc.o [17]
Os_IocWriteInit            0x2'5bc5   0x2e  Code  Lc  Os_Ioc.o [17]
Os_IsrCat1Disable          0x1'7b7f    0xa  Code  Lc  Os_Application.o [17]
Os_IsrCheckClearPendingSupported
                           0x1'6b1d   0x20  Code  Lc  Os_Isr.o [17]
Os_IsrCheckId              0x1'35f5   0x10  Code  Lc  Os_AccessCheck.o [17]
Os_IsrCheckId              0x1'7b63   0x10  Code  Lc  Os_Application.o [17]
Os_IsrCheckId              0x1'6b01   0x10  Code  Lc  Os_Isr.o [17]
Os_IsrCheckId              0x2'5da3   0x10  Code  Lc  Os_Stack.o [17]
Os_IsrDisable              0x1'7b75    0xa  Code  Lc  Os_Application.o [17]
Os_IsrEpilogue             0x1'6bf5   0xc0  Code  Gb  Os_Isr.o [17]
Os_IsrGetAccessRights      0x1'3607    0xc  Code  Lc  Os_AccessCheck.o [17]
Os_IsrGetDyn               0x1'6b13    0xa  Code  Lc  Os_Isr.o [17]
Os_IsrGetThread            0x1'3605    0x2  Code  Lc  Os_AccessCheck.o [17]
Os_IsrGetThread            0x1'7b73    0x2  Code  Lc  Os_Application.o [17]
Os_IsrGetThread            0x1'6b11    0x2  Code  Lc  Os_Isr.o [17]
Os_IsrGetThread            0x2'5db3    0x2  Code  Lc  Os_Stack.o [17]
Os_IsrHalIntLevel2CoreIntLevel
                           0x1'f44b    0x6  Code  Lc  Os_Resource.o [17]
Os_IsrId2Isr               0x1'35d9   0x1c  Code  Lc  Os_AccessCheck.o [17]
Os_IsrId2Isr               0x1'7b45   0x1e  Code  Lc  Os_Application.o [17]
Os_IsrId2Isr               0x1'6ad7   0x1c  Code  Lc  Os_Isr.o [17]
Os_IsrId2Isr               0x2'5d87   0x1c  Code  Lc  Os_Stack.o [17]
Os_IsrInit                 0x1'6b3d   0x28  Code  Gb  Os_Isr.o [17]
Os_IsrKill                 0x1'6f37   0x28  Code  Gb  Os_Isr.o [17]
Os_IsrLevelIsLe            0x1'f451    0xa  Code  Lc  Os_Resource.o [17]
Os_IsrRun                  0x1'6b65   0x90  Code  Gb  Os_Isr.o [17]
Os_IsrSuicide              0x1'7209    0x8  Code  Lc  Os_Thread.o [17]
Os_IsrThread2Isr           0x1'7b27   0x1e  Code  Lc  Os_Application.o [17]
Os_IsrThread2Isr           0x1'3819   0x1e  Code  Lc  Os_Error.o [17]
Os_IsrThread2Isr           0x1'6ab9   0x1e  Code  Lc  Os_Isr.o [17]
Os_IsrThread2Isr           0x1'f42d   0x1e  Code  Lc  Os_Resource.o [17]
Os_Isr_CanBusOffIsr_0      0x1'3579    0x8  Code  Gb  Can_Irq.o [6]
Os_Isr_CanMailboxIsr_0     0x1'3581    0x8  Code  Gb  Can_Irq.o [6]
Os_Isr_Core0_Interrupt_15
                              0x501         Code  Gb  Os_Hal_EntryAsm_Lcfg.o [2]
Os_Isr_Core0_Interrupt_94
                              0x547         Code  Gb  Os_Hal_EntryAsm_Lcfg.o [2]
Os_Isr_Core0_Interrupt_97
                              0x58d         Code  Gb  Os_Hal_EntryAsm_Lcfg.o [2]
Os_Isr_Core0_Interrupt_98
                              0x5d3         Code  Gb  Os_Hal_EntryAsm_Lcfg.o [2]
Os_Isr_Os_TimerPitIsr      0x2'85d3   0x46  Code  Gb  Os_Timer.o [17]
Os_JobAddAbs               0x2'2c0d    0xe  Code  Lc  Os_Alarm.o [17]
Os_JobAddAbs               0x2'35d9    0xe  Code  Lc  Os_ScheduleTable.o [17]
Os_JobAddRel               0x2'2bff    0xe  Code  Lc  Os_Alarm.o [17]
Os_JobAddRel               0x2'35cb    0xe  Code  Lc  Os_ScheduleTable.o [17]
Os_JobCheckAssignedToSameCounter
                           0x2'3607   0x18  Code  Lc  Os_ScheduleTable.o [17]
Os_JobCheckValueGeMinCycleOrZero
                           0x2'2c6b    0xa  Code  Lc  Os_Alarm.o [17]
Os_JobCheckValueLeMaxAllowed
                           0x2'2c61    0xa  Code  Lc  Os_Alarm.o [17]
Os_JobCheckValueLeMaxAllowed
                           0x2'35f3    0xa  Code  Lc  Os_ScheduleTable.o [17]
Os_JobCheckValueLeReducedMaxAllowed
                           0x2'35fd    0xa  Code  Lc  Os_ScheduleTable.o [17]
Os_JobDelete               0x2'2c29    0xc  Code  Lc  Os_Alarm.o [17]
Os_JobDelete               0x2'35e7    0xc  Code  Lc  Os_ScheduleTable.o [17]
Os_JobDo                   0x2'1979    0x8  Code  Lc  Os_Counter.o [17]
Os_JobGetCharacteristics
                           0x2'2c35    0xa  Code  Lc  Os_Alarm.o [17]
Os_JobGetCore              0x2'2c75    0xa  Code  Lc  Os_Alarm.o [17]
Os_JobGetCore              0x2'361f    0xa  Code  Lc  Os_ScheduleTable.o [17]
Os_JobGetDyn               0x2'2bfb    0x4  Code  Lc  Os_Alarm.o [17]
Os_JobGetDyn               0x2'35c7    0x4  Code  Lc  Os_ScheduleTable.o [17]
Os_JobGetExpirationTimestamp
                           0x2'2bf5    0x6  Code  Lc  Os_Alarm.o [17]
Os_JobGetExpirationTimestamp
                           0x2'196d    0x6  Code  Lc  Os_Counter.o [17]
Os_JobGetExpirationTimestamp
                           0x2'35c1    0x6  Code  Lc  Os_ScheduleTable.o [17]
Os_JobGetExpiryTime        0x2'2c3f   0x22  Code  Lc  Os_Alarm.o [17]
Os_JobGetValue             0x2'3629    0xa  Code  Lc  Os_ScheduleTable.o [17]
Os_JobPriorityCompare      0x2'8009   0x2a  Code  Lc  Os_PriorityQueue.o [17]
Os_JobReload               0x2'2c1b    0xe  Code  Lc  Os_Alarm.o [17]
Os_JobSetExpirationTimestamp
                           0x2'1973    0x6  Code  Lc  Os_Counter.o [17]
Os_JobSub                  0x2'3633    0xa  Code  Lc  Os_ScheduleTable.o [17]
Os_LockCheckIsAvailable
                           0x1'f509   0x1a  Code  Lc  Os_Resource.o [17]
Os_LockCheckIsOccupied     0x1'f523   0x1a  Code  Lc  Os_Resource.o [17]
Os_LockGetAccessingApplications
                           0x1'7bed    0x4  Code  Lc  Os_Application.o [17]
Os_LockGetAccessingApplications
                           0x1'f541    0x4  Code  Lc  Os_Resource.o [17]
Os_LockGetAccessingApplications
                           0x1'e35f    0x4  Code  Lc  Os_Spinlock.o [17]
Os_LockGetDyn              0x1'8c5b    0x4  Code  Lc  Os_Core.o [17]
Os_LockGetDyn              0x2'4715    0x4  Code  Lc  Os_Ioc.o [17]
Os_LockGetDyn              0x1'f53d    0x4  Code  Lc  Os_Resource.o [17]
Os_LockGetDyn              0x1'e35b    0x4  Code  Lc  Os_Spinlock.o [17]
Os_LockInit                0x1'8c51    0xa  Code  Lc  Os_Core.o [17]
Os_LockInit                0x1'f4d9    0xa  Code  Lc  Os_Resource.o [17]
Os_LockIsIntResource       0x1'f4e3   0x10  Code  Lc  Os_Resource.o [17]
Os_LockIsResource          0x2'6c93   0x16  Code  Lc  Os_Event.o [17]
Os_LockIsResource          0x1'5c4b   0x16  Code  Lc  Os_Isr.o [17]
Os_LockIsResource          0x1'f4f3   0x16  Code  Lc  Os_Resource.o [17]
Os_LockIsResource          0x1'42b3   0x16  Code  Lc  Os_Task.o [17]
Os_LockListCheckIsListTop
                           0x1'f4b3   0x16  Code  Lc  Os_Resource.o [17]
Os_LockListCheckIsListTop
                           0x1'e315   0x16  Code  Lc  Os_Spinlock.o [17]
Os_LockListCheckTopIsRes
                           0x1'f4c9    0xc  Code  Lc  Os_Resource.o [17]
Os_LockListCheckTopIsSpinlock
                           0x1'e34f    0xc  Code  Lc  Os_Spinlock.o [17]
Os_LockListDelete          0x1'e2cf   0x30  Code  Lc  Os_Spinlock.o [17]
Os_LockListGetTop          0x1'f4d5    0x4  Code  Lc  Os_Resource.o [17]
Os_LockListInit            0x1'9d77    0x6  Code  Lc  Os_Hook.o [17]
Os_LockListInit            0x1'5be5    0x6  Code  Lc  Os_Isr.o [17]
Os_LockListInit            0x1'424d    0x6  Code  Lc  Os_Task.o [17]
Os_LockListIsEmpty         0x2'6c39   0x10  Code  Lc  Os_Event.o [17]
Os_LockListIsEmpty         0x1'5bf1   0x10  Code  Lc  Os_Isr.o [17]
Os_LockListIsEmpty         0x1'f47d   0x10  Code  Lc  Os_Resource.o [17]
Os_LockListIsEmpty         0x1'e305   0x10  Code  Lc  Os_Spinlock.o [17]
Os_LockListIsEmpty         0x1'4259   0x10  Code  Lc  Os_Task.o [17]
Os_LockListIsTopRes        0x2'6c49   0x26  Code  Lc  Os_Event.o [17]
Os_LockListIsTopRes        0x1'5c01   0x26  Code  Lc  Os_Isr.o [17]
Os_LockListIsTopRes        0x1'f48d   0x26  Code  Lc  Os_Resource.o [17]
Os_LockListIsTopRes        0x1'4269   0x26  Code  Lc  Os_Task.o [17]
Os_LockListIsTopSpinlock
                           0x2'6c6f   0x24  Code  Lc  Os_Event.o [17]
Os_LockListIsTopSpinlock
                           0x1'5c27   0x24  Code  Lc  Os_Isr.o [17]
Os_LockListIsTopSpinlock
                           0x1'e32b   0x24  Code  Lc  Os_Spinlock.o [17]
Os_LockListIsTopSpinlock
                           0x1'428f   0x24  Code  Lc  Os_Task.o [17]
Os_LockListNext            0x2'6c33    0x6  Code  Lc  Os_Event.o [17]
Os_LockListNext            0x1'5beb    0x6  Code  Lc  Os_Isr.o [17]
Os_LockListNext            0x1'4253    0x6  Code  Lc  Os_Task.o [17]
Os_LockListNextIterator
                           0x1'f477    0x6  Code  Lc  Os_Resource.o [17]
Os_LockListNextIterator
                           0x1'e2ff    0x6  Code  Lc  Os_Spinlock.o [17]
Os_LockListPop             0x1'f465   0x12  Code  Lc  Os_Resource.o [17]
Os_LockListPop             0x1'e2bd   0x12  Code  Lc  Os_Spinlock.o [17]
Os_LockListPush            0x1'f45b    0xa  Code  Lc  Os_Resource.o [17]
Os_LockListPush            0x1'e2b3    0xa  Code  Lc  Os_Spinlock.o [17]
Os_MemFault                0x2'8749   0x3c  Code  Gb  Os_MemoryProtection.o [17]
Os_MpCoreInit              0x1'8c35   0x18  Code  Lc  Os_Core.o [17]
Os_MpIsEnabled             0x1'8c4d    0x4  Code  Lc  Os_Core.o [17]
Os_MpIsEnabled             0x2'109d    0x4  Code  Lc  Os_Hal_Context_v7m.o [17]
Os_MpIsEnabled             0x1'9b0f    0x4  Code  Lc  Os_Hook.o [17]
Os_MpIsEnabled             0x1'5b9b    0x4  Code  Lc  Os_Isr.o [17]
Os_MpIsEnabled             0x1'406b    0x4  Code  Lc  Os_Task.o [17]
Os_MpIsEnabled             0x1'c321    0x4  Code  Lc  Os_Trap.o [17]
Os_MpIsEnabledForApplications
                           0x1'7b8d    0x4  Code  Lc  Os_Application.o [17]
Os_MpIsEnabledForApplications
                           0x2'1985    0x4  Code  Lc  Os_Counter.o [17]
Os_MpIsEnabledForApplications
                           0x2'6bf7    0x4  Code  Lc  Os_Event.o [17]
Os_MpIsEnabledForApplications
                           0x1'9b17    0x4  Code  Lc  Os_Hook.o [17]
Os_MpIsEnabledForApplications
                           0x1'5ba3    0x4  Code  Lc  Os_Isr.o [17]
Os_MpIsEnabledForApplications
                           0x1'f21f    0x4  Code  Lc  Os_Resource.o [17]
Os_MpIsEnabledForApplications
                           0x2'035d    0x4  Code  Lc  Os_ServiceFunction.o [17]
Os_MpIsEnabledForApplications
                           0x1'e0a5    0x4  Code  Lc  Os_Spinlock.o [17]
Os_MpIsEnabledForApplications
                           0x1'4073    0x4  Code  Lc  Os_Task.o [17]
Os_MpIsEnabledForApplications
                           0x1'6f69    0x4  Code  Lc  Os_Thread.o [17]
Os_MpIsEnabledForApplications
                           0x1'c329    0x4  Code  Lc  Os_Trap.o [17]
Os_MpIsEnabledForThreads
                           0x1'7b91    0x4  Code  Lc  Os_Application.o [17]
Os_MpIsEnabledForThreads
                           0x2'1989    0x4  Code  Lc  Os_Counter.o [17]
Os_MpIsEnabledForThreads
                           0x2'6bfb    0x4  Code  Lc  Os_Event.o [17]
Os_MpIsEnabledForThreads
                           0x1'9b1b    0x4  Code  Lc  Os_Hook.o [17]
Os_MpIsEnabledForThreads
                           0x1'5ba7    0x4  Code  Lc  Os_Isr.o [17]
Os_MpIsEnabledForThreads
                           0x1'f223    0x4  Code  Lc  Os_Resource.o [17]
Os_MpIsEnabledForThreads
                           0x2'0361    0x4  Code  Lc  Os_ServiceFunction.o [17]
Os_MpIsEnabledForThreads
                           0x1'e0a9    0x4  Code  Lc  Os_Spinlock.o [17]
Os_MpIsEnabledForThreads
                           0x1'4077    0x4  Code  Lc  Os_Task.o [17]
Os_MpIsEnabledForThreads
                           0x1'6f6d    0x4  Code  Lc  Os_Thread.o [17]
Os_MpIsEnabledForThreads
                           0x1'c32d    0x4  Code  Lc  Os_Trap.o [17]
Os_MpIsEnabledForTrusted
                           0x1'7b89    0x4  Code  Lc  Os_Application.o [17]
Os_MpIsEnabledForTrusted
                           0x2'1981    0x4  Code  Lc  Os_Counter.o [17]
Os_MpIsEnabledForTrusted
                           0x2'6bf3    0x4  Code  Lc  Os_Event.o [17]
Os_MpIsEnabledForTrusted
                           0x1'9b13    0x4  Code  Lc  Os_Hook.o [17]
Os_MpIsEnabledForTrusted
                           0x1'5b9f    0x4  Code  Lc  Os_Isr.o [17]
Os_MpIsEnabledForTrusted
                           0x1'f21b    0x4  Code  Lc  Os_Resource.o [17]
Os_MpIsEnabledForTrusted
                           0x2'0359    0x4  Code  Lc  Os_ServiceFunction.o [17]
Os_MpIsEnabledForTrusted
                           0x1'e0a1    0x4  Code  Lc  Os_Spinlock.o [17]
Os_MpIsEnabledForTrusted
                           0x1'406f    0x4  Code  Lc  Os_Task.o [17]
Os_MpIsEnabledForTrusted
                           0x1'6f65    0x4  Code  Lc  Os_Thread.o [17]
Os_MpIsEnabledForTrusted
                           0x1'c325    0x4  Code  Lc  Os_Trap.o [17]
Os_MpSwitch                0x1'7b95   0x34  Code  Lc  Os_Application.o [17]
Os_MpSwitch                0x2'198d   0x34  Code  Lc  Os_Counter.o [17]
Os_MpSwitch                0x2'6bff   0x34  Code  Lc  Os_Event.o [17]
Os_MpSwitch                0x1'9b1f   0x34  Code  Lc  Os_Hook.o [17]
Os_MpSwitch                0x1'5bab   0x34  Code  Lc  Os_Isr.o [17]
Os_MpSwitch                0x1'f227   0x34  Code  Lc  Os_Resource.o [17]
Os_MpSwitch                0x2'0365   0x34  Code  Lc  Os_ServiceFunction.o [17]
Os_MpSwitch                0x1'e0ad   0x34  Code  Lc  Os_Spinlock.o [17]
Os_MpSwitch                0x1'407b   0x34  Code  Lc  Os_Task.o [17]
Os_MpSwitch                0x1'6f71   0x34  Code  Lc  Os_Thread.o [17]
Os_MpSwitchTo              0x1'9b53   0x2a  Code  Lc  Os_Hook.o [17]
Os_MpSwitchTo              0x1'c331   0x2a  Code  Lc  Os_Trap.o [17]
Os_MpSystemInit            0x1'8c21   0x14  Code  Lc  Os_Core.o [17]
Os_MpThreadInit            0x1'9afd   0x12  Code  Lc  Os_Hook.o [17]
Os_MpThreadInit            0x1'5b89   0x12  Code  Lc  Os_Isr.o [17]
Os_MpThreadInit            0x1'4059   0x12  Code  Lc  Os_Task.o [17]
Os_MpTrustedSwitchTo       0x1'c35b   0x18  Code  Lc  Os_Trap.o [17]
Os_PanicHook               0x1'35a9   0x18  Code  Gb  Os_Callout_Stubs.o [4]
Os_PeripheralCheck         0x2'7c4d   0x68  Code  Lc  Os_Peripheral.o [17]
Os_PeripheralCheck08       0x2'7cb5   0x1e  Code  Lc  Os_Peripheral.o [17]
Os_PeripheralCheck16       0x2'7cd3   0x1e  Code  Lc  Os_Peripheral.o [17]
Os_PeripheralCheck32       0x2'7cf1   0x1e  Code  Lc  Os_Peripheral.o [17]
Os_PeripheralCheckAddressRange08
                           0x2'7d3b    0xe  Code  Lc  Os_Peripheral.o [17]
Os_PeripheralCheckAddressRange16
                           0x2'7d49    0xe  Code  Lc  Os_Peripheral.o [17]
Os_PeripheralCheckAddressRange32
                           0x2'7d57    0xe  Code  Lc  Os_Peripheral.o [17]
Os_PeripheralCheckId       0x2'7d0f   0x10  Code  Lc  Os_Peripheral.o [17]
Os_PeripheralId2Peripheral
                           0x2'7c29   0x1c  Code  Lc  Os_Peripheral.o [17]
Os_PeripheralIsInAddressRange
                           0x2'7d1f   0x1c  Code  Lc  Os_Peripheral.o [17]
Os_PriorityQueueDelete     0x2'8223   0x66  Code  Gb  Os_PriorityQueue.o [17]
Os_PriorityQueueDeleteTop
                           0x2'81e9   0x3a  Code  Gb  Os_PriorityQueue.o [17]
Os_PriorityQueueHeapDown
                           0x2'8123   0x80  Code  Lc  Os_PriorityQueue.o [17]
Os_PriorityQueueHeapUp     0x2'80d7   0x4c  Code  Lc  Os_PriorityQueue.o [17]
Os_PriorityQueueInit       0x2'81a3    0x8  Code  Gb  Os_PriorityQueue.o [17]
Os_PriorityQueueInsert     0x2'81ab   0x3e  Code  Gb  Os_PriorityQueue.o [17]
Os_PriorityQueueParentIndex
                           0x2'80bb   0x1c  Code  Lc  Os_PriorityQueue.o [17]
Os_PriorityQueueSiblingIndex
                           0x2'80b3    0x8  Code  Lc  Os_PriorityQueue.o [17]
Os_PriorityQueueTopGet     0x2'1de9   0x12  Code  Lc  Os_Counter.o [17]
Os_Resource2ResourceInterrupt
                           0x2'00ad   0x1e  Code  Lc  Os_Resource.o [17]
Os_ResourceBaseIsCeilingPrioGe
                           0x1'ff79   0x28  Code  Lc  Os_Resource.o [17]
Os_ResourceCheckId         0x1'7bf1   0x10  Code  Lc  Os_Application.o [17]
Os_ResourceCheckId         0x1'feeb   0x10  Code  Lc  Os_Resource.o [17]
Os_ResourceCheckPrio       0x1'ff45    0xc  Code  Lc  Os_Resource.o [17]
Os_ResourceForceReleaseLocal
                           0x2'0041   0x6c  Code  Lc  Os_Resource.o [17]
Os_ResourceForciblyReleaseLocks
                           0x2'00d3   0x36  Code  Gb  Os_Resource.o [17]
Os_ResourceGetAccessingApplications
                           0x1'7c1f    0x8  Code  Lc  Os_Application.o [17]
Os_ResourceGetAccessingApplications
                           0x1'ff25    0x8  Code  Lc  Os_Resource.o [17]
Os_ResourceGetDyn          0x1'ff2d    0x8  Code  Lc  Os_Resource.o [17]
Os_ResourceId2Resource     0x1'7c01   0x1e  Code  Lc  Os_Application.o [17]
Os_ResourceId2Resource     0x1'fefb   0x1c  Code  Lc  Os_Resource.o [17]
Os_ResourceInit            0x2'00cb    0x8  Code  Gb  Os_Resource.o [17]
Os_ResourceInterruptGetDyn
                           0x1'ff35    0x8  Code  Lc  Os_Resource.o [17]
Os_ResourceInterruptIsCeilingPrioGe
                           0x1'ffa1   0x2a  Code  Lc  Os_Resource.o [17]
Os_ResourceInterruptSaveAndIncrease
                           0x2'002b   0x14  Code  Lc  Os_Resource.o [17]
Os_ResourceIsCeilingPrioGe
                           0x1'ff51   0x28  Code  Lc  Os_Resource.o [17]
Os_ResourceIsIntResource
                           0x1'ff3d    0x8  Code  Lc  Os_Resource.o [17]
Os_ResourceLock2Resource
                           0x2'003f    0x2  Code  Lc  Os_Resource.o [17]
Os_ResourceRestore         0x1'fffb   0x30  Code  Lc  Os_Resource.o [17]
Os_ResourceSaveAndIncrease
                           0x1'ffcb   0x30  Code  Lc  Os_Resource.o [17]
Os_SchTCheckId             0x1'7955   0x10  Code  Lc  Os_Application.o [17]
Os_SchTCheckId             0x2'3907   0x10  Code  Lc  Os_ScheduleTable.o [17]
Os_SchTCheckIsNotNexted
                           0x2'3c9d   0x16  Code  Lc  Os_ScheduleTable.o [17]
Os_SchTCheckIsNotStopped
                           0x2'3c87   0x16  Code  Lc  Os_ScheduleTable.o [17]
Os_SchTCheckIsNotSynchronizedImplicitly
                           0x2'3cc9   0x16  Code  Lc  Os_ScheduleTable.o [17]
Os_SchTCheckIsNotWaiting
                           0x2'3cb3   0x16  Code  Lc  Os_ScheduleTable.o [17]
Os_SchTCheckIsNotZero      0x2'3cff    0x8  Code  Lc  Os_ScheduleTable.o [17]
Os_SchTCheckIsStopped      0x2'3c71   0x16  Code  Lc  Os_ScheduleTable.o [17]
Os_SchTCheckIsSynchronizedExplicitly
                           0x2'3cdf    0xc  Code  Lc  Os_ScheduleTable.o [17]
Os_SchTCheckUpperBound     0x2'3ceb   0x14  Code  Lc  Os_ScheduleTable.o [17]
Os_SchTGetAccessingApplications
                           0x1'7987    0x4  Code  Lc  Os_Application.o [17]
Os_SchTGetAccessingApplications
                           0x2'3945    0x4  Code  Lc  Os_ScheduleTable.o [17]
Os_SchTGetApplication      0x1'7983    0x4  Code  Lc  Os_Application.o [17]
Os_SchTGetCore             0x2'393d    0x8  Code  Lc  Os_ScheduleTable.o [17]
Os_SchTGetDyn              0x2'3b61    0x8  Code  Lc  Os_ScheduleTable.o [17]
Os_SchTGetInitialOffset
                           0x2'3e8b    0x6  Code  Lc  Os_ScheduleTable.o [17]
Os_SchTGetScheduleTableStatus
                           0x2'39b7   0x66  Code  Lc  Os_ScheduleTable.o [17]
Os_SchTHasNextScheduleTable
                           0x2'3c51   0x20  Code  Lc  Os_ScheduleTable.o [17]
Os_SchTId2SchT             0x1'7965   0x1e  Code  Lc  Os_Application.o [17]
Os_SchTId2SchT             0x2'3917   0x1c  Code  Lc  Os_ScheduleTable.o [17]
Os_SchTInit                0x2'44b9   0x40  Code  Gb  Os_ScheduleTable.o [17]
Os_SchTIsSynchronizedExplicit
                           0x2'3c29   0x10  Code  Lc  Os_ScheduleTable.o [17]
Os_SchTIsSynchronous       0x2'3c39   0x18  Code  Lc  Os_ScheduleTable.o [17]
Os_SchTKill                0x2'44f9   0x48  Code  Gb  Os_ScheduleTable.o [17]
Os_SchTNextScheduleTable
                           0x2'3a63   0x8e  Code  Lc  Os_ScheduleTable.o [17]
Os_SchTReinit              0x2'3d23   0x7c  Code  Lc  Os_ScheduleTable.o [17]
Os_SchTReinitNonSync       0x2'3d07   0x1c  Code  Lc  Os_ScheduleTable.o [17]
Os_SchTStartAbsolute       0x2'3e6d   0x14  Code  Lc  Os_ScheduleTable.o [17]
Os_SchTStartRelative       0x2'3e59   0x14  Code  Lc  Os_ScheduleTable.o [17]
Os_SchTStartScheduleTableAbs
                           0x2'3a1d   0x46  Code  Lc  Os_ScheduleTable.o [17]
Os_SchTStartScheduleTableRel
                           0x2'3949   0x6e  Code  Lc  Os_ScheduleTable.o [17]
Os_SchTStartSynchronous
                           0x2'3e81    0xa  Code  Lc  Os_ScheduleTable.o [17]
Os_SchTStopScheduleTable
                           0x2'3af1   0x70  Code  Lc  Os_ScheduleTable.o [17]
Os_SchTSyncAddAndMod       0x2'3ded   0x10  Code  Lc  Os_ScheduleTable.o [17]
Os_SchTSyncFull2HalfRange
                           0x2'3e37   0x10  Code  Lc  Os_ScheduleTable.o [17]
Os_SchTSyncGet             0x2'3b69    0x2  Code  Lc  Os_ScheduleTable.o [17]
Os_SchTSyncGetDyn          0x2'3b6b    0x8  Code  Lc  Os_ScheduleTable.o [17]
Os_SchTSyncMod             0x2'3ddf    0xe  Code  Lc  Os_ScheduleTable.o [17]
Os_SchTSyncScheduleTable
                           0x2'3bc9   0x60  Code  Lc  Os_ScheduleTable.o [17]
Os_SchTSyncSub             0x2'3e47   0x12  Code  Lc  Os_ScheduleTable.o [17]
Os_SchTSyncSubAndModHalfRange
                           0x2'3dfd   0x3a  Code  Lc  Os_ScheduleTable.o [17]
Os_SchTSyncUpdateDeviation
                           0x2'3b73   0x56  Code  Lc  Os_ScheduleTable.o [17]
Os_SchTSyncUpdateSyncStatus
                           0x2'3d9f   0x40  Code  Lc  Os_ScheduleTable.o [17]
Os_SchedulerDecreasePrio
                           0x2'1823   0x50  Code  Gb  Os_Scheduler.o [17]
Os_SchedulerDeleteTask     0x2'15e3   0x30  Code  Lc  Os_Scheduler.o [17]
Os_SchedulerDequeueTask
                           0x2'15b7   0x2c  Code  Lc  Os_Scheduler.o [17]
Os_SchedulerGetCurrentTask
                           0x2'1577    0x6  Code  Lc  Os_Scheduler.o [17]
Os_SchedulerGetCurrentTask
                           0x1'42d7    0x6  Code  Lc  Os_Task.o [17]
Os_SchedulerIncreasePrio
                           0x2'17bf   0x64  Code  Gb  Os_Scheduler.o [17]
Os_SchedulerInit           0x2'16a1   0x48  Code  Gb  Os_Scheduler.o [17]
Os_SchedulerInsert         0x2'16e9   0x44  Code  Gb  Os_Scheduler.o [17]
Os_SchedulerInternalSchedule
                           0x2'1873   0x56  Code  Gb  Os_Scheduler.o [17]
Os_SchedulerPriority2Deque
                           0x2'1593   0x24  Code  Lc  Os_Scheduler.o [17]
Os_SchedulerPriorityIsHigher
                           0x1'f5f9    0xe  Code  Lc  Os_Resource.o [17]
Os_SchedulerPriorityIsHigher
                           0x2'1569    0xe  Code  Lc  Os_Scheduler.o [17]
Os_SchedulerPriorityIsHigher
                           0x1'e44f    0xe  Code  Lc  Os_Spinlock.o [17]
Os_SchedulerPriorityIsHigherOrEqual
                           0x1'f607    0xe  Code  Lc  Os_Resource.o [17]
Os_SchedulerPriorityIsHigherOrEqual
                           0x1'e45d    0xe  Code  Lc  Os_Spinlock.o [17]
Os_SchedulerPriorityIsHigherOrEqual
                           0x1'42c9    0xe  Code  Lc  Os_Task.o [17]
Os_SchedulerPriorityIsLower
                           0x1'e46b   0x14  Code  Lc  Os_Spinlock.o [17]
Os_SchedulerReleaseRunningPrio
                           0x2'18c9   0x58  Code  Gb  Os_Scheduler.o [17]
Os_SchedulerRemoveCurrentTask
                           0x2'172d   0x50  Code  Gb  Os_Scheduler.o [17]
Os_SchedulerRemoveTaskAll
                           0x2'177d   0x42  Code  Gb  Os_Scheduler.o [17]
Os_SchedulerSchedule       0x2'1613   0x24  Code  Lc  Os_Scheduler.o [17]
Os_SchedulerTaskMoveDown
                           0x2'1637   0x1c  Code  Lc  Os_Scheduler.o [17]
Os_SchedulerTaskMoveUp     0x2'1653   0x4e  Code  Lc  Os_Scheduler.o [17]
Os_SchedulerTaskSwitchIsNeeded
                           0x1'7d11   0x16  Code  Lc  Os_Application.o [17]
Os_SchedulerTaskSwitchIsNeeded
                           0x2'1dfb   0x16  Code  Lc  Os_Counter.o [17]
Os_SchedulerTaskSwitchIsNeeded
                           0x2'6d5d   0x16  Code  Lc  Os_Event.o [17]
Os_SchedulerTaskSwitchIsNeeded
                           0x1'9f01   0x16  Code  Lc  Os_Hook.o [17]
Os_SchedulerTaskSwitchIsNeeded
                           0x1'5db5   0x16  Code  Lc  Os_Isr.o [17]
Os_SchedulerTaskSwitchIsNeeded
                           0x1'f615   0x16  Code  Lc  Os_Resource.o [17]
Os_SchedulerTaskSwitchIsNeeded
                           0x2'157d   0x16  Code  Lc  Os_Scheduler.o [17]
Os_SchedulerTaskSwitchIsNeeded
                           0x1'e47f   0x16  Code  Lc  Os_Spinlock.o [17]
Os_SchedulerTaskSwitchIsNeeded
                           0x1'42dd   0x16  Code  Lc  Os_Task.o [17]
Os_Service2Ntf             0x2'0c31   0x12  Code  Lc  Os_ServiceFunction.o [17]
Os_ServiceCall2NtfCall     0x2'0c43   0x1c  Code  Lc  Os_ServiceFunction.o [17]
Os_ServiceCallForceRelease
                           0x2'0f51   0x42  Code  Gb  Os_ServiceFunction.o [17]
Os_ServiceCallsInit        0x1'9b7d    0x6  Code  Lc  Os_Hook.o [17]
Os_ServiceCallsInit        0x1'5bdf    0x6  Code  Lc  Os_Isr.o [17]
Os_ServiceCallsInit        0x2'0b15    0x6  Code  Lc  Os_ServiceFunction.o [17]
Os_ServiceCallsInit        0x1'40df    0x6  Code  Lc  Os_Task.o [17]
Os_ServiceCheckFtfId       0x2'0b6b    0xc  Code  Lc  Os_ServiceFunction.o [17]
Os_ServiceCheckIsAccessible
                           0x2'0b77   0x28  Code  Lc  Os_ServiceFunction.o [17]
Os_ServiceCheckNtfId       0x2'0b5f    0xc  Code  Lc  Os_ServiceFunction.o [17]
Os_ServiceCheckTfId        0x2'0b53    0xc  Code  Lc  Os_ServiceFunction.o [17]
Os_ServiceEpilogue         0x2'0cb3   0x2a  Code  Lc  Os_ServiceFunction.o [17]
Os_ServiceFtfCall          0x2'0ed5   0x12  Code  Lc  Os_ServiceFunction.o [17]
Os_ServiceFtfId2Ftf        0x2'0bed   0x1c  Code  Lc  Os_ServiceFunction.o [17]
Os_ServiceInit             0x1'7bd1   0x1c  Code  Lc  Os_Application.o [17]
Os_ServiceInitInternal     0x2'0ee7   0x1a  Code  Gb  Os_ServiceFunction.o [17]
Os_ServiceIsNtf            0x2'0c21   0x10  Code  Lc  Os_ServiceFunction.o [17]
Os_ServiceNtfCall          0x2'0e19   0xbc  Code  Lc  Os_ServiceFunction.o [17]
Os_ServiceNtfId2Ntf        0x2'0bd1   0x1c  Code  Lc  Os_ServiceFunction.o [17]
Os_ServiceNtfInit          0x2'0f01   0x14  Code  Lc  Os_ServiceFunction.o [17]
Os_ServiceNtfIsEnabled     0x1'7bc9    0x4  Code  Lc  Os_Application.o [17]
Os_ServiceNtfIsEnabled     0x2'0b11    0x4  Code  Lc  Os_ServiceFunction.o [17]
Os_ServicePrologue         0x2'0c6f   0x44  Code  Lc  Os_ServiceFunction.o [17]
Os_ServiceReturn           0x2'0f15   0x3c  Code  Gb  Os_ServiceFunction.o [17]
Os_ServiceStackPoolCheckIsAllowedToGet
                           0x2'0b9f   0x16  Code  Lc  Os_ServiceFunction.o [17]
Os_ServiceStackPoolGetStack
                           0x2'0cdd   0x56  Code  Lc  Os_ServiceFunction.o [17]
Os_ServiceStackPoolInit
                           0x2'0b1b   0x38  Code  Gb  Os_ServiceFunction.o [17]
Os_ServiceStackPoolReleaseStack
                           0x2'0d33   0x26  Code  Lc  Os_ServiceFunction.o [17]
Os_ServiceTfCall           0x2'0d59   0xc0  Code  Lc  Os_ServiceFunction.o [17]
Os_ServiceTfId2Tf          0x2'0bb5   0x1c  Code  Lc  Os_ServiceFunction.o [17]
Os_ServiceTfIsEnabled      0x1'7bcd    0x4  Code  Lc  Os_Application.o [17]
Os_ServiceTfNeedsModeSwitch
                           0x2'0c5f   0x10  Code  Lc  Os_ServiceFunction.o [17]
Os_SpinlockCheckId         0x1'7c27   0x10  Code  Lc  Os_Application.o [17]
Os_SpinlockCheckIsLockOrderValid
                           0x1'ef4d    0xc  Code  Lc  Os_Spinlock.o [17]
Os_SpinlockCheckIsNotLockedLocal
                           0x1'eee1    0xc  Code  Lc  Os_Spinlock.o [17]
Os_SpinlockCheckThreadIsOwner
                           0x1'ef0d   0x18  Code  Lc  Os_Spinlock.o [17]
Os_SpinlockForciblyReleaseThreadLocks
                           0x1'ef5d   0x66  Code  Gb  Os_Spinlock.o [17]
Os_SpinlockGet             0x1'efc3   0x8e  Code  Gb  Os_Spinlock.o [17]
Os_SpinlockGetAccessingApplications
                           0x1'7c55    0x8  Code  Lc  Os_Application.o [17]
Os_SpinlockGetAccessingApplications
                           0x1'ebe9    0x8  Code  Lc  Os_Spinlock.o [17]
Os_SpinlockGetDyn          0x1'8c7f    0x8  Code  Lc  Os_Core.o [17]
Os_SpinlockGetDyn          0x2'4719    0x8  Code  Lc  Os_Ioc.o [17]
Os_SpinlockGetDyn          0x1'ebb7    0x8  Code  Lc  Os_Spinlock.o [17]
Os_SpinlockGetSpinlockIdCount
                           0x1'ef59    0x4  Code  Lc  Os_Spinlock.o [17]
Os_SpinlockId2Spinlock     0x1'7c37   0x1e  Code  Lc  Os_Application.o [17]
Os_SpinlockId2Spinlock     0x1'ebbf   0x1c  Code  Lc  Os_Spinlock.o [17]
Os_SpinlockInit            0x1'8c5f   0x20  Code  Lc  Os_Core.o [17]
Os_SpinlockInternalGet     0x2'4721   0x30  Code  Lc  Os_Ioc.o [17]
Os_SpinlockInternalGet     0x1'ebf1   0x30  Code  Lc  Os_Spinlock.o [17]
Os_SpinlockInternalRelease
                           0x2'479f   0x5a  Code  Lc  Os_Ioc.o [17]
Os_SpinlockInternalRelease
                           0x1'ec6f   0x5a  Code  Lc  Os_Spinlock.o [17]
Os_SpinlockInternalTryGet
                           0x2'4751   0x4e  Code  Lc  Os_Ioc.o [17]
Os_SpinlockInternalTryGet
                           0x1'ec21   0x4e  Code  Lc  Os_Spinlock.o [17]
Os_SpinlockIsEnabled       0x1'ebb3    0x4  Code  Lc  Os_Spinlock.o [17]
Os_SpinlockIsLockOrderValid
                           0x1'ef25   0x28  Code  Lc  Os_Spinlock.o [17]
Os_SpinlockIsNotLockedLocal
                           0x1'eeb3   0x2e  Code  Lc  Os_Spinlock.o [17]
Os_SpinlockIsOwnerThread
                           0x1'eeed   0x20  Code  Lc  Os_Spinlock.o [17]
Os_SpinlockListInit        0x1'9d7d    0x6  Code  Lc  Os_Hook.o [17]
Os_SpinlockListInit        0x1'5c61    0x6  Code  Lc  Os_Isr.o [17]
Os_SpinlockListInit        0x1'42f3    0x6  Code  Lc  Os_Task.o [17]
Os_SpinlockListPop         0x1'ee8d   0x26  Code  Lc  Os_Spinlock.o [17]
Os_SpinlockListPush        0x1'ee61   0x2c  Code  Lc  Os_Spinlock.o [17]
Os_SpinlockRelease         0x1'f051   0x9c  Code  Gb  Os_Spinlock.o [17]
Os_SpinlockResumeByMethod
                           0x1'ed41   0x84  Code  Lc  Os_Spinlock.o [17]
Os_SpinlockSuspendByMethod
                           0x1'ecc9   0x78  Code  Lc  Os_Spinlock.o [17]
Os_SpinlockTraceOwnerGet
                           0x1'edc5   0x30  Code  Lc  Os_Spinlock.o [17]
Os_SpinlockTraceOwnerRelease
                           0x1'edf5   0x30  Code  Lc  Os_Spinlock.o [17]
Os_SpinlockTraceOwnerTryGet
                           0x1'ee25   0x3c  Code  Lc  Os_Spinlock.o [17]
Os_SpinlockTryGet          0x1'f0ed   0xaa  Code  Gb  Os_Spinlock.o [17]
Os_StackFill               0x2'6085   0x4e  Code  Lc  Os_Stack.o [17]
Os_StackGetUsageLocal      0x2'60d3   0x3c  Code  Lc  Os_Stack.o [17]
Os_StackInit               0x1'8e71   0x14  Code  Lc  Os_Core.o [17]
Os_StackInitInternal       0x2'610f   0x12  Code  Gb  Os_Stack.o [17]
Os_StackIsMeasurementEnabled
                           0x2'604b    0x4  Code  Lc  Os_Stack.o [17]
Os_StackIsModuleEnabled
                           0x1'8e6d    0x4  Code  Lc  Os_Core.o [17]
Os_StackIsMonitoringEnabled
                           0x1'81a9    0x4  Code  Lc  Os_Application.o [17]
Os_StackIsMonitoringEnabled
                           0x2'22ed    0x4  Code  Lc  Os_Counter.o [17]
Os_StackIsMonitoringEnabled
                           0x2'748f    0x4  Code  Lc  Os_Event.o [17]
Os_StackIsMonitoringEnabled
                           0x1'a605    0x4  Code  Lc  Os_Hook.o [17]
Os_StackIsMonitoringEnabled
                           0x1'668d    0x4  Code  Lc  Os_Isr.o [17]
Os_StackIsMonitoringEnabled
                           0x1'fd65    0x4  Code  Lc  Os_Resource.o [17]
Os_StackIsMonitoringEnabled
                           0x1'ea47    0x4  Code  Lc  Os_Spinlock.o [17]
Os_StackIsMonitoringEnabled
                           0x2'604f    0x4  Code  Lc  Os_Stack.o [17]
Os_StackIsMonitoringEnabled
                           0x1'40af    0x4  Code  Lc  Os_Task.o [17]
Os_StackIsMonitoringEnabled
                           0x1'6fa5    0x4  Code  Lc  Os_Thread.o [17]
Os_StackIsPartOfStack      0x2'6053   0x16  Code  Lc  Os_Stack.o [17]
Os_StackMonitoringInit     0x2'6069   0x1c  Code  Lc  Os_Stack.o [17]
Os_StackOverflowCheck      0x1'81ad   0x2c  Code  Lc  Os_Application.o [17]
Os_StackOverflowCheck      0x2'22f1   0x2c  Code  Lc  Os_Counter.o [17]
Os_StackOverflowCheck      0x2'7493   0x2c  Code  Lc  Os_Event.o [17]
Os_StackOverflowCheck      0x1'a609   0x2c  Code  Lc  Os_Hook.o [17]
Os_StackOverflowCheck      0x1'6691   0x2c  Code  Lc  Os_Isr.o [17]
Os_StackOverflowCheck      0x1'fd69   0x2c  Code  Lc  Os_Resource.o [17]
Os_StackOverflowCheck      0x1'ea4b   0x2c  Code  Lc  Os_Spinlock.o [17]
Os_StackOverflowCheck      0x1'40b3   0x2c  Code  Lc  Os_Task.o [17]
Os_StackOverflowCheck      0x1'6fa9   0x2c  Code  Lc  Os_Thread.o [17]
Os_SystemGet               0x2'2f9d    0x4  Code  Lc  Os_Alarm.o [17]
Os_SystemGet               0x1'7e53    0x6  Code  Lc  Os_Application.o [17]
Os_SystemGet               0x2'6549    0x4  Code  Lc  Os_Barrier.o [17]
Os_SystemGet               0x1'906d    0x6  Code  Lc  Os_Core.o [17]
Os_SystemGet               0x2'1eed    0x6  Code  Lc  Os_Counter.o [17]
Os_SystemGet               0x1'3951    0x6  Code  Lc  Os_Error.o [17]
Os_SystemGet               0x2'6e43    0x6  Code  Lc  Os_Event.o [17]
Os_SystemGet               0x1'a047    0x4  Code  Lc  Os_Hook.o [17]
Os_SystemGet               0x1'b9f7    0x4  Code  Lc  Os_Interrupt.o [17]
Os_SystemGet               0x2'489b    0x4  Code  Lc  Os_Ioc.o [17]
Os_SystemGet               0x1'5f85    0x6  Code  Lc  Os_Isr.o [17]
Os_SystemGet               0x2'7b8d    0x4  Code  Lc  Os_Peripheral.o [17]
Os_SystemGet               0x1'f707    0x6  Code  Lc  Os_Resource.o [17]
Os_SystemGet               0x2'378b    0x4  Code  Lc  Os_ScheduleTable.o [17]
Os_SystemGet               0x2'0603    0x6  Code  Lc  Os_ServiceFunction.o [17]
Os_SystemGet               0x1'e53d    0x6  Code  Lc  Os_Spinlock.o [17]
Os_SystemGet               0x2'5ff1    0x4  Code  Lc  Os_Stack.o [17]
Os_SystemGet               0x1'4a73    0x6  Code  Lc  Os_Task.o [17]
Os_SystemGet               0x1'7585    0x4  Code  Lc  Os_Thread.o [17]
Os_SystemGet               0x2'834f    0x4  Code  Lc  Os_Timer.o [17]
Os_SystemGet               0x1'c47d    0x4  Code  Lc  Os_Trap.o [17]
Os_SystemGetCore2Thread
                           0x2'2fa1    0x4  Code  Lc  Os_Alarm.o [17]
Os_SystemGetCore2Thread
                           0x1'7e59    0x4  Code  Lc  Os_Application.o [17]
Os_SystemGetCore2Thread
                           0x2'6555    0x4  Code  Lc  Os_Barrier.o [17]
Os_SystemGetCore2Thread
                           0x1'9073    0x4  Code  Lc  Os_Core.o [17]
Os_SystemGetCore2Thread
                           0x2'1ef3    0x4  Code  Lc  Os_Counter.o [17]
Os_SystemGetCore2Thread
                           0x1'3957    0x4  Code  Lc  Os_Error.o [17]
Os_SystemGetCore2Thread
                           0x2'6e49    0x4  Code  Lc  Os_Event.o [17]
Os_SystemGetCore2Thread
                           0x1'a059    0x4  Code  Lc  Os_Hook.o [17]
Os_SystemGetCore2Thread
                           0x1'ba05    0x4  Code  Lc  Os_Interrupt.o [17]
Os_SystemGetCore2Thread
                           0x2'48a9    0x4  Code  Lc  Os_Ioc.o [17]
Os_SystemGetCore2Thread
                           0x1'5f9d    0x4  Code  Lc  Os_Isr.o [17]
Os_SystemGetCore2Thread
                           0x2'7b91    0x4  Code  Lc  Os_Peripheral.o [17]
Os_SystemGetCore2Thread
                           0x1'f70d    0x4  Code  Lc  Os_Resource.o [17]
Os_SystemGetCore2Thread
                           0x2'378f    0x4  Code  Lc  Os_ScheduleTable.o [17]
Os_SystemGetCore2Thread
                           0x2'0609    0x4  Code  Lc  Os_ServiceFunction.o [17]
Os_SystemGetCore2Thread
                           0x1'e543    0x4  Code  Lc  Os_Spinlock.o [17]
Os_SystemGetCore2Thread
                           0x2'5ff5    0x4  Code  Lc  Os_Stack.o [17]
Os_SystemGetCore2Thread
                           0x1'4a79    0x4  Code  Lc  Os_Task.o [17]
Os_SystemGetCore2Thread
                           0x1'7595    0x4  Code  Lc  Os_Thread.o [17]
Os_SystemGetCore2Thread
                           0x2'8353    0x4  Code  Lc  Os_Timer.o [17]
Os_SystemGetCore2Thread
                           0x1'c489    0x4  Code  Lc  Os_Trap.o [17]
Os_SystemInit              0x1'915d   0xa0  Code  Lc  Os_Core.o [17]
Os_SystemInterruptHandlingInit
                           0x1'9561   0x1c  Code  Lc  Os_Core.o [17]
Os_SystemShutdown          0x1'93f7   0x5c  Code  Gb  Os_Core.o [17]
Os_TaskActivateLocalTask
                           0x1'524f   0x94  Code  Gb  Os_Task.o [17]
Os_TaskActivateRestartTask
                           0x1'52e3   0x76  Code  Gb  Os_Task.o [17]
Os_TaskBeginScheduling     0x1'a5a3   0x62  Code  Lc  Os_Hook.o [17]
Os_TaskCallPostTaskHook
                           0x1'816b   0x3e  Code  Lc  Os_Application.o [17]
Os_TaskCallPostTaskHook
                           0x2'22af   0x3e  Code  Lc  Os_Counter.o [17]
Os_TaskCallPostTaskHook
                           0x2'7451   0x3e  Code  Lc  Os_Event.o [17]
Os_TaskCallPostTaskHook
                           0x1'a565   0x3e  Code  Lc  Os_Hook.o [17]
Os_TaskCallPostTaskHook
                           0x1'664f   0x3e  Code  Lc  Os_Isr.o [17]
Os_TaskCallPostTaskHook
                           0x1'fd27   0x3e  Code  Lc  Os_Resource.o [17]
Os_TaskCallPostTaskHook
                           0x1'ea09   0x3e  Code  Lc  Os_Spinlock.o [17]
Os_TaskCallPostTaskHook
                           0x1'5017   0x3e  Code  Lc  Os_Task.o [17]
Os_TaskCallPostTaskHook
                           0x1'740f   0x3e  Code  Lc  Os_Thread.o [17]
Os_TaskCallPreTaskHook     0x1'5847   0x3e  Code  Gb  Os_Task.o [17]
Os_TaskCheckId             0x1'363b   0x10  Code  Lc  Os_AccessCheck.o [17]
Os_TaskCheckId             0x1'810d   0x10  Code  Lc  Os_Application.o [17]
Os_TaskCheckId             0x2'7321   0x10  Code  Lc  Os_Event.o [17]
Os_TaskCheckId             0x2'603b   0x10  Code  Lc  Os_Stack.o [17]
Os_TaskCheckId             0x1'4f1b   0x10  Code  Lc  Os_Task.o [17]
Os_TaskCheckIsActivationAllowed
                           0x1'5071    0xa  Code  Lc  Os_Task.o [17]
Os_TaskCheckIsExtendedTask
                           0x2'7331   0x18  Code  Lc  Os_Event.o [17]
Os_TaskCheckIsNotSuspended
                           0x2'7349   0x1c  Code  Lc  Os_Event.o [17]
Os_TaskCheckIsScheduleAllowed
                           0x1'5059   0x18  Code  Lc  Os_Task.o [17]
Os_TaskGetAccessRights     0x1'364b    0xc  Code  Lc  Os_AccessCheck.o [17]
Os_TaskGetAccessingApplications
                           0x1'8109    0x4  Code  Lc  Os_Application.o [17]
Os_TaskGetAccessingApplications
                           0x2'72eb    0x4  Code  Lc  Os_Event.o [17]
Os_TaskGetAccessingApplications
                           0x1'4eef    0x4  Code  Lc  Os_Task.o [17]
Os_TaskGetCore             0x2'65d3    0xc  Code  Lc  Os_Barrier.o [17]
Os_TaskGetCore             0x2'7309    0xc  Code  Lc  Os_Event.o [17]
Os_TaskGetCore             0x1'4f03    0xc  Code  Lc  Os_Task.o [17]
Os_TaskGetDyn              0x1'80ff    0xa  Code  Lc  Os_Application.o [17]
Os_TaskGetDyn              0x2'2257    0xa  Code  Lc  Os_Counter.o [17]
Os_TaskGetDyn              0x2'72cd    0xa  Code  Lc  Os_Event.o [17]
Os_TaskGetDyn              0x1'fcb1    0xa  Code  Lc  Os_Resource.o [17]
Os_TaskGetDyn              0x2'1541    0xa  Code  Lc  Os_Scheduler.o [17]
Os_TaskGetDyn              0x1'e9a7    0xa  Code  Lc  Os_Spinlock.o [17]
Os_TaskGetDyn              0x1'4eb9    0xa  Code  Lc  Os_Task.o [17]
Os_TaskGetEvent            0x2'72ff    0xa  Code  Lc  Os_Event.o [17]
Os_TaskGetHomePriority     0x1'fcc5    0x4  Code  Lc  Os_Resource.o [17]
Os_TaskGetHomePriority     0x2'1565    0x4  Code  Lc  Os_Scheduler.o [17]
Os_TaskGetHomePriority     0x1'4ee1    0x4  Code  Lc  Os_Task.o [17]
Os_TaskGetId               0x2'2e75    0x6  Code  Lc  Os_Alarm.o [17]
Os_TaskGetId               0x2'72e5    0x6  Code  Lc  Os_Event.o [17]
Os_TaskGetId               0x1'4ee5    0x6  Code  Lc  Os_Task.o [17]
Os_TaskGetMaxActivations
                           0x1'4eeb    0x4  Code  Lc  Os_Task.o [17]
Os_TaskGetPriority         0x1'fcbb    0xa  Code  Lc  Os_Resource.o [17]
Os_TaskGetPriority         0x2'154b    0xa  Code  Lc  Os_Scheduler.o [17]
Os_TaskGetPriority         0x1'e9b1    0xa  Code  Lc  Os_Spinlock.o [17]
Os_TaskGetRunningPriority
                           0x2'1561    0x4  Code  Lc  Os_Scheduler.o [17]
Os_TaskGetRunningPriority
                           0x1'4edd    0x4  Code  Lc  Os_Task.o [17]
Os_TaskGetScheduler        0x2'72ef   0x10  Code  Lc  Os_Event.o [17]
Os_TaskGetScheduler        0x1'a4f9   0x10  Code  Lc  Os_Hook.o [17]
Os_TaskGetScheduler        0x1'65e3   0x10  Code  Lc  Os_Isr.o [17]
Os_TaskGetScheduler        0x1'fcc9   0x10  Code  Lc  Os_Resource.o [17]
Os_TaskGetScheduler        0x1'4ef3   0x10  Code  Lc  Os_Task.o [17]
Os_TaskGetScheduler        0x1'73b1   0x10  Code  Lc  Os_Thread.o [17]
Os_TaskGetStateInternal
                           0x1'56b5   0x36  Code  Gb  Os_Task.o [17]
Os_TaskGetStateLocal       0x1'4fbf   0x50  Code  Lc  Os_Task.o [17]
Os_TaskGetThread           0x1'3639    0x2  Code  Lc  Os_AccessCheck.o [17]
Os_TaskGetThread           0x1'80df    0x2  Code  Lc  Os_Application.o [17]
Os_TaskGetThread           0x2'65b3    0x2  Code  Lc  Os_Barrier.o [17]
Os_TaskGetThread           0x1'8e6b    0x2  Code  Lc  Os_Core.o [17]
Os_TaskGetThread           0x2'2237    0x2  Code  Lc  Os_Counter.o [17]
Os_TaskGetThread           0x2'72ad    0x2  Code  Lc  Os_Event.o [17]
Os_TaskGetThread           0x1'a4d9    0x2  Code  Lc  Os_Hook.o [17]
Os_TaskGetThread           0x1'65c3    0x2  Code  Lc  Os_Isr.o [17]
Os_TaskGetThread           0x1'fc91    0x2  Code  Lc  Os_Resource.o [17]
Os_TaskGetThread           0x2'153f    0x2  Code  Lc  Os_Scheduler.o [17]
Os_TaskGetThread           0x1'e987    0x2  Code  Lc  Os_Spinlock.o [17]
Os_TaskGetThread           0x2'6039    0x2  Code  Lc  Os_Stack.o [17]
Os_TaskGetThread           0x1'4e99    0x2  Code  Lc  Os_Task.o [17]
Os_TaskGetThread           0x1'7391    0x2  Code  Lc  Os_Thread.o [17]
Os_TaskId2Task             0x1'3613   0x1c  Code  Lc  Os_AccessCheck.o [17]
Os_TaskId2Task             0x1'80c1   0x1e  Code  Lc  Os_Application.o [17]
Os_TaskId2Task             0x2'7285   0x1c  Code  Lc  Os_Event.o [17]
Os_TaskId2Task             0x2'600b   0x1c  Code  Lc  Os_Stack.o [17]
Os_TaskId2Task             0x1'4e6d   0x1c  Code  Lc  Os_Task.o [17]
Os_TaskIdleTaskInit        0x1'5615   0x2c  Code  Gb  Os_Task.o [17]
Os_TaskInit                0x1'55bf   0x56  Code  Gb  Os_Task.o [17]
Os_TaskInternalInit        0x1'50b7   0xbe  Code  Lc  Os_Task.o [17]
Os_TaskIsCoreLocal         0x2'7315    0xc  Code  Lc  Os_Event.o [17]
Os_TaskIsCoreLocal         0x1'4f0f    0xc  Code  Lc  Os_Task.o [17]
Os_TaskIsPostTaskHookEnabled
                           0x1'8165    0x4  Code  Lc  Os_Application.o [17]
Os_TaskIsPostTaskHookEnabled
                           0x2'22a9    0x4  Code  Lc  Os_Counter.o [17]
Os_TaskIsPostTaskHookEnabled
                           0x2'744b    0x4  Code  Lc  Os_Event.o [17]
Os_TaskIsPostTaskHookEnabled
                           0x1'a55f    0x4  Code  Lc  Os_Hook.o [17]
Os_TaskIsPostTaskHookEnabled
                           0x1'6649    0x4  Code  Lc  Os_Isr.o [17]
Os_TaskIsPostTaskHookEnabled
                           0x1'fd21    0x4  Code  Lc  Os_Resource.o [17]
Os_TaskIsPostTaskHookEnabled
                           0x1'ea03    0x4  Code  Lc  Os_Spinlock.o [17]
Os_TaskIsPostTaskHookEnabled
                           0x1'500f    0x4  Code  Lc  Os_Task.o [17]
Os_TaskIsPostTaskHookEnabled
                           0x1'7409    0x4  Code  Lc  Os_Thread.o [17]
Os_TaskIsPreTaskHookEnabled
                           0x1'5055    0x4  Code  Lc  Os_Task.o [17]
Os_TaskIsSuspended         0x1'4f2b   0x18  Code  Lc  Os_Task.o [17]
Os_TaskIsWaiting           0x2'7365   0x18  Code  Lc  Os_Event.o [17]
Os_TaskKill                0x1'56eb   0x64  Code  Gb  Os_Task.o [17]
Os_TaskKillAll             0x1'5641   0x74  Code  Gb  Os_Task.o [17]
Os_TaskLeaveWaitingState
                           0x2'740b   0x40  Code  Lc  Os_Event.o [17]
Os_TaskMissingTerminateTask
                           0x1'5805   0x42  Code  Gb  Os_Task.o [17]
Os_TaskPostTaskHook        0x1'8169    0x2  Code  Lc  Os_Application.o [17]
Os_TaskPostTaskHook        0x2'22ad    0x2  Code  Lc  Os_Counter.o [17]
Os_TaskPostTaskHook        0x2'744f    0x2  Code  Lc  Os_Event.o [17]
Os_TaskPostTaskHook        0x1'a563    0x2  Code  Lc  Os_Hook.o [17]
Os_TaskPostTaskHook        0x1'664d    0x2  Code  Lc  Os_Isr.o [17]
Os_TaskPostTaskHook        0x1'fd25    0x2  Code  Lc  Os_Resource.o [17]
Os_TaskPostTaskHook        0x1'ea07    0x2  Code  Lc  Os_Spinlock.o [17]
Os_TaskPostTaskHook        0x1'5015    0x2  Code  Lc  Os_Task.o [17]
Os_TaskPostTaskHook        0x1'740d    0x2  Code  Lc  Os_Thread.o [17]
Os_TaskPreTaskHook         0x1'5013    0x2  Code  Lc  Os_Task.o [17]
Os_TaskReset               0x1'507b   0x3c  Code  Lc  Os_Task.o [17]
Os_TaskResume              0x1'4f8b   0x34  Code  Lc  Os_Task.o [17]
Os_TaskResume              0x1'73c1   0x34  Code  Lc  Os_Thread.o [17]
Os_TaskReturnToTaskLevel
                           0x1'a509   0x56  Code  Lc  Os_Hook.o [17]
Os_TaskReturnToTaskLevel
                           0x1'65f3   0x56  Code  Lc  Os_Isr.o [17]
Os_TaskSetPriority         0x2'1555    0xc  Code  Lc  Os_Scheduler.o [17]
Os_TaskSetPriority         0x1'4ed1    0xc  Code  Lc  Os_Task.o [17]
Os_TaskSetState            0x2'72d7    0xe  Code  Lc  Os_Event.o [17]
Os_TaskSetState            0x1'4ec3    0xe  Code  Lc  Os_Task.o [17]
Os_TaskSuicide             0x1'73f5   0x14  Code  Lc  Os_Thread.o [17]
Os_TaskSwitch              0x1'811d   0x48  Code  Lc  Os_Application.o [17]
Os_TaskSwitch              0x2'2261   0x48  Code  Lc  Os_Counter.o [17]
Os_TaskSwitch              0x2'737d   0x48  Code  Lc  Os_Event.o [17]
Os_TaskSwitch              0x1'fcd9   0x48  Code  Lc  Os_Resource.o [17]
Os_TaskSwitch              0x1'e9bb   0x48  Code  Lc  Os_Spinlock.o [17]
Os_TaskSwitch              0x1'4f43   0x48  Code  Lc  Os_Task.o [17]
Os_TaskThread2Task         0x1'80e1   0x1e  Code  Lc  Os_Application.o [17]
Os_TaskThread2Task         0x2'65b5   0x1e  Code  Lc  Os_Barrier.o [17]
Os_TaskThread2Task         0x2'2239   0x1e  Code  Lc  Os_Counter.o [17]
Os_TaskThread2Task         0x2'72af   0x1e  Code  Lc  Os_Event.o [17]
Os_TaskThread2Task         0x1'a4db   0x1e  Code  Lc  Os_Hook.o [17]
Os_TaskThread2Task         0x1'65c5   0x1e  Code  Lc  Os_Isr.o [17]
Os_TaskThread2Task         0x1'fc93   0x1e  Code  Lc  Os_Resource.o [17]
Os_TaskThread2Task         0x1'e989   0x1e  Code  Lc  Os_Spinlock.o [17]
Os_TaskThread2Task         0x1'4e9b   0x1e  Code  Lc  Os_Task.o [17]
Os_TaskThread2Task         0x1'7393   0x1e  Code  Lc  Os_Thread.o [17]
Os_TaskWait                0x2'73c5   0x46  Code  Lc  Os_Event.o [17]
Os_Task_Default_Init_Task
                              0x629   0x24  Code  Gb  BrsAsrMain.o [1]
Os_Task_OsTask_APP           0x27f9   0x40  Code  Gb  Rte.o [2]
Os_Task_OsTask_BSW_SCHM
                             0x2839   0x80  Code  Gb  Rte.o [2]
Os_Task_Os_IdleTask        0x1'94c7    0x8  Code  Gb  Os_Core.o [17]
Os_ThreadAllThreadsUseFpu
                           0x1'8335    0x4  Code  Lc  Os_Application.o [17]
Os_ThreadAllThreadsUseFpu
                           0x2'2457    0x4  Code  Lc  Os_Counter.o [17]
Os_ThreadAllThreadsUseFpu
                           0x2'7689    0x4  Code  Lc  Os_Event.o [17]
Os_ThreadAllThreadsUseFpu
                           0x1'aa1d    0x4  Code  Lc  Os_Hook.o [17]
Os_ThreadAllThreadsUseFpu
                           0x1'6aad    0x4  Code  Lc  Os_Isr.o [17]
Os_ThreadAllThreadsUseFpu
                           0x1'fee3    0x4  Code  Lc  Os_Resource.o [17]
Os_ThreadAllThreadsUseFpu
                           0x2'0891    0x4  Code  Lc  Os_ServiceFunction.o [17]
Os_ThreadAllThreadsUseFpu
                           0x1'ebab    0x4  Code  Lc  Os_Spinlock.o [17]
Os_ThreadAllThreadsUseFpu
                           0x1'4e65    0x4  Code  Lc  Os_Task.o [17]
Os_ThreadAllThreadsUseFpu
                           0x1'774f    0x4  Code  Lc  Os_Thread.o [17]
Os_ThreadCallContext       0x2'07e1   0x70  Code  Lc  Os_ServiceFunction.o [17]
Os_ThreadCallContextOnStack
                           0x2'0769   0x78  Code  Lc  Os_ServiceFunction.o [17]
Os_ThreadCallPreThreadHook
                           0x1'82d3   0x14  Code  Lc  Os_Application.o [17]
Os_ThreadCallPreThreadHook
                           0x2'23f5   0x14  Code  Lc  Os_Counter.o [17]
Os_ThreadCallPreThreadHook
                           0x2'7627   0x14  Code  Lc  Os_Event.o [17]
Os_ThreadCallPreThreadHook
                           0x1'a97b   0x14  Code  Lc  Os_Hook.o [17]
Os_ThreadCallPreThreadHook
                           0x1'6a0b   0x14  Code  Lc  Os_Isr.o [17]
Os_ThreadCallPreThreadHook
                           0x1'fe81   0x14  Code  Lc  Os_Resource.o [17]
Os_ThreadCallPreThreadHook
                           0x1'eb49   0x14  Code  Lc  Os_Spinlock.o [17]
Os_ThreadCallPreThreadHook
                           0x1'4de1   0x14  Code  Lc  Os_Task.o [17]
Os_ThreadCallPreThreadHook
                           0x1'76e1   0x14  Code  Lc  Os_Thread.o [17]
Os_ThreadCheckAreInterruptsEnabled
                           0x2'2ea5    0xc  Code  Lc  Os_Alarm.o [17]
Os_ThreadCheckAreInterruptsEnabled
                           0x1'8253    0xc  Code  Lc  Os_Application.o [17]
Os_ThreadCheckAreInterruptsEnabled
                           0x1'8ec7    0xc  Code  Lc  Os_Core.o [17]
Os_ThreadCheckAreInterruptsEnabled
                           0x2'2375    0xc  Code  Lc  Os_Counter.o [17]
Os_ThreadCheckAreInterruptsEnabled
                           0x2'75a7    0xc  Code  Lc  Os_Event.o [17]
Os_ThreadCheckAreInterruptsEnabled
                           0x1'67df    0xc  Code  Lc  Os_Isr.o [17]
Os_ThreadCheckAreInterruptsEnabled
                           0x1'fe01    0xc  Code  Lc  Os_Resource.o [17]
Os_ThreadCheckAreInterruptsEnabled
                           0x2'38b1    0xc  Code  Lc  Os_ScheduleTable.o [17]
Os_ThreadCheckAreInterruptsEnabled
                           0x1'4bc3    0xc  Code  Lc  Os_Task.o [17]
Os_ThreadCheckCallContext
                           0x2'2e89   0x16  Code  Lc  Os_Alarm.o [17]
Os_ThreadCheckCallContext
                           0x1'8233   0x16  Code  Lc  Os_Application.o [17]
Os_ThreadCheckCallContext
                           0x2'6601   0x16  Code  Lc  Os_Barrier.o [17]
Os_ThreadCheckCallContext
                           0x1'8eab   0x16  Code  Lc  Os_Core.o [17]
Os_ThreadCheckCallContext
                           0x2'2359   0x16  Code  Lc  Os_Counter.o [17]
Os_ThreadCheckCallContext
                           0x1'3a0b   0x16  Code  Lc  Os_Error.o [17]
Os_ThreadCheckCallContext
                           0x2'74fb   0x16  Code  Lc  Os_Event.o [17]
Os_ThreadCheckCallContext
                           0x1'6719   0x16  Code  Lc  Os_Isr.o [17]
Os_ThreadCheckCallContext
                           0x2'7b9b   0x16  Code  Lc  Os_Peripheral.o [17]
Os_ThreadCheckCallContext
                           0x1'fde5   0x16  Code  Lc  Os_Resource.o [17]
Os_ThreadCheckCallContext
                           0x2'3895   0x16  Code  Lc  Os_ScheduleTable.o [17]
Os_ThreadCheckCallContext
                           0x2'073b   0x16  Code  Lc  Os_ServiceFunction.o [17]
Os_ThreadCheckCallContext
                           0x1'eab9   0x16  Code  Lc  Os_Spinlock.o [17]
Os_ThreadCheckCallContext
                           0x1'4b17   0x16  Code  Lc  Os_Task.o [17]
Os_ThreadCheckCallContext
                           0x1'afe3   0x16  Code  Lc  Os_XSignal.o [17]
Os_ThreadCheckIsCurrentApplication
                           0x1'672f   0x1a  Code  Lc  Os_Isr.o [17]
Os_ThreadCheckResourcesReleased
                           0x2'7577   0x18  Code  Lc  Os_Event.o [17]
Os_ThreadCheckResourcesReleased
                           0x1'67af   0x18  Code  Lc  Os_Isr.o [17]
Os_ThreadCheckResourcesReleased
                           0x1'4b93   0x18  Code  Lc  Os_Task.o [17]
Os_ThreadCheckSpinlocksReleased
                           0x2'758f   0x18  Code  Lc  Os_Event.o [17]
Os_ThreadCheckSpinlocksReleased
                           0x1'67c7   0x18  Code  Lc  Os_Isr.o [17]
Os_ThreadCheckSpinlocksReleased
                           0x1'4bab   0x18  Code  Lc  Os_Task.o [17]
Os_ThreadClassInit         0x1'8ed3   0x14  Code  Lc  Os_Core.o [17]
Os_ThreadCleanupAndResume
                           0x1'a77b   0x94  Code  Lc  Os_Hook.o [17]
Os_ThreadCleanupAndResume
                           0x1'687f   0x94  Code  Lc  Os_Isr.o [17]
Os_ThreadGetAccessRights
                           0x1'3657    0x4  Code  Lc  Os_AccessCheck.o [17]
Os_ThreadGetContext        0x1'8e89    0x4  Code  Lc  Os_Core.o [17]
Os_ThreadGetCore           0x2'2e7f    0x4  Code  Lc  Os_Alarm.o [17]
Os_ThreadGetCore           0x1'81e5    0x4  Code  Lc  Os_Application.o [17]
Os_ThreadGetCore           0x2'65df    0x4  Code  Lc  Os_Barrier.o [17]
Os_ThreadGetCore           0x1'8e91    0x4  Code  Lc  Os_Core.o [17]
Os_ThreadGetCore           0x2'2329    0x4  Code  Lc  Os_Counter.o [17]
Os_ThreadGetCore           0x1'39bd    0x4  Code  Lc  Os_Error.o [17]
Os_ThreadGetCore           0x2'74cb    0x4  Code  Lc  Os_Event.o [17]
Os_ThreadGetCore           0x1'a647    0x4  Code  Lc  Os_Hook.o [17]
Os_ThreadGetCore           0x1'bd79    0x4  Code  Lc  Os_Interrupt.o [17]
Os_ThreadGetCore           0x1'66cf    0x4  Code  Lc  Os_Isr.o [17]
Os_ThreadGetCore           0x1'fda5    0x4  Code  Lc  Os_Resource.o [17]
Os_ThreadGetCore           0x2'388b    0x4  Code  Lc  Os_ScheduleTable.o [17]
Os_ThreadGetCore           0x2'0731    0x4  Code  Lc  Os_ServiceFunction.o [17]
Os_ThreadGetCore           0x1'ea89    0x4  Code  Lc  Os_Spinlock.o [17]
Os_ThreadGetCore           0x2'6007    0x4  Code  Lc  Os_Stack.o [17]
Os_ThreadGetCore           0x1'4ae7    0x4  Code  Lc  Os_Task.o [17]
Os_ThreadGetCore           0x1'760d    0x4  Code  Lc  Os_Thread.o [17]
Os_ThreadGetCore           0x1'c4a3    0x4  Code  Lc  Os_Trap.o [17]
Os_ThreadGetCore           0x1'afd9    0x4  Code  Lc  Os_XSignal.o [17]
Os_ThreadGetCurrentApplication
                           0x2'2e9f    0x6  Code  Lc  Os_Alarm.o [17]
Os_ThreadGetCurrentApplication
                           0x1'824d    0x6  Code  Lc  Os_Application.o [17]
Os_ThreadGetCurrentApplication
                           0x1'8ec1    0x6  Code  Lc  Os_Core.o [17]
Os_ThreadGetCurrentApplication
                           0x2'236f    0x6  Code  Lc  Os_Counter.o [17]
Os_ThreadGetCurrentApplication
                           0x1'3a25    0x6  Code  Lc  Os_Error.o [17]
Os_ThreadGetCurrentApplication
                           0x2'7515    0x6  Code  Lc  Os_Event.o [17]
Os_ThreadGetCurrentApplication
                           0x2'4913    0x6  Code  Lc  Os_Ioc.o [17]
Os_ThreadGetCurrentApplication
                           0x1'674d    0x6  Code  Lc  Os_Isr.o [17]
Os_ThreadGetCurrentApplication
                           0x2'7bb1    0x6  Code  Lc  Os_Peripheral.o [17]
Os_ThreadGetCurrentApplication
                           0x1'fdfb    0x6  Code  Lc  Os_Resource.o [17]
Os_ThreadGetCurrentApplication
                           0x2'38ab    0x6  Code  Lc  Os_ScheduleTable.o [17]
Os_ThreadGetCurrentApplication
                           0x2'0751    0x6  Code  Lc  Os_ServiceFunction.o [17]
Os_ThreadGetCurrentApplication
                           0x1'eacf    0x6  Code  Lc  Os_Spinlock.o [17]
Os_ThreadGetCurrentApplication
                           0x1'4b31    0x6  Code  Lc  Os_Task.o [17]
Os_ThreadGetCurrentApplication
                           0x1'c4a7    0x6  Code  Lc  Os_Trap.o [17]
Os_ThreadGetCurrentApplication
                           0x1'aff9    0x6  Code  Lc  Os_XSignal.o [17]
Os_ThreadGetCurrentType
                           0x2'2e83    0x6  Code  Lc  Os_Alarm.o [17]
Os_ThreadGetCurrentType
                           0x1'81e9    0x6  Code  Lc  Os_Application.o [17]
Os_ThreadGetCurrentType
                           0x2'65e3    0x6  Code  Lc  Os_Barrier.o [17]
Os_ThreadGetCurrentType
                           0x1'8e95    0x6  Code  Lc  Os_Core.o [17]
Os_ThreadGetCurrentType
                           0x2'232d    0x6  Code  Lc  Os_Counter.o [17]
Os_ThreadGetCurrentType
                           0x1'39c1    0x6  Code  Lc  Os_Error.o [17]
Os_ThreadGetCurrentType
                           0x2'74cf    0x6  Code  Lc  Os_Event.o [17]
Os_ThreadGetCurrentType
                           0x1'66d3    0x6  Code  Lc  Os_Isr.o [17]
Os_ThreadGetCurrentType
                           0x2'7b95    0x6  Code  Lc  Os_Peripheral.o [17]
Os_ThreadGetCurrentType
                           0x1'fda9    0x6  Code  Lc  Os_Resource.o [17]
Os_ThreadGetCurrentType
                           0x2'388f    0x6  Code  Lc  Os_ScheduleTable.o [17]
Os_ThreadGetCurrentType
                           0x2'0735    0x6  Code  Lc  Os_ServiceFunction.o [17]
Os_ThreadGetCurrentType
                           0x1'ea8d    0x6  Code  Lc  Os_Spinlock.o [17]
Os_ThreadGetCurrentType
                           0x1'4aeb    0x6  Code  Lc  Os_Task.o [17]
Os_ThreadGetCurrentType
                           0x1'afdd    0x6  Code  Lc  Os_XSignal.o [17]
Os_ThreadGetInitialType
                           0x1'81ef    0x4  Code  Lc  Os_Application.o [17]
Os_ThreadGetInitialType
                           0x1'7611    0x4  Code  Lc  Os_Thread.o [17]
Os_ThreadGetInterruptApiState
                           0x2'2e7b    0x4  Code  Lc  Os_Alarm.o [17]
Os_ThreadGetInterruptApiState
                           0x1'81e1    0x4  Code  Lc  Os_Application.o [17]
Os_ThreadGetInterruptApiState
                           0x1'8e8d    0x4  Code  Lc  Os_Core.o [17]
Os_ThreadGetInterruptApiState
                           0x2'2325    0x4  Code  Lc  Os_Counter.o [17]
Os_ThreadGetInterruptApiState
                           0x2'74c7    0x4  Code  Lc  Os_Event.o [17]
Os_ThreadGetInterruptApiState
                           0x1'a643    0x4  Code  Lc  Os_Hook.o [17]
Os_ThreadGetInterruptApiState
                           0x1'bd75    0x4  Code  Lc  Os_Interrupt.o [17]
Os_ThreadGetInterruptApiState
                           0x1'66cb    0x4  Code  Lc  Os_Isr.o [17]
Os_ThreadGetInterruptApiState
                           0x1'fda1    0x4  Code  Lc  Os_Resource.o [17]
Os_ThreadGetInterruptApiState
                           0x2'3887    0x4  Code  Lc  Os_ScheduleTable.o [17]
Os_ThreadGetInterruptApiState
                           0x1'4ae3    0x4  Code  Lc  Os_Task.o [17]
Os_ThreadGetLocks          0x1'fd95    0x4  Code  Lc  Os_Resource.o [17]
Os_ThreadGetLocks          0x1'ea77    0x4  Code  Lc  Os_Spinlock.o [17]
Os_ThreadGetMpAccessRights
                           0x2'075d    0x6  Code  Lc  Os_ServiceFunction.o [17]
Os_ThreadGetMpAccessRights
                           0x1'c4ad    0x6  Code  Lc  Os_Trap.o [17]
Os_ThreadGetOwnerApplication
                           0x1'8249    0x4  Code  Lc  Os_Application.o [17]
Os_ThreadGetOwnerApplication
                           0x1'3a21    0x4  Code  Lc  Os_Error.o [17]
Os_ThreadGetOwnerApplication
                           0x2'7511    0x4  Code  Lc  Os_Event.o [17]
Os_ThreadGetOwnerApplication
                           0x1'a685    0x4  Code  Lc  Os_Hook.o [17]
Os_ThreadGetOwnerApplication
                           0x1'6749    0x4  Code  Lc  Os_Isr.o [17]
Os_ThreadGetOwnerApplication
                           0x1'4b2d    0x4  Code  Lc  Os_Task.o [17]
Os_ThreadGetServiceCalls
                           0x2'0721    0x6  Code  Lc  Os_ServiceFunction.o [17]
Os_ThreadGetSpinlocks      0x1'a635    0x6  Code  Lc  Os_Hook.o [17]
Os_ThreadGetSpinlocks      0x1'66bd    0x6  Code  Lc  Os_Isr.o [17]
Os_ThreadGetSpinlocks      0x1'ea7b    0x6  Code  Lc  Os_Spinlock.o [17]
Os_ThreadGetSpinlocks      0x1'4ad5    0x6  Code  Lc  Os_Task.o [17]
Os_ThreadGetStack          0x2'6003    0x4  Code  Lc  Os_Stack.o [17]
Os_ThreadGetTpConfig       0x1'81dd    0x4  Code  Lc  Os_Application.o [17]
Os_ThreadGetTpConfig       0x1'8e85    0x4  Code  Lc  Os_Core.o [17]
Os_ThreadGetTpConfig       0x2'2321    0x4  Code  Lc  Os_Counter.o [17]
Os_ThreadGetTpConfig       0x2'74c3    0x4  Code  Lc  Os_Event.o [17]
Os_ThreadGetTpConfig       0x1'a63f    0x4  Code  Lc  Os_Hook.o [17]
Os_ThreadGetTpConfig       0x1'bd71    0x4  Code  Lc  Os_Interrupt.o [17]
Os_ThreadGetTpConfig       0x1'66c7    0x4  Code  Lc  Os_Isr.o [17]
Os_ThreadGetTpConfig       0x1'fd9d    0x4  Code  Lc  Os_Resource.o [17]
Os_ThreadGetTpConfig       0x2'072d    0x4  Code  Lc  Os_ServiceFunction.o [17]
Os_ThreadGetTpConfig       0x1'ea85    0x4  Code  Lc  Os_Spinlock.o [17]
Os_ThreadGetTpConfig       0x1'4adf    0x4  Code  Lc  Os_Task.o [17]
Os_ThreadGetTpConfig       0x1'7609    0x4  Code  Lc  Os_Thread.o [17]
Os_ThreadGetTpConfig       0x1'b50f    0x4  Code  Lc  Os_TimingProtection.o [17]
Os_ThreadGetTrace          0x1'81d9    0x4  Code  Lc  Os_Application.o [17]
Os_ThreadGetTrace          0x2'231d    0x4  Code  Lc  Os_Counter.o [17]
Os_ThreadGetTrace          0x2'74bf    0x4  Code  Lc  Os_Event.o [17]
Os_ThreadGetTrace          0x1'a63b    0x4  Code  Lc  Os_Hook.o [17]
Os_ThreadGetTrace          0x1'66c3    0x4  Code  Lc  Os_Isr.o [17]
Os_ThreadGetTrace          0x1'fd99    0x4  Code  Lc  Os_Resource.o [17]
Os_ThreadGetTrace          0x1'ea81    0x4  Code  Lc  Os_Spinlock.o [17]
Os_ThreadGetTrace          0x1'4adb    0x4  Code  Lc  Os_Task.o [17]
Os_ThreadGetTrace          0x1'7605    0x4  Code  Lc  Os_Thread.o [17]
Os_ThreadHasResourcesLocked
                           0x2'751b   0x2e  Code  Lc  Os_Event.o [17]
Os_ThreadHasResourcesLocked
                           0x1'6753   0x2e  Code  Lc  Os_Isr.o [17]
Os_ThreadHasResourcesLocked
                           0x1'4b37   0x2e  Code  Lc  Os_Task.o [17]
Os_ThreadHasSpinlockLocked
                           0x2'7549   0x2e  Code  Lc  Os_Event.o [17]
Os_ThreadHasSpinlockLocked
                           0x1'6781   0x2e  Code  Lc  Os_Isr.o [17]
Os_ThreadHasSpinlockLocked
                           0x1'4b65   0x2e  Code  Lc  Os_Task.o [17]
Os_ThreadInit              0x1'a6b1   0x6c  Code  Lc  Os_Hook.o [17]
Os_ThreadInit              0x1'6813   0x6c  Code  Lc  Os_Isr.o [17]
Os_ThreadInit              0x1'4bf7   0x6c  Code  Lc  Os_Task.o [17]
Os_ThreadInit2             0x1'8ee7    0x8  Code  Lc  Os_Core.o [17]
Os_ThreadInitFpu           0x1'a9b1   0x1e  Code  Lc  Os_Hook.o [17]
Os_ThreadInitFpu           0x1'6a41   0x1e  Code  Lc  Os_Isr.o [17]
Os_ThreadInitFpu           0x2'0851   0x1e  Code  Lc  Os_ServiceFunction.o [17]
Os_ThreadInitFpuContext
                           0x1'a98f   0x22  Code  Lc  Os_Hook.o [17]
Os_ThreadInitFpuContext
                           0x1'6a1f   0x22  Code  Lc  Os_Isr.o [17]
Os_ThreadInitFpuContext
                           0x1'4df5   0x22  Code  Lc  Os_Task.o [17]
Os_ThreadInitFpuContext
                           0x1'76f5   0x22  Code  Lc  Os_Thread.o [17]
Os_ThreadIsAnyInitialContext
                           0x1'3a01    0xa  Code  Lc  Os_Error.o [17]
Os_ThreadIsAnyInitialContext
                           0x1'a671    0xa  Code  Lc  Os_Hook.o [17]
Os_ThreadIsAnyInitialContext
                           0x1'670f    0xa  Code  Lc  Os_Isr.o [17]
Os_ThreadIsFpuContextEnabled
                           0x1'8339    0x4  Code  Lc  Os_Application.o [17]
Os_ThreadIsFpuContextEnabled
                           0x1'8eef    0x4  Code  Lc  Os_Core.o [17]
Os_ThreadIsFpuContextEnabled
                           0x2'245b    0x4  Code  Lc  Os_Counter.o [17]
Os_ThreadIsFpuContextEnabled
                           0x2'768d    0x4  Code  Lc  Os_Event.o [17]
Os_ThreadIsFpuContextEnabled
                           0x1'aa21    0x4  Code  Lc  Os_Hook.o [17]
Os_ThreadIsFpuContextEnabled
                           0x1'6ab1    0x4  Code  Lc  Os_Isr.o [17]
Os_ThreadIsFpuContextEnabled
                           0x1'fee7    0x4  Code  Lc  Os_Resource.o [17]
Os_ThreadIsFpuContextEnabled
                           0x2'0895    0x4  Code  Lc  Os_ServiceFunction.o [17]
Os_ThreadIsFpuContextEnabled
                           0x1'ebaf    0x4  Code  Lc  Os_Spinlock.o [17]
Os_ThreadIsFpuContextEnabled
                           0x1'4e69    0x4  Code  Lc  Os_Task.o [17]
Os_ThreadIsFpuContextEnabled
                           0x1'7753    0x4  Code  Lc  Os_Thread.o [17]
Os_ThreadIsFpuContextEnabledForThread
                           0x1'8313   0x22  Code  Lc  Os_Application.o [17]
Os_ThreadIsFpuContextEnabledForThread
                           0x2'2435   0x22  Code  Lc  Os_Counter.o [17]
Os_ThreadIsFpuContextEnabledForThread
                           0x2'7667   0x22  Code  Lc  Os_Event.o [17]
Os_ThreadIsFpuContextEnabledForThread
                           0x1'a9fb   0x22  Code  Lc  Os_Hook.o [17]
Os_ThreadIsFpuContextEnabledForThread
                           0x1'6a8b   0x22  Code  Lc  Os_Isr.o [17]
Os_ThreadIsFpuContextEnabledForThread
                           0x1'fec1   0x22  Code  Lc  Os_Resource.o [17]
Os_ThreadIsFpuContextEnabledForThread
                           0x2'086f   0x22  Code  Lc  Os_ServiceFunction.o [17]
Os_ThreadIsFpuContextEnabledForThread
                           0x1'eb89   0x22  Code  Lc  Os_Spinlock.o [17]
Os_ThreadIsFpuContextEnabledForThread
                           0x1'4e43   0x22  Code  Lc  Os_Task.o [17]
Os_ThreadIsFpuContextEnabledForThread
                           0x1'772d   0x22  Code  Lc  Os_Thread.o [17]
Os_ThreadIsHook            0x1'8229    0xa  Code  Lc  Os_Application.o [17]
Os_ThreadIsHook            0x1'a67b    0xa  Code  Lc  Os_Hook.o [17]
Os_ThreadIsHook            0x1'763b    0xa  Code  Lc  Os_Thread.o [17]
Os_ThreadIsIsr             0x1'8219   0x10  Code  Lc  Os_Application.o [17]
Os_ThreadIsIsr             0x1'39f1   0x10  Code  Lc  Os_Error.o [17]
Os_ThreadIsIsr             0x1'66ff   0x10  Code  Lc  Os_Isr.o [17]
Os_ThreadIsIsr             0x1'fdd5   0x10  Code  Lc  Os_Resource.o [17]
Os_ThreadIsShutdownHook
                           0x1'8e9b   0x10  Code  Lc  Os_Core.o [17]
Os_ThreadIsTask            0x1'8201   0x18  Code  Lc  Os_Application.o [17]
Os_ThreadIsTask            0x2'65e9   0x18  Code  Lc  Os_Barrier.o [17]
Os_ThreadIsTask            0x2'2341   0x18  Code  Lc  Os_Counter.o [17]
Os_ThreadIsTask            0x1'39c7   0x18  Code  Lc  Os_Error.o [17]
Os_ThreadIsTask            0x2'74e3   0x18  Code  Lc  Os_Event.o [17]
Os_ThreadIsTask            0x1'a659   0x18  Code  Lc  Os_Hook.o [17]
Os_ThreadIsTask            0x1'66e7   0x18  Code  Lc  Os_Isr.o [17]
Os_ThreadIsTask            0x1'fdbd   0x18  Code  Lc  Os_Resource.o [17]
Os_ThreadIsTask            0x1'eaa1   0x18  Code  Lc  Os_Spinlock.o [17]
Os_ThreadIsTask            0x1'4aff   0x18  Code  Lc  Os_Task.o [17]
Os_ThreadIsTask            0x1'7623   0x18  Code  Lc  Os_Thread.o [17]
Os_ThreadIsTpIsr           0x1'39df   0x12  Code  Lc  Os_Error.o [17]
Os_ThreadKill              0x1'a80f   0x6e  Code  Lc  Os_Hook.o [17]
Os_ThreadKill              0x1'6913   0x6e  Code  Lc  Os_Isr.o [17]
Os_ThreadKill              0x1'4cff   0x6e  Code  Lc  Os_Task.o [17]
Os_ThreadLocksForceRelease
                           0x1'a699   0x18  Code  Lc  Os_Hook.o [17]
Os_ThreadLocksForceRelease
                           0x1'67fb   0x18  Code  Lc  Os_Isr.o [17]
Os_ThreadLocksForceRelease
                           0x1'4bdf   0x18  Code  Lc  Os_Task.o [17]
Os_ThreadResetAndResume
                           0x1'4c63   0x9c  Code  Lc  Os_Task.o [17]
Os_ThreadResetAndResume
                           0x1'7645   0x9c  Code  Lc  Os_Thread.o [17]
Os_ThreadResourceForceRelease
                           0x1'a691    0x8  Code  Lc  Os_Hook.o [17]
Os_ThreadResourceForceRelease
                           0x1'67f3    0x8  Code  Lc  Os_Isr.o [17]
Os_ThreadResourceForceRelease
                           0x1'4bd7    0x8  Code  Lc  Os_Task.o [17]
Os_ThreadRestoreFpuContext
                           0x1'82fd   0x16  Code  Lc  Os_Application.o [17]
Os_ThreadRestoreFpuContext
                           0x2'241f   0x16  Code  Lc  Os_Counter.o [17]
Os_ThreadRestoreFpuContext
                           0x2'7651   0x16  Code  Lc  Os_Event.o [17]
Os_ThreadRestoreFpuContext
                           0x1'a9e5   0x16  Code  Lc  Os_Hook.o [17]
Os_ThreadRestoreFpuContext
                           0x1'6a75   0x16  Code  Lc  Os_Isr.o [17]
Os_ThreadRestoreFpuContext
                           0x1'feab   0x16  Code  Lc  Os_Resource.o [17]
Os_ThreadRestoreFpuContext
                           0x1'eb73   0x16  Code  Lc  Os_Spinlock.o [17]
Os_ThreadRestoreFpuContext
                           0x1'4e2d   0x16  Code  Lc  Os_Task.o [17]
Os_ThreadRestoreFpuContext
                           0x1'7717   0x16  Code  Lc  Os_Thread.o [17]
Os_ThreadSetCurrentApplication
                           0x2'0757    0x6  Code  Lc  Os_ServiceFunction.o [17]
Os_ThreadSetMpAccessRights
                           0x2'0763    0x6  Code  Lc  Os_ServiceFunction.o [17]
Os_ThreadSetServiceCalls
                           0x2'0727    0x6  Code  Lc  Os_ServiceFunction.o [17]
Os_ThreadSpinlockForceRelease
                           0x1'a689    0x8  Code  Lc  Os_Hook.o [17]
Os_ThreadSpinlockForceRelease
                           0x1'67eb    0x8  Code  Lc  Os_Isr.o [17]
Os_ThreadSpinlockForceRelease
                           0x1'4bcf    0x8  Code  Lc  Os_Task.o [17]
Os_ThreadStartFirst        0x1'a71d   0x5e  Code  Lc  Os_Hook.o [17]
Os_ThreadStoreFpuContext
                           0x1'82e7   0x16  Code  Lc  Os_Application.o [17]
Os_ThreadStoreFpuContext
                           0x2'2409   0x16  Code  Lc  Os_Counter.o [17]
Os_ThreadStoreFpuContext
                           0x2'763b   0x16  Code  Lc  Os_Event.o [17]
Os_ThreadStoreFpuContext
                           0x1'a9cf   0x16  Code  Lc  Os_Hook.o [17]
Os_ThreadStoreFpuContext
                           0x1'6a5f   0x16  Code  Lc  Os_Isr.o [17]
Os_ThreadStoreFpuContext
                           0x1'fe95   0x16  Code  Lc  Os_Resource.o [17]
Os_ThreadStoreFpuContext
                           0x1'eb5d   0x16  Code  Lc  Os_Spinlock.o [17]
Os_ThreadStoreFpuContext
                           0x1'4e17   0x16  Code  Lc  Os_Task.o [17]
Os_ThreadSuicide           0x1'7757   0x3e  Code  Gb  Os_Thread.o [17]
Os_ThreadSuspendAndStart
                           0x1'a8f1   0x8a  Code  Lc  Os_Hook.o [17]
Os_ThreadSuspendAndStart
                           0x1'6981   0x8a  Code  Lc  Os_Isr.o [17]
Os_ThreadSwitch            0x1'825f   0x74  Code  Lc  Os_Application.o [17]
Os_ThreadSwitch            0x2'2381   0x74  Code  Lc  Os_Counter.o [17]
Os_ThreadSwitch            0x2'75b3   0x74  Code  Lc  Os_Event.o [17]
Os_ThreadSwitch            0x1'a87d   0x74  Code  Lc  Os_Hook.o [17]
Os_ThreadSwitch            0x1'fe0d   0x74  Code  Lc  Os_Resource.o [17]
Os_ThreadSwitch            0x1'ead5   0x74  Code  Lc  Os_Spinlock.o [17]
Os_ThreadSwitch            0x1'4d6d   0x74  Code  Lc  Os_Task.o [17]
Os_ThreadSwitchType        0x1'81f3    0xe  Code  Lc  Os_Application.o [17]
Os_ThreadSwitchType        0x2'2333    0xe  Code  Lc  Os_Counter.o [17]
Os_ThreadSwitchType        0x2'74d5    0xe  Code  Lc  Os_Event.o [17]
Os_ThreadSwitchType        0x1'a64b    0xe  Code  Lc  Os_Hook.o [17]
Os_ThreadSwitchType        0x1'66d9    0xe  Code  Lc  Os_Isr.o [17]
Os_ThreadSwitchType        0x1'fdaf    0xe  Code  Lc  Os_Resource.o [17]
Os_ThreadSwitchType        0x1'ea93    0xe  Code  Lc  Os_Spinlock.o [17]
Os_ThreadSwitchType        0x1'4af1    0xe  Code  Lc  Os_Task.o [17]
Os_ThreadSwitchType        0x1'7615    0xe  Code  Lc  Os_Thread.o [17]
Os_TimerAdd                0x1'7a8f   0x4e  Code  Lc  Os_Application.o [17]
Os_TimerAdd                0x2'1c9d   0x4e  Code  Lc  Os_Counter.o [17]
Os_TimerAdd                0x2'6b5b   0x4e  Code  Lc  Os_Event.o [17]
Os_TimerAdd                0x1'9c5f   0x4e  Code  Lc  Os_Hook.o [17]
Os_TimerAdd                0x1'b7eb   0x4e  Code  Lc  Os_Interrupt.o [17]
Os_TimerAdd                0x1'5a83   0x4e  Code  Lc  Os_Isr.o [17]
Os_TimerAdd                0x1'f327   0x4e  Code  Lc  Os_Resource.o [17]
Os_TimerAdd                0x1'e1ad   0x4e  Code  Lc  Os_Spinlock.o [17]
Os_TimerAdd                0x1'41b5   0x4e  Code  Lc  Os_Task.o [17]
Os_TimerAdd                0x1'708d   0x4e  Code  Lc  Os_Thread.o [17]
Os_TimerAdd                0x2'846b   0x4e  Code  Lc  Os_Timer.o [17]
Os_TimerAdd                0x1'b473   0x4e  Code  Lc  Os_TimingProtection.o [17]
Os_TimerHrtAbsCounter2AbsTimerValue
                           0x2'1c7b   0x1a  Code  Lc  Os_Counter.o [17]
Os_TimerHrtGetCompareValue
                           0x1'7a5f    0x6  Code  Lc  Os_Application.o [17]
Os_TimerHrtGetCompareValue
                           0x2'1c1d    0x6  Code  Lc  Os_Counter.o [17]
Os_TimerHrtGetCompareValue
                           0x2'6b2b    0x6  Code  Lc  Os_Event.o [17]
Os_TimerHrtGetCompareValue
                           0x1'9c2f    0x6  Code  Lc  Os_Hook.o [17]
Os_TimerHrtGetCompareValue
                           0x1'b7bb    0x6  Code  Lc  Os_Interrupt.o [17]
Os_TimerHrtGetCompareValue
                           0x1'5a53    0x6  Code  Lc  Os_Isr.o [17]
Os_TimerHrtGetCompareValue
                           0x1'f2f7    0x6  Code  Lc  Os_Resource.o [17]
Os_TimerHrtGetCompareValue
                           0x1'e17d    0x6  Code  Lc  Os_Spinlock.o [17]
Os_TimerHrtGetCompareValue
                           0x1'4185    0x6  Code  Lc  Os_Task.o [17]
Os_TimerHrtGetCounter      0x1'79d9    0x2  Code  Lc  Os_Application.o [17]
Os_TimerHrtGetCounter      0x2'1b8f    0x2  Code  Lc  Os_Counter.o [17]
Os_TimerHrtGetCounter      0x2'6aa5    0x2  Code  Lc  Os_Event.o [17]
Os_TimerHrtGetCounter      0x1'9ba9    0x2  Code  Lc  Os_Hook.o [17]
Os_TimerHrtGetCounter      0x1'b735    0x2  Code  Lc  Os_Interrupt.o [17]
Os_TimerHrtGetCounter      0x1'59cd    0x2  Code  Lc  Os_Isr.o [17]
Os_TimerHrtGetCounter      0x1'f271    0x2  Code  Lc  Os_Resource.o [17]
Os_TimerHrtGetCounter      0x1'e0f7    0x2  Code  Lc  Os_Spinlock.o [17]
Os_TimerHrtGetCounter      0x1'40ff    0x2  Code  Lc  Os_Task.o [17]
Os_TimerHrtGetCounter      0x1'6fdd    0x2  Code  Lc  Os_Thread.o [17]
Os_TimerHrtGetCounter      0x1'b3c3    0x2  Code  Lc  Os_TimingProtection.o [17]
Os_TimerHrtGetValue        0x1'7a65   0x2a  Code  Lc  Os_Application.o [17]
Os_TimerHrtGetValue        0x2'1c2b   0x2a  Code  Lc  Os_Counter.o [17]
Os_TimerHrtGetValue        0x2'6b31   0x2a  Code  Lc  Os_Event.o [17]
Os_TimerHrtGetValue        0x1'9c35   0x2a  Code  Lc  Os_Hook.o [17]
Os_TimerHrtGetValue        0x1'b7c1   0x2a  Code  Lc  Os_Interrupt.o [17]
Os_TimerHrtGetValue        0x1'5a59   0x2a  Code  Lc  Os_Isr.o [17]
Os_TimerHrtGetValue        0x1'f2fd   0x2a  Code  Lc  Os_Resource.o [17]
Os_TimerHrtGetValue        0x1'e183   0x2a  Code  Lc  Os_Spinlock.o [17]
Os_TimerHrtGetValue        0x1'418b   0x2a  Code  Lc  Os_Task.o [17]
Os_TimerHrtGetValue        0x1'7063   0x2a  Code  Lc  Os_Thread.o [17]
Os_TimerHrtGetValue        0x1'b449   0x2a  Code  Lc  Os_TimingProtection.o [17]
Os_TimerHrtInit            0x2'1aab   0x54  Code  Lc  Os_Counter.o [17]
Os_TimerHrtSetCompareValue
                           0x1'79e5   0x7a  Code  Lc  Os_Application.o [17]
Os_TimerHrtSetCompareValue
                           0x2'1b9b   0x7a  Code  Lc  Os_Counter.o [17]
Os_TimerHrtSetCompareValue
                           0x2'6ab1   0x7a  Code  Lc  Os_Event.o [17]
Os_TimerHrtSetCompareValue
                           0x1'9bb5   0x7a  Code  Lc  Os_Hook.o [17]
Os_TimerHrtSetCompareValue
                           0x1'b741   0x7a  Code  Lc  Os_Interrupt.o [17]
Os_TimerHrtSetCompareValue
                           0x1'59d9   0x7a  Code  Lc  Os_Isr.o [17]
Os_TimerHrtSetCompareValue
                           0x1'f27d   0x7a  Code  Lc  Os_Resource.o [17]
Os_TimerHrtSetCompareValue
                           0x1'e103   0x7a  Code  Lc  Os_Spinlock.o [17]
Os_TimerHrtSetCompareValue
                           0x1'410b   0x7a  Code  Lc  Os_Task.o [17]
Os_TimerHrtSetCompareValue
                           0x1'6fe9   0x7a  Code  Lc  Os_Thread.o [17]
Os_TimerHrtSetCompareValue
                           0x1'b3cf   0x7a  Code  Lc  Os_TimingProtection.o [17]
Os_TimerHrtStart           0x2'1b13   0x2a  Code  Lc  Os_Counter.o [17]
Os_TimerHrtTickType2FrtTickType
                           0x1'79db    0xa  Code  Lc  Os_Application.o [17]
Os_TimerHrtTickType2FrtTickType
                           0x2'1b91    0xa  Code  Lc  Os_Counter.o [17]
Os_TimerHrtTickType2FrtTickType
                           0x2'6aa7    0xa  Code  Lc  Os_Event.o [17]
Os_TimerHrtTickType2FrtTickType
                           0x1'9bab    0xa  Code  Lc  Os_Hook.o [17]
Os_TimerHrtTickType2FrtTickType
                           0x1'b737    0xa  Code  Lc  Os_Interrupt.o [17]
Os_TimerHrtTickType2FrtTickType
                           0x1'59cf    0xa  Code  Lc  Os_Isr.o [17]
Os_TimerHrtTickType2FrtTickType
                           0x1'f273    0xa  Code  Lc  Os_Resource.o [17]
Os_TimerHrtTickType2FrtTickType
                           0x1'e0f9    0xa  Code  Lc  Os_Spinlock.o [17]
Os_TimerHrtTickType2FrtTickType
                           0x1'4101    0xa  Code  Lc  Os_Task.o [17]
Os_TimerHrtTickType2FrtTickType
                           0x1'6fdf    0xa  Code  Lc  Os_Thread.o [17]
Os_TimerHrtTickType2FrtTickType
                           0x1'b3c5    0xa  Code  Lc  Os_TimingProtection.o [17]
Os_TimerHrtUserModulo      0x2'1c23    0x8  Code  Lc  Os_Counter.o [17]
Os_TimerPfrtAbsCounter2AbsTimerValue
                           0x2'1c95    0x8  Code  Lc  Os_Counter.o [17]
Os_TimerPfrtGetDyn         0x2'855d    0x4  Code  Lc  Os_Timer.o [17]
Os_TimerPfrtGetValue       0x2'1c55    0x8  Code  Lc  Os_Counter.o [17]
Os_TimerPfrtInit           0x2'1aff    0x8  Code  Lc  Os_Counter.o [17]
Os_TimerPfrtSetCompareValue
                           0x2'1c15    0x8  Code  Lc  Os_Counter.o [17]
Os_TimerPfrtSetNextHardwareCompareValue
                           0x2'84d5   0x88  Code  Lc  Os_Timer.o [17]
Os_TimerPfrtStart          0x2'85ab   0x28  Code  Gb  Os_Timer.o [17]
Os_TimerPfrtUserModulo     0x2'1b87    0x8  Code  Lc  Os_Counter.o [17]
Os_TimerPitAbsCounter2AbsTimerValue
                           0x2'1c73    0x8  Code  Lc  Os_Counter.o [17]
Os_TimerPitCheckNotPending
                           0x2'84bb   0x1a  Code  Lc  Os_Timer.o [17]
Os_TimerPitGetValue        0x2'1b6f    0x8  Code  Lc  Os_Counter.o [17]
Os_TimerPitInit            0x2'1a73   0x38  Code  Lc  Os_Counter.o [17]
Os_TimerPitSetCompareValue
                           0x2'1b77    0x8  Code  Lc  Os_Counter.o [17]
Os_TimerPitStart           0x2'1b09    0xa  Code  Lc  Os_Counter.o [17]
Os_TimerPitUserModulo      0x2'1b7f    0x8  Code  Lc  Os_Counter.o [17]
Os_TimerSub                0x1'7add   0x4a  Code  Lc  Os_Application.o [17]
Os_TimerSub                0x2'1ceb   0x4a  Code  Lc  Os_Counter.o [17]
Os_TimerSub                0x2'6ba9   0x4a  Code  Lc  Os_Event.o [17]
Os_TimerSub                0x1'9cad   0x4a  Code  Lc  Os_Hook.o [17]
Os_TimerSub                0x1'b839   0x4a  Code  Lc  Os_Interrupt.o [17]
Os_TimerSub                0x1'5ad1   0x4a  Code  Lc  Os_Isr.o [17]
Os_TimerSub                0x1'f375   0x4a  Code  Lc  Os_Resource.o [17]
Os_TimerSub                0x1'e1fb   0x4a  Code  Lc  Os_Spinlock.o [17]
Os_TimerSub                0x1'4203   0x4a  Code  Lc  Os_Task.o [17]
Os_TimerSwAbsCounter2AbsTimerValue
                           0x2'1c5d   0x16  Code  Lc  Os_Counter.o [17]
Os_TimerSwGetValue         0x2'1b3d    0x6  Code  Lc  Os_Counter.o [17]
Os_TimerSwIncrement        0x2'8561   0x4a  Code  Gb  Os_Timer.o [17]
Os_TimerSwInit             0x2'1a35   0x3e  Code  Lc  Os_Counter.o [17]
Os_TimerSwSetCompareValue
                           0x2'1b43    0x6  Code  Lc  Os_Counter.o [17]
Os_TimerSwStart            0x2'1b07    0x2  Code  Lc  Os_Counter.o [17]
Os_TimerSwStart            0x2'8469    0x2  Code  Lc  Os_Timer.o [17]
Os_TimerSwUserModulo       0x2'1b49   0x26  Code  Lc  Os_Counter.o [17]
Os_TimerThread2CounterIsr
                           0x2'84b9    0x2  Code  Lc  Os_Timer.o [17]
Os_TpAdd                   0x1'7fd9   0x2a  Code  Lc  Os_Application.o [17]
Os_TpAdd                   0x2'214f   0x2a  Code  Lc  Os_Counter.o [17]
Os_TpAdd                   0x2'6fcf   0x2a  Code  Lc  Os_Event.o [17]
Os_TpAdd                   0x1'a34b   0x2a  Code  Lc  Os_Hook.o [17]
Os_TpAdd                   0x1'bba9   0x2a  Code  Lc  Os_Interrupt.o [17]
Os_TpAdd                   0x1'6391   0x2a  Code  Lc  Os_Isr.o [17]
Os_TpAdd                   0x1'fa2f   0x2a  Code  Lc  Os_Resource.o [17]
Os_TpAdd                   0x1'e89f   0x2a  Code  Lc  Os_Spinlock.o [17]
Os_TpAdd                   0x1'461b   0x2a  Code  Lc  Os_Task.o [17]
Os_TpAdd                   0x1'72bd   0x2a  Code  Lc  Os_Thread.o [17]
Os_TpAdd                   0x1'b52d   0x2a  Code  Lc  Os_TimingProtection.o [17]
Os_TpBudgetStart           0x1'bc73   0x7a  Code  Lc  Os_Interrupt.o [17]
Os_TpBudgetStart           0x1'fb93   0x7a  Code  Lc  Os_Resource.o [17]
Os_TpBudgetStop            0x1'bced   0x80  Code  Lc  Os_Interrupt.o [17]
Os_TpBudgetStop            0x1'fc0d   0x80  Code  Lc  Os_Resource.o [17]
Os_TpCheckInterArrival     0x2'720d   0x74  Code  Lc  Os_Event.o [17]
Os_TpCheckInterArrival     0x1'654b   0x74  Code  Lc  Os_Isr.o [17]
Os_TpCheckInterArrival     0x1'47d5   0x74  Code  Lc  Os_Task.o [17]
Os_TpGetArrivalTimeStamp
                           0x2'6ff9   0x30  Code  Lc  Os_Event.o [17]
Os_TpGetArrivalTimeStamp
                           0x1'63bb   0x30  Code  Lc  Os_Isr.o [17]
Os_TpGetArrivalTimeStamp
                           0x1'4645   0x30  Code  Lc  Os_Task.o [17]
Os_TpGetArrivalTimeStamp
                           0x1'b557   0x30  Code  Lc  Os_TimingProtection.o [17]
Os_TpGetCurrentTpOwnerThread
                           0x2'6f55   0x10  Code  Lc  Os_Event.o [17]
Os_TpGetCurrentTpOwnerThread
                           0x1'a2a5   0x10  Code  Lc  Os_Hook.o [17]
Os_TpGetCurrentTpOwnerThread
                           0x1'bb6b   0x10  Code  Lc  Os_Interrupt.o [17]
Os_TpGetCurrentTpOwnerThread
                           0x1'62eb   0x10  Code  Lc  Os_Isr.o [17]
Os_TpGetCurrentTpOwnerThread
                           0x1'f9b5   0x10  Code  Lc  Os_Resource.o [17]
Os_TpGetCurrentTpOwnerThread
                           0x2'066d   0x10  Code  Lc  Os_ServiceFunction.o [17]
Os_TpGetCurrentTpOwnerThread
                           0x1'4575   0x10  Code  Lc  Os_Task.o [17]
Os_TpGetCurrentTpOwnerThread
                           0x1'7299   0x10  Code  Lc  Os_Thread.o [17]
Os_TpGetResourceBudget     0x1'fb13   0x1e  Code  Lc  Os_Resource.o [17]
Os_TpInit                  0x1'b631   0x4a  Code  Gb  Os_TimingProtection.o [17]
Os_TpIsEnabled             0x2'2e71    0x4  Code  Lc  Os_Alarm.o [17]
Os_TpIsEnabled             0x1'80bd    0x4  Code  Lc  Os_Application.o [17]
Os_TpIsEnabled             0x1'8e67    0x4  Code  Lc  Os_Core.o [17]
Os_TpIsEnabled             0x2'2233    0x4  Code  Lc  Os_Counter.o [17]
Os_TpIsEnabled             0x1'39b9    0x4  Code  Lc  Os_Error.o [17]
Os_TpIsEnabled             0x2'7281    0x4  Code  Lc  Os_Event.o [17]
Os_TpIsEnabled             0x1'a4d5    0x4  Code  Lc  Os_Hook.o [17]
Os_TpIsEnabled             0x1'bd6d    0x4  Code  Lc  Os_Interrupt.o [17]
Os_TpIsEnabled             0x2'490f    0x4  Code  Lc  Os_Ioc.o [17]
Os_TpIsEnabled             0x1'65bf    0x4  Code  Lc  Os_Isr.o [17]
Os_TpIsEnabled             0x2'872b    0x4  Code  Lc  Os_MemoryProtection.o [17]
Os_TpIsEnabled             0x1'fc8d    0x4  Code  Lc  Os_Resource.o [17]
Os_TpIsEnabled             0x2'3883    0x4  Code  Lc  Os_ScheduleTable.o [17]
Os_TpIsEnabled             0x2'071d    0x4  Code  Lc  Os_ServiceFunction.o [17]
Os_TpIsEnabled             0x1'e983    0x4  Code  Lc  Os_Spinlock.o [17]
Os_TpIsEnabled             0x1'4849    0x4  Code  Lc  Os_Task.o [17]
Os_TpIsEnabled             0x1'738d    0x4  Code  Lc  Os_Thread.o [17]
Os_TpIsEnabled             0x2'8461    0x4  Code  Lc  Os_Timer.o [17]
Os_TpIsEnabled             0x1'b58d    0x4  Code  Lc  Os_TimingProtection.o [17]
Os_TpIsEnabled             0x1'c49f    0x4  Code  Lc  Os_Trap.o [17]
Os_TpIsEnabled             0x1'afd5    0x4  Code  Lc  Os_XSignal.o [17]
Os_TpReducedInit           0x1'b605   0x2c  Code  Gb  Os_TimingProtection.o [17]
Os_TpResetAfterWait        0x2'7189   0x84  Code  Lc  Os_Event.o [17]
Os_TpResetAndResume        0x2'70e3   0xa6  Code  Lc  Os_Event.o [17]
Os_TpResetAndResume        0x1'a42f   0xa6  Code  Lc  Os_Hook.o [17]
Os_TpResetAndResume        0x1'64a5   0xa6  Code  Lc  Os_Isr.o [17]
Os_TpResetAndResume        0x1'472f   0xa6  Code  Lc  Os_Task.o [17]
Os_TpResetAndResume        0x1'72e7   0xa6  Code  Lc  Os_Thread.o [17]
Os_TpResume                0x1'7f6f   0x14  Code  Lc  Os_Application.o [17]
Os_TpResume                0x2'20e5   0x14  Code  Lc  Os_Counter.o [17]
Os_TpResume                0x2'6f65   0x14  Code  Lc  Os_Event.o [17]
Os_TpResume                0x1'a2e1   0x14  Code  Lc  Os_Hook.o [17]
Os_TpResume                0x1'bb7b   0x14  Code  Lc  Os_Interrupt.o [17]
Os_TpResume                0x1'6327   0x14  Code  Lc  Os_Isr.o [17]
Os_TpResume                0x1'f9c5   0x14  Code  Lc  Os_Resource.o [17]
Os_TpResume                0x1'e835   0x14  Code  Lc  Os_Spinlock.o [17]
Os_TpResume                0x1'45b1   0x14  Code  Lc  Os_Task.o [17]
Os_TpResume                0x1'72a9   0x14  Code  Lc  Os_Thread.o [17]
Os_TpStart                 0x1'b67b   0x22  Code  Gb  Os_TimingProtection.o [17]
Os_TpStartAllInterrupt     0x1'bbd3   0x28  Code  Lc  Os_Interrupt.o [17]
Os_TpStartDelay            0x2'067d   0x32  Code  Lc  Os_ServiceFunction.o [17]
Os_TpStartOsInterrupt      0x1'bc23   0x28  Code  Lc  Os_Interrupt.o [17]
Os_TpStartResource         0x1'fb31   0x30  Code  Lc  Os_Resource.o [17]
Os_TpStopAllInterrupt      0x1'bbfb   0x28  Code  Lc  Os_Interrupt.o [17]
Os_TpStopDelay             0x2'06af   0x6e  Code  Lc  Os_ServiceFunction.o [17]
Os_TpStopOsInterrupt       0x1'bc4b   0x28  Code  Lc  Os_Interrupt.o [17]
Os_TpStopResource          0x1'fb61   0x32  Code  Lc  Os_Resource.o [17]
Os_TpSub                   0x1'7fbf   0x1a  Code  Lc  Os_Application.o [17]
Os_TpSub                   0x2'2135   0x1a  Code  Lc  Os_Counter.o [17]
Os_TpSub                   0x2'6fb5   0x1a  Code  Lc  Os_Event.o [17]
Os_TpSub                   0x1'a331   0x1a  Code  Lc  Os_Hook.o [17]
Os_TpSub                   0x1'bb8f   0x1a  Code  Lc  Os_Interrupt.o [17]
Os_TpSub                   0x1'6377   0x1a  Code  Lc  Os_Isr.o [17]
Os_TpSub                   0x1'fa15   0x1a  Code  Lc  Os_Resource.o [17]
Os_TpSub                   0x1'e885   0x1a  Code  Lc  Os_Spinlock.o [17]
Os_TpSub                   0x1'4601   0x1a  Code  Lc  Os_Task.o [17]
Os_TpSuspend               0x1'7f83   0x3c  Code  Lc  Os_Application.o [17]
Os_TpSuspend               0x2'20f9   0x3c  Code  Lc  Os_Counter.o [17]
Os_TpSuspend               0x2'6f79   0x3c  Code  Lc  Os_Event.o [17]
Os_TpSuspend               0x1'a2f5   0x3c  Code  Lc  Os_Hook.o [17]
Os_TpSuspend               0x1'633b   0x3c  Code  Lc  Os_Isr.o [17]
Os_TpSuspend               0x1'f9d9   0x3c  Code  Lc  Os_Resource.o [17]
Os_TpSuspend               0x1'e849   0x3c  Code  Lc  Os_Spinlock.o [17]
Os_TpSuspend               0x1'45c5   0x3c  Code  Lc  Os_Task.o [17]
Os_TpSwitch                0x1'8003   0xba  Code  Lc  Os_Application.o [17]
Os_TpSwitch                0x2'2179   0xba  Code  Lc  Os_Counter.o [17]
Os_TpSwitch                0x2'7029   0xba  Code  Lc  Os_Event.o [17]
Os_TpSwitch                0x1'a375   0xba  Code  Lc  Os_Hook.o [17]
Os_TpSwitch                0x1'63eb   0xba  Code  Lc  Os_Isr.o [17]
Os_TpSwitch                0x1'fa59   0xba  Code  Lc  Os_Resource.o [17]
Os_TpSwitch                0x1'e8c9   0xba  Code  Lc  Os_Spinlock.o [17]
Os_TpSwitch                0x1'4675   0xba  Code  Lc  Os_Task.o [17]
Os_TpThread2TpOwnerThread
                           0x1'7f55   0x1a  Code  Lc  Os_Application.o [17]
Os_TpThread2TpOwnerThread
                           0x2'20cb   0x1a  Code  Lc  Os_Counter.o [17]
Os_TpThread2TpOwnerThread
                           0x2'6f3b   0x1a  Code  Lc  Os_Event.o [17]
Os_TpThread2TpOwnerThread
                           0x1'a28b   0x1a  Code  Lc  Os_Hook.o [17]
Os_TpThread2TpOwnerThread
                           0x1'bb51   0x1a  Code  Lc  Os_Interrupt.o [17]
Os_TpThread2TpOwnerThread
                           0x1'62d1   0x1a  Code  Lc  Os_Isr.o [17]
Os_TpThread2TpOwnerThread
                           0x1'f99b   0x1a  Code  Lc  Os_Resource.o [17]
Os_TpThread2TpOwnerThread
                           0x2'0653   0x1a  Code  Lc  Os_ServiceFunction.o [17]
Os_TpThread2TpOwnerThread
                           0x1'e81b   0x1a  Code  Lc  Os_Spinlock.o [17]
Os_TpThread2TpOwnerThread
                           0x1'455b   0x1a  Code  Lc  Os_Task.o [17]
Os_TpThread2TpOwnerThread
                           0x1'727f   0x1a  Code  Lc  Os_Thread.o [17]
Os_TpThread2TpOwnerThread
                           0x1'b513   0x1a  Code  Lc  Os_TimingProtection.o [17]
Os_TpThreadInit            0x1'8e4f   0x18  Code  Lc  Os_Core.o [17]
Os_TpThreadInit            0x1'a2b5   0x18  Code  Lc  Os_Hook.o [17]
Os_TpThreadInit            0x1'62fb   0x18  Code  Lc  Os_Isr.o [17]
Os_TpThreadInit            0x1'4585   0x18  Code  Lc  Os_Task.o [17]
Os_TpThreadInitInternal
                           0x1'b591   0x34  Code  Gb  Os_TimingProtection.o [17]
Os_TpThreadKill            0x1'a2cd   0x14  Code  Lc  Os_Hook.o [17]
Os_TpThreadKill            0x1'6313   0x14  Code  Lc  Os_Isr.o [17]
Os_TpThreadKill            0x1'459d   0x14  Code  Lc  Os_Task.o [17]
Os_TpThreadKillInternal
                           0x1'b5c5   0x14  Code  Gb  Os_TimingProtection.o [17]
Os_TpThreadReInitInternal
                           0x1'b5d9   0x2c  Code  Lc  Os_TimingProtection.o [17]
Os_TraceGetNumberOfConfiguredSpinlocks
                           0x2'46a7    0x4  Code  Lc  Os_Ioc.o [17]
Os_TraceGetNumberOfConfiguredSpinlocks
                           0x1'e745    0x4  Code  Lc  Os_Spinlock.o [17]
Os_TraceInterruptsGlobalDisabled
                           0x1'b8f5   0x2a  Code  Lc  Os_Interrupt.o [17]
Os_TraceInterruptsGlobalEnabled
                           0x1'b949   0x2a  Code  Lc  Os_Interrupt.o [17]
Os_TraceInterruptsLevelDisabled
                           0x1'b91f   0x2a  Code  Lc  Os_Interrupt.o [17]
Os_TraceInterruptsLevelEnabled
                           0x1'b973   0x2a  Code  Lc  Os_Interrupt.o [17]
Os_TraceIsOrtiServiceTracingEnabled
                           0x1'c279    0x4  Code  Lc  Os_Trap.o [17]
Os_TraceIsOrtiTaskIsrTracingEnabled
                           0x1'7807    0x4  Code  Lc  Os_Application.o [17]
Os_TraceIsOrtiTaskIsrTracingEnabled
                           0x2'1f4f    0x4  Code  Lc  Os_Counter.o [17]
Os_TraceIsOrtiTaskIsrTracingEnabled
                           0x2'6895    0x4  Code  Lc  Os_Event.o [17]
Os_TraceIsOrtiTaskIsrTracingEnabled
                           0x1'a0cb    0x4  Code  Lc  Os_Hook.o [17]
Os_TraceIsOrtiTaskIsrTracingEnabled
                           0x1'5ff9    0x4  Code  Lc  Os_Isr.o [17]
Os_TraceIsOrtiTaskIsrTracingEnabled
                           0x1'f769    0x4  Code  Lc  Os_Resource.o [17]
Os_TraceIsOrtiTaskIsrTracingEnabled
                           0x1'e59f    0x4  Code  Lc  Os_Spinlock.o [17]
Os_TraceIsOrtiTaskIsrTracingEnabled
                           0x1'3e1d    0x4  Code  Lc  Os_Task.o [17]
Os_TraceIsOrtiTaskIsrTracingEnabled
                           0x1'7451    0x4  Code  Lc  Os_Thread.o [17]
Os_TraceIsTimingHookEnabled
                           0x1'7803    0x4  Code  Lc  Os_Application.o [17]
Os_TraceIsTimingHookEnabled
                           0x2'1f4b    0x4  Code  Lc  Os_Counter.o [17]
Os_TraceIsTimingHookEnabled
                           0x2'6891    0x4  Code  Lc  Os_Event.o [17]
Os_TraceIsTimingHookEnabled
                           0x1'a0c7    0x4  Code  Lc  Os_Hook.o [17]
Os_TraceIsTimingHookEnabled
                           0x1'b8f1    0x4  Code  Lc  Os_Interrupt.o [17]
Os_TraceIsTimingHookEnabled
                           0x2'4589    0x4  Code  Lc  Os_Ioc.o [17]
Os_TraceIsTimingHookEnabled
                           0x1'5ff5    0x4  Code  Lc  Os_Isr.o [17]
Os_TraceIsTimingHookEnabled
                           0x1'f765    0x4  Code  Lc  Os_Resource.o [17]
Os_TraceIsTimingHookEnabled
                           0x1'e59b    0x4  Code  Lc  Os_Spinlock.o [17]
Os_TraceIsTimingHookEnabled
                           0x1'3e19    0x4  Code  Lc  Os_Task.o [17]
Os_TraceIsTimingHookEnabled
                           0x1'744d    0x4  Code  Lc  Os_Thread.o [17]
Os_TraceIsrKill            0x1'6111   0x42  Code  Lc  Os_Isr.o [17]
Os_TraceOrtiApiEntry       0x1'c27d   0x1e  Code  Lc  Os_Trap.o [17]
Os_TraceOrtiApiExit        0x1'c29b   0x1c  Code  Lc  Os_Trap.o [17]
Os_TraceResourceReleased
                           0x1'f81f   0x2a  Code  Lc  Os_Resource.o [17]
Os_TraceResourceTaken      0x1'f7f5   0x2a  Code  Lc  Os_Resource.o [17]
Os_TraceSpinlockReleased
                           0x2'4649   0x5e  Code  Lc  Os_Ioc.o [17]
Os_TraceSpinlockReleased
                           0x1'e6e7   0x5e  Code  Lc  Os_Spinlock.o [17]
Os_TraceSpinlockRequested
                           0x2'458d   0x5e  Code  Lc  Os_Ioc.o [17]
Os_TraceSpinlockRequested
                           0x1'e62b   0x5e  Code  Lc  Os_Spinlock.o [17]
Os_TraceSpinlockTaken      0x2'45eb   0x5e  Code  Lc  Os_Ioc.o [17]
Os_TraceSpinlockTaken      0x1'e689   0x5e  Code  Lc  Os_Spinlock.o [17]
Os_TraceTaskActivate       0x1'3fad   0x2a  Code  Lc  Os_Task.o [17]
Os_TraceTaskActivateLimit
                           0x1'3fd7   0x2a  Code  Lc  Os_Task.o [17]
Os_TraceTaskKill           0x1'3f51   0x5c  Code  Lc  Os_Task.o [17]
Os_TraceTaskSetEvent       0x2'6921   0x2a  Code  Lc  Os_Event.o [17]
Os_TraceTaskWaitEventNoWait
                           0x2'694b   0x2a  Code  Lc  Os_Event.o [17]
Os_TraceThreadCleanupAndResume
                           0x1'a15b   0x6c  Code  Lc  Os_Hook.o [17]
Os_TraceThreadCleanupAndResume
                           0x1'603b   0x6c  Code  Lc  Os_Isr.o [17]
Os_TraceThreadInit         0x1'a0cf   0x3e  Code  Lc  Os_Hook.o [17]
Os_TraceThreadInit         0x1'5ffd   0x3e  Code  Lc  Os_Isr.o [17]
Os_TraceThreadInit         0x1'3e21   0x3e  Code  Lc  Os_Task.o [17]
Os_TraceThreadInitAndStart
                           0x1'a10d   0x4e  Code  Lc  Os_Hook.o [17]
Os_TraceThreadResetAndResume
                           0x1'3ee7   0x6a  Code  Lc  Os_Task.o [17]
Os_TraceThreadResetAndResume
                           0x1'7455   0x6a  Code  Lc  Os_Thread.o [17]
Os_TraceThreadSuspendAndStart
                           0x1'60a7   0x6a  Code  Lc  Os_Isr.o [17]
Os_TraceThreadSwitch       0x1'780b   0x88  Code  Lc  Os_Application.o [17]
Os_TraceThreadSwitch       0x2'1f53   0x88  Code  Lc  Os_Counter.o [17]
Os_TraceThreadSwitch       0x2'6899   0x88  Code  Lc  Os_Event.o [17]
Os_TraceThreadSwitch       0x1'f76d   0x88  Code  Lc  Os_Resource.o [17]
Os_TraceThreadSwitch       0x1'e5a3   0x88  Code  Lc  Os_Spinlock.o [17]
Os_TraceThreadSwitch       0x1'3e5f   0x88  Code  Lc  Os_Task.o [17]
Os_TrapCallActivateTask
                           0x1'd233   0x20  Code  Lc  Os_Trap.o [17]
Os_TrapCallAllowAccess     0x1'c987   0x1a  Code  Lc  Os_Trap.o [17]
Os_TrapCallBarrierSynchronize
                           0x1'd213   0x20  Code  Lc  Os_Trap.o [17]
Os_TrapCallCallFastTrustedFunction
                           0x1'd0bf   0x24  Code  Lc  Os_Trap.o [17]
Os_TrapCallCallNonTrustedFunction
                           0x1'd09b   0x24  Code  Lc  Os_Trap.o [17]
Os_TrapCallCallTrustedFunction
                           0x1'd077   0x24  Code  Lc  Os_Trap.o [17]
Os_TrapCallCancelAlarm     0x1'c8c1   0x20  Code  Lc  Os_Trap.o [17]
Os_TrapCallChainTask       0x1'd26d   0x20  Code  Lc  Os_Trap.o [17]
Os_TrapCallCheckISRMemoryAccess
                           0x1'c801   0x28  Code  Lc  Os_Trap.o [17]
Os_TrapCallCheckObjectAccess
                           0x1'c939   0x2a  Code  Lc  Os_Trap.o [17]
Os_TrapCallCheckObjectOwnership
                           0x1'c963   0x24  Code  Lc  Os_Trap.o [17]
Os_TrapCallCheckTaskMemoryAccess
                           0x1'c7d9   0x28  Code  Lc  Os_Trap.o [17]
Os_TrapCallClearEvent      0x1'cbdb   0x22  Code  Lc  Os_Trap.o [17]
Os_TrapCallClearPendingInterrupt
                           0x1'cd6b   0x20  Code  Lc  Os_Trap.o [17]
Os_TrapCallControlIdle     0x1'caad   0x26  Code  Lc  Os_Trap.o [17]
Os_TrapCallDisableAllInterrupts
                           0x1'cc43   0x14  Code  Lc  Os_Trap.o [17]
Os_TrapCallDisableGlobal
                           0x1'ccbb   0x14  Code  Lc  Os_Trap.o [17]
Os_TrapCallDisableInterruptSource
                           0x1'cd25   0x20  Code  Lc  Os_Trap.o [17]
Os_TrapCallDisableLevel
                           0x1'cce3   0x14  Code  Lc  Os_Trap.o [17]
Os_TrapCallEnableAllInterrupts
                           0x1'cc57   0x14  Code  Lc  Os_Trap.o [17]
Os_TrapCallEnableGlobal
                           0x1'cccf   0x14  Code  Lc  Os_Trap.o [17]
Os_TrapCallEnableInterruptSource
                           0x1'cd45   0x26  Code  Lc  Os_Trap.o [17]
Os_TrapCallEnableLevel     0x1'ccf7   0x14  Code  Lc  Os_Trap.o [17]
Os_TrapCallGetActiveApplicationMode
                           0x1'ca45   0x1a  Code  Lc  Os_Trap.o [17]
Os_TrapCallGetAlarm        0x1'c84d   0x24  Code  Lc  Os_Trap.o [17]
Os_TrapCallGetAlarmBase
                           0x1'c829   0x24  Code  Lc  Os_Trap.o [17]
Os_TrapCallGetApplicationID
                           0x1'c8e1   0x1a  Code  Lc  Os_Trap.o [17]
Os_TrapCallGetApplicationState
                           0x1'c915   0x24  Code  Lc  Os_Trap.o [17]
Os_TrapCallGetCoreID       0x1'ca13   0x1a  Code  Lc  Os_Trap.o [17]
Os_TrapCallGetCounterValue
                           0x1'cb2f   0x24  Code  Lc  Os_Trap.o [17]
Os_TrapCallGetCurrentApplicationID
                           0x1'c8fb   0x1a  Code  Lc  Os_Trap.o [17]
Os_TrapCallGetDetailedError
                           0x1'cb7b   0x1e  Code  Lc  Os_Trap.o [17]
Os_TrapCallGetElapsedValue
                           0x1'cb53   0x28  Code  Lc  Os_Trap.o [17]
Os_TrapCallGetErrorHookStackUsage
                           0x1'd1b9   0x1e  Code  Lc  Os_Trap.o [17]
Os_TrapCallGetEvent        0x1'cbfd   0x24  Code  Lc  Os_Trap.o [17]
Os_TrapCallGetExceptionContext
                           0x1'c9c7   0x1e  Code  Lc  Os_Trap.o [17]
Os_TrapCallGetISRID        0x1'cd0b   0x1a  Code  Lc  Os_Trap.o [17]
Os_TrapCallGetISRStackUsage
                           0x1'd15f   0x1e  Code  Lc  Os_Trap.o [17]
Os_TrapCallGetKernelStackUsage
                           0x1'd17d   0x1e  Code  Lc  Os_Trap.o [17]
Os_TrapCallGetNumberOfActivatedCores
                           0x1'ca2d   0x18  Code  Lc  Os_Trap.o [17]
Os_TrapCallGetProtectionHookStackUsage
                           0x1'd1f5   0x1e  Code  Lc  Os_Trap.o [17]
Os_TrapCallGetResource     0x1'cf21   0x20  Code  Lc  Os_Trap.o [17]
Os_TrapCallGetScheduleTableStatus
                           0x1'd053   0x24  Code  Lc  Os_Trap.o [17]
Os_TrapCallGetShutdownHookStackUsage
                           0x1'd1d7   0x1e  Code  Lc  Os_Trap.o [17]
Os_TrapCallGetSpinlock     0x1'd0e3   0x1e  Code  Lc  Os_Trap.o [17]
Os_TrapCallGetStartupHookStackUsage
                           0x1'd19b   0x1e  Code  Lc  Os_Trap.o [17]
Os_TrapCallGetTaskID       0x1'd2a7   0x1e  Code  Lc  Os_Trap.o [17]
Os_TrapCallGetTaskStackUsage
                           0x1'd141   0x1e  Code  Lc  Os_Trap.o [17]
Os_TrapCallGetTaskState
                           0x1'd2c5   0x24  Code  Lc  Os_Trap.o [17]
Os_TrapCallGetUnhandledExc
                           0x1'caf1   0x1e  Code  Lc  Os_Trap.o [17]
Os_TrapCallGetUnhandledIrq
                           0x1'cad3   0x1e  Code  Lc  Os_Trap.o [17]
Os_TrapCallIncrementCounter
                           0x1'cb0f   0x20  Code  Lc  Os_Trap.o [17]
Os_TrapCallInit            0x1'ca0b    0x8  Code  Lc  Os_Trap.o [17]
Os_TrapCallInitMemory      0x1'ca03    0x8  Code  Lc  Os_Trap.o [17]
Os_TrapCallIsInterruptPending
                           0x1'cdaf   0x24  Code  Lc  Os_Trap.o [17]
Os_TrapCallIsInterruptSourceEnabled
                           0x1'cd8b   0x24  Code  Lc  Os_Trap.o [17]
Os_TrapCallModifyPeripheral16
                           0x1'ced1   0x2a  Code  Lc  Os_Trap.o [17]
Os_TrapCallModifyPeripheral32
                           0x1'cefb   0x26  Code  Lc  Os_Trap.o [17]
Os_TrapCallModifyPeripheral8
                           0x1'cea7   0x2a  Code  Lc  Os_Trap.o [17]
Os_TrapCallNextScheduleTable
                           0x1'cfc9   0x26  Code  Lc  Os_Trap.o [17]
Os_TrapCallOSErrorGetServiceId
                           0x1'cb99   0x1a  Code  Lc  Os_Trap.o [17]
Os_TrapCallReadPeripheral16
                           0x1'cdf7   0x24  Code  Lc  Os_Trap.o [17]
Os_TrapCallReadPeripheral32
                           0x1'ce1b   0x22  Code  Lc  Os_Trap.o [17]
Os_TrapCallReadPeripheral8
                           0x1'cdd3   0x24  Code  Lc  Os_Trap.o [17]
Os_TrapCallReleaseResource
                           0x1'cf41   0x20  Code  Lc  Os_Trap.o [17]
Os_TrapCallReleaseSpinlock
                           0x1'd101   0x1e  Code  Lc  Os_Trap.o [17]
Os_TrapCallResumeAllInterrupts
                           0x1'cc7f   0x14  Code  Lc  Os_Trap.o [17]
Os_TrapCallResumeOSInterrupts
                           0x1'cca7   0x14  Code  Lc  Os_Trap.o [17]
Os_TrapCallSchedule        0x1'd28d   0x1a  Code  Lc  Os_Trap.o [17]
Os_TrapCallSetAbsAlarm     0x1'c899   0x28  Code  Lc  Os_Trap.o [17]
Os_TrapCallSetEvent        0x1'cbb3   0x28  Code  Lc  Os_Trap.o [17]
Os_TrapCallSetExceptionContext
                           0x1'c9e5   0x1e  Code  Lc  Os_Trap.o [17]
Os_TrapCallSetRelAlarm     0x1'c871   0x28  Code  Lc  Os_Trap.o [17]
Os_TrapCallSetScheduleTableAsync
                           0x1'd033   0x20  Code  Lc  Os_Trap.o [17]
Os_TrapCallShutdownAllCores
                           0x1'ca93   0x1a  Code  Lc  Os_Trap.o [17]
Os_TrapCallShutdownOS      0x1'ca79   0x1a  Code  Lc  Os_Trap.o [17]
Os_TrapCallStartOS         0x1'ca5f   0x1a  Code  Lc  Os_Trap.o [17]
Os_TrapCallStartScheduleTableAbs
                           0x1'cf85   0x24  Code  Lc  Os_Trap.o [17]
Os_TrapCallStartScheduleTableRel
                           0x1'cf61   0x24  Code  Lc  Os_Trap.o [17]
Os_TrapCallStartScheduleTableSynchron
                           0x1'cfef   0x20  Code  Lc  Os_Trap.o [17]
Os_TrapCallStopScheduleTable
                           0x1'cfa9   0x20  Code  Lc  Os_Trap.o [17]
Os_TrapCallSuspendAllInterrupts
                           0x1'cc6b   0x14  Code  Lc  Os_Trap.o [17]
Os_TrapCallSuspendOSInterrupts
                           0x1'cc93   0x14  Code  Lc  Os_Trap.o [17]
Os_TrapCallSyncScheduleTable
                           0x1'd00f   0x24  Code  Lc  Os_Trap.o [17]
Os_TrapCallTerminateApplication
                           0x1'c9a1   0x26  Code  Lc  Os_Trap.o [17]
Os_TrapCallTerminateTask
                           0x1'd253   0x1a  Code  Lc  Os_Trap.o [17]
Os_TrapCallTryToGetSpinlock
                           0x1'd11f   0x22  Code  Lc  Os_Trap.o [17]
Os_TrapCallWaitEvent       0x1'cc21   0x22  Code  Lc  Os_Trap.o [17]
Os_TrapCallWritePeripheral16
                           0x1'ce61   0x24  Code  Lc  Os_Trap.o [17]
Os_TrapCallWritePeripheral32
                           0x1'ce85   0x22  Code  Lc  Os_Trap.o [17]
Os_TrapCallWritePeripheral8
                           0x1'ce3d   0x24  Code  Lc  Os_Trap.o [17]
Os_TrapErrApplicationError
                           0x1'd2e9   0x48  Code  Gb  Os_Trap.o [17]
Os_TrapHandler             0x1'd88b  0x7c8  Code  Gb  Os_Trap.o [17]
Os_TrapHookReturn          0x1'd385   0x2a  Code  Gb  Os_Trap.o [17]
Os_TrapIsCurrentThreadPrivileged
                           0x1'c76f   0x10  Code  Lc  Os_Trap.o [17]
Os_TrapIsTrapForWriteAccessRequired
                           0x1'c729   0x46  Code  Lc  Os_Trap.o [17]
Os_TrapIsrEpilogue         0x1'd331   0x2a  Code  Gb  Os_Trap.o [17]
Os_TrapMpSwitchToCaller
                           0x1'c7b9   0x20  Code  Lc  Os_Trap.o [17]
Os_TrapMpSwitchToOs        0x1'c77f   0x3a  Code  Lc  Os_Trap.o [17]
Os_TrapTaskMissingTerminateTask
                           0x1'd35b   0x2a  Code  Gb  Os_Trap.o [17]
Os_UnhandledExc            0x1'99e3   0x44  Code  Gb  Os_Core.o [17]
Os_UnhandledIrq            0x1'997b   0x2e  Code  Gb  Os_Core.o [17]
Os_UnhandledSysCall        0x1'9a63   0x30  Code  Gb  Os_Core.o [17]
Os_XSigChannelFreeResult
                           0x1'af25    0xe  Code  Lc  Os_XSignal.o [17]
Os_XSigChannelGetResult
                           0x1'aefb   0x2a  Code  Lc  Os_XSignal.o [17]
Os_XSigChannelGetSendElement
                           0x1'ae9b   0x54  Code  Lc  Os_XSignal.o [17]
Os_XSigChannelIdxIncrement
                           0x1'ae43   0x2e  Code  Lc  Os_XSignal.o [17]
Os_XSigChannelIsRequestHandled
                           0x1'af49   0x84  Code  Lc  Os_XSignal.o [17]
Os_XSigChannelIsResultAvailable
                           0x1'af33   0x16  Code  Lc  Os_XSignal.o [17]
Os_XSigChannelReceiveInit
                           0x1'afcd    0x8  Code  Lc  Os_XSignal.o [17]
Os_XSigChannelSend         0x1'aeef    0xc  Code  Lc  Os_XSignal.o [17]
Os_XSigChannelSendInit     0x1'ae71   0x2a  Code  Lc  Os_XSignal.o [17]
Os_XSigFunctionIdx2SerciceId
                           0x1'b143   0x1a  Code  Lc  Os_XSignal.o [17]
Os_XSigGetRecvIsr          0x1'b073   0x24  Code  Lc  Os_XSignal.o [17]
Os_XSigGetRecvIsrCount     0x1'b06f    0x4  Code  Lc  Os_XSignal.o [17]
Os_XSigGetSendPort         0x1'b053   0x1c  Code  Lc  Os_XSignal.o [17]
Os_XSigGetSendPortToCore
                           0x1'b097   0x32  Code  Lc  Os_XSignal.o [17]
Os_XSigHandleResults       0x1'b165   0x98  Code  Lc  Os_XSignal.o [17]
Os_XSigInit                0x1'b239   0x48  Code  Gb  Os_XSignal.o [17]
Os_XSigIsEnabled           0x1'b04f    0x4  Code  Lc  Os_XSignal.o [17]
Os_XSigIsrInit             0x1'b211   0x28  Code  Lc  Os_XSignal.o [17]
Os_XSigRecvPortInit        0x1'b209    0x8  Code  Lc  Os_XSignal.o [17]
Os_XSigSend                0x2'2d6b   0x3c  Code  Lc  Os_Alarm.o [17]
Os_XSigSend                0x1'8da5   0x3c  Code  Lc  Os_Core.o [17]
Os_XSigSend                0x2'6a05   0x3c  Code  Lc  Os_Event.o [17]
Os_XSigSend                0x2'367d   0x3c  Code  Lc  Os_ScheduleTable.o [17]
Os_XSigSend                0x1'444f   0x3c  Code  Lc  Os_Task.o [17]
Os_XSigSendAsync           0x1'b281   0x3e  Code  Gb  Os_XSignal.o [17]
Os_XSigSendInternal        0x1'b0c9   0x7a  Code  Lc  Os_XSignal.o [17]
Os_XSigSendPortInit        0x1'b1fd    0xc  Code  Lc  Os_XSignal.o [17]
Os_XSigSendSync            0x1'b2bf   0x8e  Code  Gb  Os_XSignal.o [17]
Os_XSigSend_ActivateTask
                           0x1'448b   0x14  Code  Lc  Os_Task.o [17]
Os_XSigSend_CancelAlarm
                           0x2'2dfb   0x14  Code  Lc  Os_Alarm.o [17]
Os_XSigSend_ControlIdle
                           0x1'8de1   0x1a  Code  Lc  Os_Core.o [17]
Os_XSigSend_GetAlarm       0x2'2da7   0x20  Code  Lc  Os_Alarm.o [17]
Os_XSigSend_GetApplicationState
                           0x1'79af   0x22  Code  Lc  Os_Application.o [17]
Os_XSigSend_GetCounterValue
                           0x2'19ed   0x20  Code  Lc  Os_Counter.o [17]
Os_XSigSend_GetErrorHookStackUsage
                           0x2'5d27   0x20  Code  Lc  Os_Stack.o [17]
Os_XSigSend_GetEvent       0x2'6a79   0x24  Code  Lc  Os_Event.o [17]
Os_XSigSend_GetISRStackUsage
                           0x2'5cc7   0x20  Code  Lc  Os_Stack.o [17]
Os_XSigSend_GetKernelStackUsage
                           0x2'5ce7   0x20  Code  Lc  Os_Stack.o [17]
Os_XSigSend_GetProtectionHookStackUsage
                           0x2'5d67   0x20  Code  Lc  Os_Stack.o [17]
Os_XSigSend_GetScheduleTableStatus
                           0x2'3711   0x22  Code  Lc  Os_ScheduleTable.o [17]
Os_XSigSend_GetShutdownHookStackUsage
                           0x2'5d47   0x20  Code  Lc  Os_Stack.o [17]
Os_XSigSend_GetStartupHookStackUsage
                           0x2'5d07   0x20  Code  Lc  Os_Stack.o [17]
Os_XSigSend_GetTaskStackUsage
                           0x2'5ca7   0x20  Code  Lc  Os_Stack.o [17]
Os_XSigSend_GetTaskState
                           0x1'449f   0x22  Code  Lc  Os_Task.o [17]
Os_XSigSend_HookCallCallbackAsync
                           0x1'9d65   0x12  Code  Lc  Os_Hook.o [17]
Os_XSigSend_NextScheduleTable
                           0x2'36f9   0x18  Code  Lc  Os_ScheduleTable.o [17]
Os_XSigSend_SetAbsAlarm
                           0x2'2de1   0x1a  Code  Lc  Os_Alarm.o [17]
Os_XSigSend_SetEvent       0x2'6a41   0x1c  Code  Lc  Os_Event.o [17]
Os_XSigSend_SetEventAsync
                           0x2'6a5d   0x1c  Code  Lc  Os_Event.o [17]
Os_XSigSend_SetRelAlarm
                           0x2'2dc7   0x1a  Code  Lc  Os_Alarm.o [17]
Os_XSigSend_ShutdownAllCores
                           0x1'8dfb   0x16  Code  Lc  Os_Core.o [17]
Os_XSigSend_StartScheduleTableAbs
                           0x2'36cf   0x16  Code  Lc  Os_ScheduleTable.o [17]
Os_XSigSend_StartScheduleTableRel
                           0x2'36b9   0x16  Code  Lc  Os_ScheduleTable.o [17]
Os_XSigSend_StopScheduleTable
                           0x2'36e5   0x14  Code  Lc  Os_ScheduleTable.o [17]
Os_XSigSend_TerminateApplication
                           0x1'798b   0x24  Code  Lc  Os_Application.o [17]
Os_XSigUseAsynchronous     0x2'2d67    0x4  Code  Lc  Os_Alarm.o [17]
Os_XSigUseAsynchronous     0x1'8da1    0x4  Code  Lc  Os_Core.o [17]
Os_XSigUseAsynchronous     0x2'6a01    0x4  Code  Lc  Os_Event.o [17]
Os_XSigUseAsynchronous     0x2'3679    0x4  Code  Lc  Os_ScheduleTable.o [17]
Os_XSigUseAsynchronous     0x1'444b    0x4  Code  Lc  Os_Task.o [17]
PCC_ClockConfigPB0_0       0x2'98dc    0x8  Data  Lc  Mcu_PBcfg.o [3]
PCC_aRegistersConfigPB0_0
                           0x2'97dc  0x100  Data  Lc  Mcu_PBcfg.o [3]
PDB0_IRQHandler            0x1'35d1         Code  Wk  startup_S32K148.o [20]
PDB1_IRQHandler            0x1'35d1         Code  Wk  startup_S32K148.o [20]
PMC_ConfigPB0              0x2'991c    0x4  Data  Lc  Mcu_PBcfg.o [3]
PORTA_IRQHandler           0x1'35d1         Code  Wk  startup_S32K148.o [20]
PORTB_IRQHandler           0x1'35d1         Code  Wk  startup_S32K148.o [20]
PORTC_IRQHandler           0x1'35d1         Code  Wk  startup_S32K148.o [20]
PORTD_IRQHandler           0x1'35d1         Code  Wk  startup_S32K148.o [20]
PORTE_IRQHandler           0x1'35d1         Code  Wk  startup_S32K148.o [20]
PduR_CanIfRxIndication     0x1'21c9   0x12  Code  Gb  PduR_Lcfg.o [2]
PduR_CanIfTxConfirmation
                           0x1'21db    0xa  Code  Gb  PduR_Lcfg.o [2]
PduR_CanTpCopyRxData       0x1'2205   0x1a  Code  Gb  PduR_Lcfg.o [2]
PduR_CanTpCopyTxData       0x1'221f   0x1e  Code  Gb  PduR_Lcfg.o [2]
PduR_CanTpRxIndication     0x1'223d   0x14  Code  Gb  PduR_Lcfg.o [2]
PduR_CanTpStartOfReception
                           0x1'21e5   0x20  Code  Gb  PduR_Lcfg.o [2]
PduR_CanTpTxConfirmation
                           0x1'2251   0x14  Code  Gb  PduR_Lcfg.o [2]
PduR_ComTransmit           0x1'219d   0x16  Code  Gb  PduR_Lcfg.o [2]
PduR_DcmTransmit           0x1'21b3   0x16  Code  Gb  PduR_Lcfg.o [2]
PduR_ExclusiveAreaRom      0x2'996c    0x8  Data  Gb  PduR_Lcfg.o [2]
PduR_Init                    0x9a95   0x38  Code  Gb  PduR.o [18]
PduR_InitMemory              0x9ae5    0x8  Code  Gb  PduR.o [18]
PduR_Initialized        0x1fff'bbc7    0x1  Data  Gb  PduR_Lcfg.o [2]
PduR_LoIfRxIndication        0x97b5   0x42  Code  Gb  PduR.o [18]
PduR_LoIfTxConfirmation
                             0x97f7   0x4a  Code  Gb  PduR.o [18]
PduR_LoTpCopyRxData          0x98e7   0x92  Code  Gb  PduR.o [18]
PduR_LoTpCopyTxData          0x9979   0x5e  Code  Gb  PduR.o [18]
PduR_LoTpRxIndication        0x99d7   0x7a  Code  Gb  PduR.o [18]
PduR_LoTpStartOfReception
                             0x9841   0xa6  Code  Gb  PduR.o [18]
PduR_LoTpTxConfirmation
                             0x9a51   0x44  Code  Gb  PduR.o [18]
PduR_Lock_Lock             0x1'2f89   0x12  Code  Lc  PduR_Lock.o [18]
PduR_Lock_LockRoutingPathByDestPdu
                           0x1'2faf   0x24  Code  Gb  PduR_Lock.o [18]
PduR_Lock_LockRoutingPathByGDestPdu
                           0x1'2ff7   0x1a  Code  Gb  PduR_Lock.o [18]
PduR_Lock_Unlock           0x1'2f9b   0x14  Code  Lc  PduR_Lock.o [18]
PduR_Lock_UnlockRoutingPathByDestPdu
                           0x1'2fd3   0x24  Code  Gb  PduR_Lock.o [18]
PduR_Lock_UnlockRoutingPathByGDestPdu
                           0x1'3011   0x1a  Code  Gb  PduR_Lock.o [18]
PduR_MmRom                 0x2'9974   0xa0  Data  Gb  PduR_Lcfg.o [2]
PduR_RmDestRom             0x2'9a14   0x14  Data  Gb  PduR_Lcfg.o [2]
PduR_RmGDestRom            0x2'9a28   0x20  Data  Gb  PduR_Lcfg.o [2]
PduR_RmIf_DispatchIfDestPdu
                           0x1'236b   0x7c  Code  Gb  PduR_RmIf.o [18]
PduR_RmIf_MultipleSourceHandler_Transmit
                           0x1'2271   0x50  Code  Lc  PduR_RmIf.o [18]
PduR_RmIf_MultipleSourceHandler_TxConfirmation
                           0x1'22c1   0x70  Code  Gb  PduR_RmIf.o [18]
PduR_RmIf_RxIndication_MultiIf
                           0x1'2331   0x3a  Code  Gb  PduR_RmIf.o [18]
PduR_RmSrcRom              0x2'9a48   0x18  Data  Gb  PduR_Lcfg.o [2]
PduR_RmTp_MultipleSourceHandler_CopyTxData
                           0x1'24bf   0x92  Code  Gb  PduR_RmTp.o [18]
PduR_RmTp_MultipleSourceHandler_TpTxConfirmation
                           0x1'2447   0x78  Code  Gb  PduR_RmTp.o [18]
PduR_RmTp_MultipleSourceHandler_Transmit
                           0x1'23f9   0x4e  Code  Lc  PduR_RmTp.o [18]
PduR_RmTp_Transmit_MultiDest
                           0x1'2551   0x54  Code  Gb  PduR_RmTp.o [18]
PduR_RmTransmitFctPtr      0x2'9a60    0x8  Data  Gb  PduR_Lcfg.o [2]
PduR_Rm_GetSrcDestPdu        0x9acd   0x18  Code  Gb  PduR.o [18]
PduR_SchM_Enter_PduR_PDUR_EXCLUSIVE_AREA_0
                           0x1'218d    0x8  Code  Lc  PduR_Lcfg.o [2]
PduR_SchM_Exit_PduR_PDUR_EXCLUSIVE_AREA_0
                           0x1'2195    0x8  Code  Lc  PduR_Lcfg.o [2]
PduR_Tx2Lo                 0x2'9a68    0x4  Data  Gb  PduR_Lcfg.o [2]
PduR_TxIf2Up               0x2'9cc0    0x2  Data  Gb  PduR_Lcfg.o [2]
PduR_UpTransmit              0x9759   0x5c  Code  Gb  PduR.o [18]
PendSV_Handler             0x1'35cd         Code  Wk  startup_S32K148.o [20]
PortConfigSet              0x2'9bc0   0x18  Data  Gb  Port_PBcfg.o [3]
Port_Init                  0x1'1115   0x22  Code  Gb  Port.o [23]
Port_Port_Ci_Init          0x1'2957   0x92  Code  Gb  Port_Port_Ci.o [23]
Port_Port_Ci_Init_ConfiguredPins
                           0x1'2833  0x124  Code  Lc  Port_Port_Ci.o [23]
Port_Port_Ci_Init_UnusedPins
                           0x1'272d  0x106  Code  Lc  Port_Port_Ci.o [23]
Port_Port_Ci_au16GpioDirChangeability
                        0x1fff'bad8   0x14  Data  Lc  Port_Port_Ci.o [23]
Port_UnUsedPin             0x2'9b08    0x8  Data  Lc  Port_PBcfg.o [3]
Port_aPinConfigDefault     0x2'9b10   0xb0  Data  Lc  Port_PBcfg.o [3]
Port_au16NoUnUsedPadsArrayDefault
                           0x2'9a6c   0x9c  Data  Lc  Port_PBcfg.o [3]
Port_pConfig            0x1fff'bad4    0x4  Data  Gb  Port.o [23]
QSPI_IRQHandler            0x1'35d1         Code  Wk  startup_S32K148.o [20]
RCM_IRQHandler             0x1'35d1         Code  Wk  startup_S32K148.o [20]
RCM_ResetConfigPB0         0x2'98f8    0x8  Data  Lc  Mcu_PBcfg.o [3]
RTC_IRQHandler             0x1'35d1         Code  Wk  startup_S32K148.o [20]
RTC_Seconds_IRQHandler     0x1'35d1         Code  Wk  startup_S32K148.o [20]
Read_Collision_IRQHandler
                           0x1'35d1         Code  Wk  startup_S32K148.o [20]
Region$$Table$$Base             0x0          --   Gb  - Linker created -
Region$$Table$$Limit            0x0          --   Gb  - Linker created -
Request_ESH_PostRunRequest_0_requestedMode
                        0x1fff'bb9b    0x1  Data  Lc  BswM_Lcfg.o [2]
Request_ESH_PostRunRequest_1_requestedMode
                        0x1fff'bb9c    0x1  Data  Lc  BswM_Lcfg.o [2]
Request_ESH_RunRequest_0_requestedMode
                        0x1fff'bb99    0x1  Data  Lc  BswM_Lcfg.o [2]
Request_ESH_RunRequest_1_requestedMode
                        0x1fff'bb9a    0x1  Data  Lc  BswM_Lcfg.o [2]
Reserved100_IRQHandler     0x1'35d1         Code  Wk  startup_S32K148.o [20]
Reserved103_IRQHandler     0x1'35d1         Code  Wk  startup_S32K148.o [20]
Reserved106_IRQHandler     0x1'35d1         Code  Wk  startup_S32K148.o [20]
Reserved107_IRQHandler     0x1'35d1         Code  Wk  startup_S32K148.o [20]
Reserved110_IRQHandler     0x1'35d1         Code  Wk  startup_S32K148.o [20]
Reserved113_IRQHandler     0x1'35d1         Code  Wk  startup_S32K148.o [20]
Reserved114_IRQHandler     0x1'35d1         Code  Wk  startup_S32K148.o [20]
Reserved48_IRQHandler      0x1'35d1         Code  Wk  startup_S32K148.o [20]
Reserved50_IRQHandler      0x1'35d1         Code  Wk  startup_S32K148.o [20]
Reserved52_IRQHandler      0x1'35d1         Code  Wk  startup_S32K148.o [20]
Reserved53_IRQHandler      0x1'35d1         Code  Wk  startup_S32K148.o [20]
Reserved54_IRQHandler      0x1'35d1         Code  Wk  startup_S32K148.o [20]
Reserved58_IRQHandler      0x1'35d1         Code  Wk  startup_S32K148.o [20]
Reserved59_IRQHandler      0x1'35d1         Code  Wk  startup_S32K148.o [20]
Reserved69_IRQHandler      0x1'35d1         Code  Wk  startup_S32K148.o [20]
Reserved70_IRQHandler      0x1'35d1         Code  Wk  startup_S32K148.o [20]
Reserved82_IRQHandler      0x1'35d1         Code  Wk  startup_S32K148.o [20]
Reserved83_IRQHandler      0x1'35d1         Code  Wk  startup_S32K148.o [20]
Reserved99_IRQHandler      0x1'35d1         Code  Wk  startup_S32K148.o [20]
Reset_Handler              0x1'346d         Code  Wk  startup_S32K148.o [20]
ResumeAllInterrupts        0x1'd42f   0x2e  Code  Gb  Os_Trap.o [17]
ResumeOSInterrupts         0x1'd48b   0x2e  Code  Gb  Os_Trap.o [17]
Rte_AckFlags            0x1fff'baec    0x4  Data  Gb  Rte.o [2]
Rte_Call_Dcm_DataServices_Diag_RWDI_LightOnOffCounter_LightOnOffCounter_Value_ConditionCheckRead
                             0x275b    0x8  Code  Gb  Rte.o [2]
Rte_Call_Dcm_DataServices_Diag_RWDI_LightOnOffCounter_LightOnOffCounter_Value_ReadData
                             0x2763    0x8  Code  Gb  Rte.o [2]
Rte_Call_Dcm_DataServices_Diag_RWDI_LightOnOffCounter_LightOnOffCounter_Value_WriteData
                             0x276b    0x8  Code  Gb  Rte.o [2]
Rte_Call_Dcm_SecurityAccess_Level_01_CompareKey
                             0x2773    0x8  Code  Gb  Rte.o [2]
Rte_Call_Dcm_SecurityAccess_Level_01_GetSeed
                             0x277b    0x8  Code  Gb  Rte.o [2]
Rte_Call_DemMaster_0_CBReadData_OccurrenceCounter_OccurenceCounter_ReadData
                             0x2783    0x8  Code  Gb  Rte.o [2]
Rte_Call_DemMaster_0_CBReadData_OdometerValue_OdometerValue_ReadData
                             0x278b    0x8  Code  Gb  Rte.o [2]
Rte_InitMemory               0x2739    0x2  Code  Gb  Rte.o [2]
Rte_MemClr                   0x26ad   0x10  Code  Gb  Rte.o [2]
Rte_ModeMachine_BswM_Switch_ESH_ModeSwitch_BswM_MDGP_ESH_Mode
                        0x1fff'bbc8    0x1  Data  Gb  Rte.o [2]
Rte_Mode_BswM_Notification_ESH_ModeNotification_BswM_MDGP_ESH_Mode
                             0x27cb    0x8  Code  Gb  Rte.o [2]
Rte_Read_BswM_Request_ESH_PostRunRequest_0_requestedMode
                             0x273b    0x8  Code  Gb  Rte.o [2]
Rte_Read_BswM_Request_ESH_PostRunRequest_1_requestedMode
                             0x2743    0x8  Code  Gb  Rte.o [2]
Rte_Read_BswM_Request_ESH_RunRequest_0_requestedMode
                             0x274b    0x8  Code  Gb  Rte.o [2]
Rte_Read_BswM_Request_ESH_RunRequest_1_requestedMode
                             0x2753    0x8  Code  Gb  Rte.o [2]
Rte_Start                    0x26e5   0x3e  Code  Gb  Rte.o [2]
Rte_SwitchAck_Dcm_DcmEcuReset_DcmEcuReset
                             0x27dd    0x4  Code  Gb  Rte.o [2]
Rte_Switch_BswM_Switch_ESH_ModeSwitch_BswM_MDGP_ESH_Mode
                             0x2793   0x38  Code  Gb  Rte.o [2]
Rte_Switch_Dcm_DcmControlDtcSetting_DcmControlDtcSetting
                             0x27e1    0x8  Code  Gb  Rte.o [2]
Rte_Switch_Dcm_DcmDiagnosticSessionControl_DcmDiagnosticSessionControl
                             0x27e9    0x8  Code  Gb  Rte.o [2]
Rte_Switch_Dcm_DcmEcuReset_DcmEcuReset
                             0x27f1    0x8  Code  Gb  Rte.o [2]
SAI0_Rx_IRQHandler         0x1'35d1         Code  Wk  startup_S32K148.o [20]
SAI0_Tx_IRQHandler         0x1'35d1         Code  Wk  startup_S32K148.o [20]
SAI1_Rx_IRQHandler         0x1'35d1         Code  Wk  startup_S32K148.o [20]
SAI1_Tx_IRQHandler         0x1'35d1         Code  Wk  startup_S32K148.o [20]
SCG_ClockConfigPB0_0       0x2'97bc   0x20  Data  Lc  Mcu_PBcfg.o [3]
SCG_IRQHandler             0x1'35d1         Code  Wk  startup_S32K148.o [20]
SIM_ClockConfigPB0_0       0x2'9750    0xc  Data  Lc  Mcu_PBcfg.o [3]
SIM_ConfigPB0              0x2'9900   0x1c  Data  Lc  Mcu_PBcfg.o [3]
SIRC_ClockConfigPB0_0      0x2'9774   0x18  Data  Lc  Mcu_PBcfg.o [3]
SMC_ConfigPB0              0x2'9920    0x4  Data  Lc  Mcu_PBcfg.o [3]
SOSC_ClockConfigPB0_0      0x2'975c   0x18  Data  Lc  Mcu_PBcfg.o [3]
SPLL_ClockConfigPB0_0      0x2'97a4   0x18  Data  Lc  Mcu_PBcfg.o [3]
SVC_Handler                0x1'3557         Code  Wk  startup_S32K148.o [20]
SWI_IRQHandler             0x1'35d1         Code  Wk  startup_S32K148.o [20]
Sbc_Test_Runnable          0x1'1b99   0x50  Code  Gb  CddSbc.o [4]
Sbc_Test_Runnable::sbcReadData
                        0x1fff'b804    0x4  Data  Lc  CddSbc.o [4]
SchM_Deinit                  0x2723   0x16  Code  Gb  Rte.o [2]
SchM_Enter_CanIf_CANIF_EXCLUSIVE_AREA_0
                              0x68f   0x18  Code  Gb  BrsAsrMain.o [1]
SchM_Enter_CanSM_CANSM_EXCLUSIVE_AREA_1
                              0x6c5    0x2  Code  Gb  BrsAsrMain.o [1]
SchM_Enter_Can_CAN_EXCLUSIVE_AREA_6
                              0x65f   0x18  Code  Gb  BrsAsrMain.o [1]
SchM_Enter_ComM_COMM_EXCLUSIVE_AREA_1
                              0x6c9    0x2  Code  Gb  BrsAsrMain.o [1]
SchM_Exit_CanIf_CANIF_EXCLUSIVE_AREA_0
                              0x6a7   0x18  Code  Gb  BrsAsrMain.o [1]
SchM_Exit_CanSM_CANSM_EXCLUSIVE_AREA_1
                              0x6c7    0x2  Code  Gb  BrsAsrMain.o [1]
SchM_Exit_Can_CAN_EXCLUSIVE_AREA_6
                              0x677   0x18  Code  Gb  BrsAsrMain.o [1]
SchM_Exit_ComM_COMM_EXCLUSIVE_AREA_1
                              0x6cb    0x2  Code  Gb  BrsAsrMain.o [1]
SchM_Init                    0x26bd   0x28  Code  Gb  Rte.o [2]
SetRelAlarm                0x1'd791   0x5e  Code  Gb  Os_Trap.o [17]
ShutdownOS                 0x1'd3c9   0x38  Code  Gb  Os_Trap.o [17]
SpiAttributesConfig_PB0
                           0x2'9c70    0x8  Data  Lc  Spi_PBcfg.o [3]
SpiChannelConfig_PB0       0x2'9c0c    0xc  Data  Lc  Spi_PBcfg.o [3]
SpiJobConfig_PB0           0x2'9c18   0x30  Data  Lc  Spi_PBcfg.o [3]
SpiJob_0_ChannelAssignment_PB
                           0x2'9cd0    0x1  Data  Lc  Spi_PBcfg.o [3]
SpiSequenceConfig_PB0      0x2'9c48   0x10  Data  Lc  Spi_PBcfg.o [3]
SpiSequence_0_SBC_JobAssignment_PB
                           0x2'9cc2    0x2  Data  Lc  Spi_PBcfg.o [3]
Spi_Init                   0x1'113d   0xf2  Code  Gb  Spi.o [24]
Spi_LPspi_DeInit           0x1'2adf   0x32  Code  Gb  Spi_LPspi.o [24]
Spi_LPspi_Init             0x1'2a05   0xda  Code  Gb  Spi_LPspi.o [24]
Spi_LPspi_SyncTransmit     0x1'2b11  0x118  Code  Gb  Spi_LPspi.o [24]
Spi_LPspi_SyncTransmitJob
                           0x1'2c29  0x176  Code  Lc  Spi_LPspi.o [24]
Spi_LPspi_SyncTransmitRX
                           0x1'2e0d  0x112  Code  Lc  Spi_LPspi.o [24]
Spi_LPspi_SyncTransmitState
                        0x1fff'bb00   0x2c  Data  Lc  Spi_LPspi.o [24]
Spi_LPspi_SyncTransmitTX
                           0x1'2d9f   0x6e  Code  Lc  Spi_LPspi.o [24]
Spi_LPspi_aDeviceState  0x1fff'bb30   0x38  Data  Gb  Spi_LPspi.o [24]
Spi_LPspi_au32BaseAddrs
                           0x2'9bd8   0x34  Data  Gb  Spi_LPspi.o [24]
Spi_LPspi_u32ReadDiscard
                        0x1fff'bb2c    0x4  Data  Lc  Spi_LPspi.o [24]
Spi_PBCfgVariantPredefined
                           0x2'9c80   0x1c  Data  Gb  Spi_PBcfg.o [3]
Spi_SetupEB                0x1'122f  0x106  Code  Gb  Spi.o [24]
Spi_SyncTransmit           0x1'1335  0x188  Code  Gb  Spi.o [24]
Spi_aSpiChannelState    0x1fff'baf4    0x4  Data  Gb  Spi.o [24]
Spi_aSpiHWUnitQueueArray
                        0x1fff'bbc9    0x1  Data  Lc  Spi.o [24]
Spi_aSpiJobState        0x1fff'bbcb    0x1  Data  Gb  Spi.o [24]
Spi_aSpiSequenceState   0x1fff'bbca    0x1  Data  Gb  Spi.o [24]
Spi_au32SpiSeqUsedHWUnits
                        0x1fff'baf8    0x4  Data  Lc  Spi.o [24]
Spi_pcSpiConfigPtr      0x1fff'baf0    0x4  Data  Gb  Spi.o [24]
Spi_u32SpiBusySyncHWUnitsStatus
                        0x1fff'bafc    0x4  Data  Lc  Spi.o [24]
StartOS                    0x1'd3bf    0xa  Code  Gb  Os_Trap.o [17]
Startup_Code$$Base            0x628          --   Gb  - Linker created -
Startup_Code$$Limit           0x628          --   Gb  - Linker created -
Startup_Stack$$Base     0x1fff'a800          --   Gb  - Linker created -
Startup_Stack$$Limit    0x1fff'b000          --   Gb  - Linker created -
SuspendAllInterrupts       0x1'd401   0x2e  Code  Gb  Os_Trap.o [17]
SuspendOSInterrupts        0x1'd45d   0x2e  Code  Gb  Os_Trap.o [17]
SysTick_Handler            0x1'35cf         Code  Wk  startup_S32K148.o [20]
SystemInit                 0x1'34a9   0x2e  Code  Gb  system_S32K148.o [20]
TerminateTask              0x1'd55b   0x3c  Code  Gb  Os_Trap.o [17]
UsageFault_Handler         0x1'352f         Code  Wk  startup_S32K148.o [20]
VStdLib_Loc_MemCpy_32_Aligned
                           0x1'1e19   0x84  Code  Lc  vstdlib.o [19]
VStdLib_Loc_MemCpy_32_Unaligned
                           0x1'1ee1  0x204  Code  Lc  vstdlib.o [19]
VStdLib_Loc_MemCpy_8_3     0x1'1d1d   0x1c  Code  Lc  vstdlib.o [19]
VStdLib_Loc_MemCpy_8_31
                           0x1'1d39   0xe0  Code  Lc  vstdlib.o [19]
VStdLib_Loc_MemCpy_8_PartialWord
                           0x1'1e9d   0x44  Code  Lc  vstdlib.o [19]
VStdLib_Loc_MemSet_32_Aligned
                           0x1'1ca1   0x7c  Code  Lc  vstdlib.o [19]
VStdLib_Loc_MemSet_8_3     0x1'1be9   0x16  Code  Lc  vstdlib.o [19]
VStdLib_Loc_MemSet_8_31
                           0x1'1bff   0xa2  Code  Lc  vstdlib.o [19]
VStdLib_MemCpy             0x1'212f   0x5e  Code  Gb  vstdlib.o [19]
VStdLib_MemSet             0x1'20e5   0x4a  Code  Gb  vstdlib.o [19]
WDOG_EWM_IRQHandler        0x1'35d1         Code  Wk  startup_S32K148.o [20]
WaitEvent                  0x1'd64f   0x4c  Code  Gb  Os_Trap.o [17]
_Code_Default_LIMIT        0x1'35d4         Data  Gb  <internal module>
_Code_Default_START           0x628         Data  Gb  <internal module>
_Const_Default_LIMIT       0x2'a0d8         Data  Gb  <internal module>
_Const_Default_START       0x2'9094         Data  Gb  <internal module>
_Data_Default_INIT_LIMIT
                        0x1fff'bbcc         Data  Gb  <internal module>
_Data_Default_INIT_START
                        0x1fff'bbcc         Data  Gb  <internal module>
_Data_Default_LIMIT     0x1fff'bbcc         Data  Gb  <internal module>
_Data_Default_START     0x1fff'b6fc         Data  Gb  <internal module>
_Data_Default_VAR_ALL_LIMIT
                        0x1fff'bbcc         Data  Gb  <internal module>
_Data_Default_VAR_ALL_START
                        0x1fff'b6fc         Data  Gb  <internal module>
_Heap_Default_LIMIT     0x1fff'bbcc         Data  Gb  <internal module>
_Heap_Default_START     0x1fff'bbcc         Data  Gb  <internal module>
_Heap_Default_VAR_ALL_LIMIT
                        0x1fff'bbcc         Data  Gb  <internal module>
_Heap_Default_VAR_ALL_START
                        0x1fff'bbcc         Data  Gb  <internal module>
_OS_CODE_LIMIT             0x2'8784         Data  Gb  <internal module>
_OS_CODE_START             0x1'35d4         Data  Gb  <internal module>
_OS_CONST_LIMIT            0x2'9094         Data  Gb  <internal module>
_OS_CONST_START            0x2'8784         Data  Gb  <internal module>
_OS_DATA_CORE0_NOINIT_LIMIT
                        0x1fff'b6d9         Data  Gb  <internal module>
_OS_DATA_CORE0_NOINIT_START
                        0x1fff'b000         Data  Gb  <internal module>
_OS_DATA_CORE0_VAR_ALL_LIMIT
                        0x1fff'b6d9         Data  Gb  <internal module>
_OS_DATA_CORE0_VAR_ALL_START
                        0x1fff'b000         Data  Gb  <internal module>
_OS_DATA_SHARED_INIT_LIMIT
                        0x1fff'b6fc         Data  Gb  <internal module>
_OS_DATA_SHARED_INIT_START
                        0x1fff'b6fc         Data  Gb  <internal module>
_OS_DATA_SHARED_NOINIT_LIMIT
                        0x1fff'b6fc         Data  Gb  <internal module>
_OS_DATA_SHARED_NOINIT_START
                        0x1fff'b6dc         Data  Gb  <internal module>
_OS_DATA_SHARED_VAR_ALL_LIMIT
                        0x1fff'b6fc         Data  Gb  <internal module>
_OS_DATA_SHARED_VAR_ALL_START
                        0x1fff'b6dc         Data  Gb  <internal module>
_OS_DATA_SHARED_ZERO_INIT_LIMIT
                        0x1fff'b6fc         Data  Gb  <internal module>
_OS_DATA_SHARED_ZERO_INIT_START
                        0x1fff'b6fc         Data  Gb  <internal module>
_OS_EXCVEC_CORE0_CODE_LIMIT
                              0x500         Data  Gb  <internal module>
_OS_EXCVEC_CORE0_CODE_START
                              0x500         Data  Gb  <internal module>
_OS_EXCVEC_CORE0_CONST_LIMIT
                                0x0         Data  Gb  <internal module>
_OS_EXCVEC_CORE0_CONST_START
                                0x0         Data  Gb  <internal module>
_OS_INTVEC_CODE_LIMIT         0x500         Data  Gb  <internal module>
_OS_INTVEC_CODE_START         0x500         Data  Gb  <internal module>
_OS_INTVEC_CORE0_CODE_LIMIT
                              0x628         Data  Gb  <internal module>
_OS_INTVEC_CORE0_CODE_START
                              0x500         Data  Gb  <internal module>
_OS_INTVEC_CORE0_CONST_LIMIT
                              0x3c0         Data  Gb  <internal module>
_OS_INTVEC_CORE0_CONST_START
                                0x0         Data  Gb  <internal module>
_OS_STACKS_CORE0_NOINIT_LIMIT
                        0x1fff'a800         Data  Gb  <internal module>
_OS_STACKS_CORE0_NOINIT_START
                        0x1fff'8000         Data  Gb  <internal module>
_OS_STACKS_CORE0_VAR_ALL_LIMIT
                        0x1fff'a800         Data  Gb  <internal module>
_OS_STACKS_CORE0_VAR_ALL_START
                        0x1fff'8000         Data  Gb  <internal module>
_OS_SystemApplication_OsCore0_NOINIT_LIMIT
                        0x1fff'a800         Data  Gb  <internal module>
_OS_SystemApplication_OsCore0_NOINIT_START
                        0x1fff'a800         Data  Gb  <internal module>
_OS_SystemApplication_OsCore0_VAR_ALL_LIMIT
                        0x1fff'a800         Data  Gb  <internal module>
_OS_SystemApplication_OsCore0_VAR_ALL_START
                        0x1fff'a800         Data  Gb  <internal module>
_Startup_Code_LIMIT           0x628         Data  Gb  <internal module>
_Startup_Code_START           0x628         Data  Gb  <internal module>
_Startup_Stack_LIMIT    0x1fff'b000         Data  Gb  <internal module>
_Startup_Stack_START    0x1fff'a800         Data  Gb  <internal module>
_Startup_Stack_VAR_ALL_LIMIT
                        0x1fff'b000         Data  Gb  <internal module>
_Startup_Stack_VAR_ALL_START
                        0x1fff'a800         Data  Gb  <internal module>
__CODE_RAM$$Base                0x0          --   Gb  - Linker created -
__CODE_ROM$$Base                0x0          --   Gb  - Linker created -
__CODE_ROM$$Limit               0x0          --   Gb  - Linker created -
__Code_Default_LIMIT       0x1'35d4         Data  Gb  <internal module>
__Code_Default_START          0x628         Data  Gb  <internal module>
__Const_Default_LIMIT      0x2'a0d8         Data  Gb  <internal module>
__Const_Default_START      0x2'9094         Data  Gb  <internal module>
__Data_Default_INIT_LIMIT
                        0x1fff'bbcc         Data  Gb  <internal module>
__Data_Default_INIT_START
                        0x1fff'bbcc         Data  Gb  <internal module>
__Data_Default_LIMIT    0x1fff'bbcc         Data  Gb  <internal module>
__Data_Default_START    0x1fff'b6fc         Data  Gb  <internal module>
__Heap_Default_LIMIT    0x1fff'bbcc         Data  Gb  <internal module>
__Heap_Default_START    0x1fff'bbcc         Data  Gb  <internal module>
__OS_CODE_LIMIT            0x2'8784         Data  Gb  <internal module>
__OS_CODE_START            0x1'35d4         Data  Gb  <internal module>
__OS_CONST_LIMIT           0x2'9094         Data  Gb  <internal module>
__OS_CONST_START           0x2'8784         Data  Gb  <internal module>
__OS_DATA_CORE0_NOINIT_LIMIT
                        0x1fff'b6d9         Data  Gb  <internal module>
__OS_DATA_CORE0_NOINIT_START
                        0x1fff'b000         Data  Gb  <internal module>
__OS_DATA_SHARED_INIT_LIMIT
                        0x1fff'b6fc         Data  Gb  <internal module>
__OS_DATA_SHARED_INIT_START
                        0x1fff'b6fc         Data  Gb  <internal module>
__OS_DATA_SHARED_NOINIT_LIMIT
                        0x1fff'b6fc         Data  Gb  <internal module>
__OS_DATA_SHARED_NOINIT_START
                        0x1fff'b6dc         Data  Gb  <internal module>
__OS_DATA_SHARED_ZERO_INIT_LIMIT
                        0x1fff'b6fc         Data  Gb  <internal module>
__OS_DATA_SHARED_ZERO_INIT_START
                        0x1fff'b6fc         Data  Gb  <internal module>
__OS_EXCVEC_CORE0_CODE_LIMIT
                              0x500         Data  Gb  <internal module>
__OS_EXCVEC_CORE0_CODE_START
                              0x500         Data  Gb  <internal module>
__OS_EXCVEC_CORE0_CONST_LIMIT
                                0x0         Data  Gb  <internal module>
__OS_EXCVEC_CORE0_CONST_START
                                0x0         Data  Gb  <internal module>
__OS_INTVEC_CODE_LIMIT        0x500         Data  Gb  <internal module>
__OS_INTVEC_CODE_START        0x500         Data  Gb  <internal module>
__OS_INTVEC_CORE0_CODE_LIMIT
                              0x628         Data  Gb  <internal module>
__OS_INTVEC_CORE0_CODE_START
                              0x500         Data  Gb  <internal module>
__OS_INTVEC_CORE0_CONST_LIMIT
                              0x3c0         Data  Gb  <internal module>
__OS_INTVEC_CORE0_CONST_START
                                0x0         Data  Gb  <internal module>
__OS_STACKS_CORE0_NOINIT_LIMIT
                        0x1fff'a800         Data  Gb  <internal module>
__OS_STACKS_CORE0_NOINIT_START
                        0x1fff'8000         Data  Gb  <internal module>
__OS_SystemApplication_OsCore0_NOINIT_LIMIT
                        0x1fff'a800         Data  Gb  <internal module>
__OS_SystemApplication_OsCore0_NOINIT_START
                        0x1fff'a800         Data  Gb  <internal module>
__RAM_VECTOR_TABLE_SIZE {Abs}
                              0x400         Data  Gb  <internal module>
__Startup_Code_LIMIT          0x628         Data  Gb  <internal module>
__Startup_Code_START          0x628         Data  Gb  <internal module>
__Startup_Stack_LIMIT   0x1fff'b000         Data  Gb  <internal module>
__Startup_Stack_START   0x1fff'a800         Data  Gb  <internal module>
__VECTOR_RAM {Abs}      0x1fff'8000         Data  Gb  <internal module>
__VECTOR_TABLE {Abs}            0x0         Data  Gb  <internal module>
__Vectors                  0x2'9cd8          --   Gb  startup_S32K148.o [20]
__Vectors_End              0x2'a0d8         Data  Gb  startup_S32K148.o [20]
__Vectors_Size {Abs}          0x400          --   Gb  startup_S32K148.o [20]
__aeabi_memcpy             0x1'25b5         Code  Gb  ABImemcpy.o [27]
__aeabi_memcpy4            0x1'25d5         Code  Gb  ABImemcpy.o [27]
__aeabi_memcpy8            0x1'25d5         Code  Gb  ABImemcpy.o [27]
__cmain                    0x1'3531         Code  Gb  cmain.o [27]
__exit                     0x1'3565   0x14  Code  Gb  exit.o [28]
__iar_init_vfp             0x1'350d         Code  Gb  fpinit_M.o [26]
__iar_program_start        0x1'34f1         Code  Gb  cstartup_M.o [27]
__low_level_init           0x1'354f    0x4  Code  Gb  low_level_init.o [25]
__vector_table             0x2'9cd8         Data  Gb  startup_S32K148.o [20]
__vector_table_0x1c        0x2'9cf4         Data  Gb  startup_S32K148.o [20]
_call_main                 0x1'353d         Code  Gb  cmain.o [27]
_exit                      0x1'3559         Code  Gb  cexit.o [27]
a                       0x1fff'b800    0x4  Data  Gb  CddSbc.o [4]
canConfigInitFlag       0x1fff'bba7    0x1  Data  Lc  Can.o [6]
canRxTaskActive         0x1fff'bba6    0x1  Data  Lc  Can.o [6]
detModuleInit           0x1fff'bbbf    0x1  Data  Lc  Det.o [14]
exit                       0x1'3553    0x4  Code  Gb  exit.o [25]
init_data_bss              0x1'33b9   0xb4  Code  Gb  startup.o [20]
main                          0x64d   0x12  Code  Gb  BrsAsrMain.o [1]
result                  0x1fff'bbab    0x1  Data  Lc  CddSbc.o [4]


[1] = D:\WebDown\S32K144\S32K144 …\S32K144 AUTOSAR工具包\share_20230823\AUTOSAR_TOOLs\S32K144_SIP\MICROSAR\CBD1800257_D01_S32K1xx\Applications\S32K144_Start_new_IAR\Debug\Obj\Appl
[2] = D:\WebDown\S32K144\S32K144 …\S32K144 AUTOSAR工具包\share_20230823\AUTOSAR_TOOLs\S32K144_SIP\MICROSAR\CBD1800257_D01_S32K1xx\Applications\S32K144_Start_new_IAR\Debug\Obj\Appl\GenData
[3] = D:\WebDown\S32K144\S32K144 …\S32K144 AUTOSAR工具包\share_20230823\AUTOSAR_TOOLs\S32K144_SIP\MICROSAR\CBD1800257_D01_S32K1xx\Applications\S32K144_Start_new_IAR\Debug\Obj\Appl\GenData\src
[4] = D:\WebDown\S32K144\S32K144 …\S32K144 AUTOSAR工具包\share_20230823\AUTOSAR_TOOLs\S32K144_SIP\MICROSAR\CBD1800257_D01_S32K1xx\Applications\S32K144_Start_new_IAR\Debug\Obj\Appl\Source
[5] = D:\WebDown\S32K144\S32K144 …\S32K144 AUTOSAR工具包\share_20230823\AUTOSAR_TOOLs\S32K144_SIP\MICROSAR\CBD1800257_D01_S32K1xx\Applications\S32K144_Start_new_IAR\Debug\Obj\BSW\BswM
[6] = D:\WebDown\S32K144\S32K144 …\S32K144 AUTOSAR工具包\share_20230823\AUTOSAR_TOOLs\S32K144_SIP\MICROSAR\CBD1800257_D01_S32K1xx\Applications\S32K144_Start_new_IAR\Debug\Obj\BSW\Can
[7] = D:\WebDown\S32K144\S32K144 …\S32K144 AUTOSAR工具包\share_20230823\AUTOSAR_TOOLs\S32K144_SIP\MICROSAR\CBD1800257_D01_S32K1xx\Applications\S32K144_Start_new_IAR\Debug\Obj\BSW\CanIf
[8] = D:\WebDown\S32K144\S32K144 …\S32K144 AUTOSAR工具包\share_20230823\AUTOSAR_TOOLs\S32K144_SIP\MICROSAR\CBD1800257_D01_S32K1xx\Applications\S32K144_Start_new_IAR\Debug\Obj\BSW\CanSM
[9] = D:\WebDown\S32K144\S32K144 …\S32K144 AUTOSAR工具包\share_20230823\AUTOSAR_TOOLs\S32K144_SIP\MICROSAR\CBD1800257_D01_S32K1xx\Applications\S32K144_Start_new_IAR\Debug\Obj\BSW\CanTP
[10] = D:\WebDown\S32K144\S32K144 …\S32K144 AUTOSAR工具包\share_20230823\AUTOSAR_TOOLs\S32K144_SIP\MICROSAR\CBD1800257_D01_S32K1xx\Applications\S32K144_Start_new_IAR\Debug\Obj\BSW\Com
[11] = D:\WebDown\S32K144\S32K144 …\S32K144 AUTOSAR工具包\share_20230823\AUTOSAR_TOOLs\S32K144_SIP\MICROSAR\CBD1800257_D01_S32K1xx\Applications\S32K144_Start_new_IAR\Debug\Obj\BSW\ComM
[12] = D:\WebDown\S32K144\S32K144 …\S32K144 AUTOSAR工具包\share_20230823\AUTOSAR_TOOLs\S32K144_SIP\MICROSAR\CBD1800257_D01_S32K1xx\Applications\S32K144_Start_new_IAR\Debug\Obj\BSW\Dcm
[13] = D:\WebDown\S32K144\S32K144 …\S32K144 AUTOSAR工具包\share_20230823\AUTOSAR_TOOLs\S32K144_SIP\MICROSAR\CBD1800257_D01_S32K1xx\Applications\S32K144_Start_new_IAR\Debug\Obj\BSW\Dem
[14] = D:\WebDown\S32K144\S32K144 …\S32K144 AUTOSAR工具包\share_20230823\AUTOSAR_TOOLs\S32K144_SIP\MICROSAR\CBD1800257_D01_S32K1xx\Applications\S32K144_Start_new_IAR\Debug\Obj\BSW\Det
[15] = D:\WebDown\S32K144\S32K144 …\S32K144 AUTOSAR工具包\share_20230823\AUTOSAR_TOOLs\S32K144_SIP\MICROSAR\CBD1800257_D01_S32K1xx\Applications\S32K144_Start_new_IAR\Debug\Obj\BSW\EcuM
[16] = D:\WebDown\S32K144\S32K144 …\S32K144 AUTOSAR工具包\share_20230823\AUTOSAR_TOOLs\S32K144_SIP\MICROSAR\CBD1800257_D01_S32K1xx\Applications\S32K144_Start_new_IAR\Debug\Obj\BSW\Nm
[17] = D:\WebDown\S32K144\S32K144 …\S32K144 AUTOSAR工具包\share_20230823\AUTOSAR_TOOLs\S32K144_SIP\MICROSAR\CBD1800257_D01_S32K1xx\Applications\S32K144_Start_new_IAR\Debug\Obj\BSW\Os
[18] = D:\WebDown\S32K144\S32K144 …\S32K144 AUTOSAR工具包\share_20230823\AUTOSAR_TOOLs\S32K144_SIP\MICROSAR\CBD1800257_D01_S32K1xx\Applications\S32K144_Start_new_IAR\Debug\Obj\BSW\PduR
[19] = D:\WebDown\S32K144\S32K144 …\S32K144 AUTOSAR工具包\share_20230823\AUTOSAR_TOOLs\S32K144_SIP\MICROSAR\CBD1800257_D01_S32K1xx\Applications\S32K144_Start_new_IAR\Debug\Obj\BSW\VstdLib
[20] = D:\WebDown\S32K144\S32K144 …\S32K144 AUTOSAR工具包\share_20230823\AUTOSAR_TOOLs\S32K144_SIP\MICROSAR\CBD1800257_D01_S32K1xx\Applications\S32K144_Start_new_IAR\Debug\Obj\Device
[21] = D:\WebDown\S32K144\S32K144 …\S32K144 AUTOSAR工具包\share_20230823\AUTOSAR_TOOLs\S32K144_SIP\MICROSAR\CBD1800257_D01_S32K1xx\Applications\S32K144_Start_new_IAR\Debug\Obj\MCAL\DIO
[22] = D:\WebDown\S32K144\S32K144 …\S32K144 AUTOSAR工具包\share_20230823\AUTOSAR_TOOLs\S32K144_SIP\MICROSAR\CBD1800257_D01_S32K1xx\Applications\S32K144_Start_new_IAR\Debug\Obj\MCAL\MCU
[23] = D:\WebDown\S32K144\S32K144 …\S32K144 AUTOSAR工具包\share_20230823\AUTOSAR_TOOLs\S32K144_SIP\MICROSAR\CBD1800257_D01_S32K1xx\Applications\S32K144_Start_new_IAR\Debug\Obj\MCAL\PORT
[24] = D:\WebDown\S32K144\S32K144 …\S32K144 AUTOSAR工具包\share_20230823\AUTOSAR_TOOLs\S32K144_SIP\MICROSAR\CBD1800257_D01_S32K1xx\Applications\S32K144_Start_new_IAR\Debug\Obj\MCAL\SPI
[25] = dl7M_tln.a
[26] = m7M_tls.a
[27] = rt7M_tl.a
[28] = shb_l.a

  165'520 bytes of readonly  code memory
    6'398 bytes of readonly  data memory
   15'293 bytes of readwrite data memory

Errors: none
Warnings: none
